
Optional file vector_offset_init.o not found
Archive member included to satisfy reference by file (symbol)

c:/program files/microchip/xc32/v4.00/bin/bin/../../lib/gcc/pic32mx/8.3.1/../../../../pic32mx/lib/fpu64\libpic32.a(default-on-reset.o)
                              C:\Users\HAROLD~1\AppData\Local\Temp\ccKBed8x.o (_on_reset)
c:/program files/microchip/xc32/v4.00/bin/bin/../../lib/gcc/pic32mx/8.3.1/../../../../pic32mx/lib/fpu64\libpic32.a(default-on-bootstrap.o)
                              C:\Users\HAROLD~1\AppData\Local\Temp\ccKBed8x.o (_on_bootstrap)
c:/program files/microchip/xc32/v4.00/bin/bin/../../lib/gcc/pic32mx/8.3.1/../../../../pic32mx/lib/fpu64\libpic32.a(default-nmi-handler.o)
                              C:\Users\HAROLD~1\AppData\Local\Temp\ccKBed8x.o (_nmi_handler)
c:/program files/microchip/xc32/v4.00/bin/bin/../../lib/gcc/pic32mx/8.3.1/../../../../pic32mx/lib/fpu64\libpic32.a(pic32_data_init.o)
                              C:\Users\HAROLD~1\AppData\Local\Temp\ccKBed8x.o (__pic32_data_init)
c:/program files/microchip/xc32/v4.00/bin/bin/../../lib/gcc/pic32mx/8.3.1/../../../../pic32mx/lib/fpu64\libpic32.a(pic32_init_cache.o)
                              C:\Users\HAROLD~1\AppData\Local\Temp\ccKBed8x.o (__pic32_init_cache)
c:/program files/microchip/xc32/v4.00/bin/bin/../../lib/gcc/pic32mx/8.3.1/../../../../pic32mx/lib/fpu64\libpic32.a(pic32_init_tlb_ebi_sqi.o)
                              C:\Users\HAROLD~1\AppData\Local\Temp\ccKBed8x.o (__pic32_tlb_init_ebi_sqi)
c:/program files/microchip/xc32/v4.00/bin/bin/../../lib/gcc/pic32mx/8.3.1/../../../../pic32mx/lib/fpu64\libpic32.a(general-exception.o)
                              C:\Users\HAROLD~1\AppData\Local\Temp\ccKBed8x.o (_general_exception_context)
c:/program files/microchip/xc32/v4.00/bin/bin/../../lib/gcc/pic32mx/8.3.1/../../../../pic32mx/lib/fpu64\libpic32.a(cache-err-exception.o)
                              C:\Users\HAROLD~1\AppData\Local\Temp\ccKBed8x.o (_cache_err_exception_context)
c:/program files/microchip/xc32/v4.00/bin/bin/../../lib/gcc/pic32mx/8.3.1/../../../../pic32mx/lib/fpu64\libpic32.a(simple-tlb-refill-exception.o)
                              C:\Users\HAROLD~1\AppData\Local\Temp\ccKBed8x.o (_simple_tlb_refill_exception_context)
c:/program files/microchip/xc32/v4.00/bin/bin/../../lib/gcc/pic32mx/8.3.1/../../../../pic32mx/lib/fpu64\libpic32.a(defaultinterrupt.o)
                              C:\Users\HAROLD~1\AppData\Local\Temp\cc4OfyKV.o (_DefaultInterrupt)
c:/program files/microchip/xc32/v4.00/bin/bin/../../lib/gcc/pic32mx/8.3.1/../../../../pic32mx/lib/fpu64\libc-musl.a(malloc.o)
                              build/DSP_TU/debug/_ext/1360937237/biquad.o (free)
c:/program files/microchip/xc32/v4.00/bin/bin/../../lib/gcc/pic32mx/8.3.1/../../../../pic32mx/lib/fpu64\libc-musl.a(expand_heap.o)
                              c:/program files/microchip/xc32/v4.00/bin/bin/../../lib/gcc/pic32mx/8.3.1/../../../../pic32mx/lib/fpu64\libc-musl.a(malloc.o) (__expand_heap)
c:/program files/microchip/xc32/v4.00/bin/bin/../../lib/gcc/pic32mx/8.3.1/../../../../pic32mx/lib/fpu64\libc-musl.a(memcpy.o)
                              c:/program files/microchip/xc32/v4.00/bin/bin/../../lib/gcc/pic32mx/8.3.1/../../../../pic32mx/lib/fpu64\libc-musl.a(malloc.o) (memcpy)
c:/program files/microchip/xc32/v4.00/bin/bin/../../lib/gcc/pic32mx/8.3.1/../../../../pic32mx/lib/fpu64\libc-musl.a(libc.o)
                              c:/program files/microchip/xc32/v4.00/bin/bin/../../lib/gcc/pic32mx/8.3.1/../../../../pic32mx/lib/fpu64\libc-musl.a(malloc.o) (__libc)
c:/program files/microchip/xc32/v4.00/bin/bin/../../lib/gcc/pic32mx/8.3.1/../../../../pic32mx/lib/fpu64\libm-musl.a(cos.o)
                              build/DSP_TU/debug/_ext/1360937237/biquad.o (cos)
c:/program files/microchip/xc32/v4.00/bin/bin/../../lib/gcc/pic32mx/8.3.1/../../../../pic32mx/lib/fpu64\libm-musl.a(pow.o)
                              build/DSP_TU/debug/_ext/1360937237/biquad.o (pow)
c:/program files/microchip/xc32/v4.00/bin/bin/../../lib/gcc/pic32mx/8.3.1/../../../../pic32mx/lib/fpu64\libm-musl.a(scalbn.o)
                              c:/program files/microchip/xc32/v4.00/bin/bin/../../lib/gcc/pic32mx/8.3.1/../../../../pic32mx/lib/fpu64\libm-musl.a(pow.o) (scalbn)
c:/program files/microchip/xc32/v4.00/bin/bin/../../lib/gcc/pic32mx/8.3.1/../../../../pic32mx/lib/fpu64\libm-musl.a(sin.o)
                              build/DSP_TU/debug/_ext/1360937237/biquad.o (sin)
c:/program files/microchip/xc32/v4.00/bin/bin/../../lib/gcc/pic32mx/8.3.1/../../../../pic32mx/lib/fpu64\libm-musl.a(sqrt.o)
                              c:/program files/microchip/xc32/v4.00/bin/bin/../../lib/gcc/pic32mx/8.3.1/../../../../pic32mx/lib/fpu64\libm-musl.a(pow.o) (sqrt)
c:/program files/microchip/xc32/v4.00/bin/bin/../../lib/gcc/pic32mx/8.3.1/../../../../pic32mx/lib/fpu64\libm-musl.a(__cos.o)
                              c:/program files/microchip/xc32/v4.00/bin/bin/../../lib/gcc/pic32mx/8.3.1/../../../../pic32mx/lib/fpu64\libm-musl.a(cos.o) (__cos)
c:/program files/microchip/xc32/v4.00/bin/bin/../../lib/gcc/pic32mx/8.3.1/../../../../pic32mx/lib/fpu64\libm-musl.a(__rem_pio2.o)
                              c:/program files/microchip/xc32/v4.00/bin/bin/../../lib/gcc/pic32mx/8.3.1/../../../../pic32mx/lib/fpu64\libm-musl.a(cos.o) (__rem_pio2)
c:/program files/microchip/xc32/v4.00/bin/bin/../../lib/gcc/pic32mx/8.3.1/../../../../pic32mx/lib/fpu64\libm-musl.a(__rem_pio2_large.o)
                              c:/program files/microchip/xc32/v4.00/bin/bin/../../lib/gcc/pic32mx/8.3.1/../../../../pic32mx/lib/fpu64\libm-musl.a(__rem_pio2.o) (__rem_pio2_large)
c:/program files/microchip/xc32/v4.00/bin/bin/../../lib/gcc/pic32mx/8.3.1/../../../../pic32mx/lib/fpu64\libm-musl.a(__sin.o)
                              c:/program files/microchip/xc32/v4.00/bin/bin/../../lib/gcc/pic32mx/8.3.1/../../../../pic32mx/lib/fpu64\libm-musl.a(cos.o) (__sin)
c:/program files/microchip/xc32/v4.00/bin/bin/../../lib/gcc/pic32mx/8.3.1/../../../../pic32mx/lib/fpu64\libm-musl.a(fabs.o)
                              c:/program files/microchip/xc32/v4.00/bin/bin/../../lib/gcc/pic32mx/8.3.1/../../../../pic32mx/lib/fpu64\libm-musl.a(pow.o) (fabs)
c:/program files/microchip/xc32/v4.00/bin/bin/../../lib/gcc/pic32mx/8.3.1/../../../../pic32mx/lib/fpu64\libm-musl.a(floor.o)
                              c:/program files/microchip/xc32/v4.00/bin/bin/../../lib/gcc/pic32mx/8.3.1/../../../../pic32mx/lib/fpu64\libm-musl.a(__rem_pio2_large.o) (floor)
c:/program files/microchip/xc32/v4.00/bin/bin/../../lib/gcc/pic32mx/8.3.1/../../../../pic32mx/lib/fpu64\libpic32.a(sbrk.o)
                              c:/program files/microchip/xc32/v4.00/bin/bin/../../lib/gcc/pic32mx/8.3.1/../../../../pic32mx/lib/fpu64\libc-musl.a(expand_heap.o) (_sbrk)
c:/program files/microchip/xc32/v4.00/bin/bin/../../lib/gcc/pic32mx/8.3.1/../../../../pic32mx/lib/fpu64\libpic32.a(errno.o)
                              c:/program files/microchip/xc32/v4.00/bin/bin/../../lib/gcc/pic32mx/8.3.1/../../../../pic32mx/lib/fpu64\libc-musl.a(malloc.o) (errno)
c:/program files/microchip/xc32/v4.00/bin/bin/../../lib/gcc/pic32mx/8.3.1/../../../../pic32mx/lib/fpu64\libpic32.a(memset.o)
                              c:/program files/microchip/xc32/v4.00/bin/bin/../../lib/gcc/pic32mx/8.3.1/../../../../pic32mx/lib/fpu64\libpic32.a(sbrk.o) (memset)
c:/program files/microchip/xc32/v4.00/bin/bin/../../lib/gcc/pic32mx/8.3.1/fpu64\libgcc.a(_lshrdi3.o)
                              c:/program files/microchip/xc32/v4.00/bin/bin/../../lib/gcc/pic32mx/8.3.1/../../../../pic32mx/lib/fpu64\libc-musl.a(malloc.o) (__lshrdi3)
c:/program files/microchip/xc32/v4.00/bin/bin/../../lib/gcc/pic32mx/8.3.1/fpu64\libgcc.a(_ashldi3.o)
                              c:/program files/microchip/xc32/v4.00/bin/bin/../../lib/gcc/pic32mx/8.3.1/../../../../pic32mx/lib/fpu64\libc-musl.a(malloc.o) (__ashldi3)

Allocating common symbols
Common symbol       size              file

samplef             0x8               build/DSP_TU/debug/_ext/1360937237/main.o
Threshold           0x8               build/DSP_TU/debug/_ext/1360937237/main.o
DiscrimOut          0x8               build/DSP_TU/debug/_ext/1360937237/main.o
AgcLpf              0x4               build/DSP_TU/debug/_ext/1360937237/agc.o
SpaceSample         0x8               build/DSP_TU/debug/_ext/1360937237/main.o
SpaceDemodOut       0x8               build/DSP_TU/debug/_ext/1360937237/main.o
MarkSample          0x8               build/DSP_TU/debug/_ext/1360937237/main.o
uart2Obj            0x44              build/DSP_TU/debug/_ext/471065532/plib_uart2.o
DynamicThresholdLpf
                    0x4               build/DSP_TU/debug/_ext/1360937237/DynamicThreshold.o
MarkDemodOut        0x8               build/DSP_TU/debug/_ext/1360937237/main.o
DdsOut              0x8               build/DSP_TU/debug/_ext/1360937237/main.o
TestSamplef         0x8               build/DSP_TU/debug/_ext/1360937237/main.o

Microchip PIC32 Memory-Usage Report

kseg0 Program-Memory Usage
section                    address  length [bytes]      (dec)  Description
-------                 ----------  -------------------------  -----------
.simple_tlb_refill_excp 0x9d000000           0x10          16   
.text.UART2_Initialize  0x9d000010           0xe4         228   
.text.__exception_handl 0x9d0000f4            0xc          12   
.cache_err_excpt        0x9d000100           0x10          16   
.text.alloc_fwd         0x9d000110           0x70         112   
.app_excpt              0x9d000180           0x10          16  General-Exception 
.text.bin_index         0x9d000190           0x64         100   
.text._on_reset         0x9d0001f4            0x8           8   
.vectors                0x9d000200           0x68         104   
.text.pow               0x9d000268          0x8b0        2224   
.text.__rem_pio2_large  0x9d000b18          0x848        2120   
.text.main              0x9d001360          0x4f4        1268   
.dinit                  0x9d001854          0x4a0        1184   
.text.__rem_pio2        0x9d001cf4          0x42c        1068   
.text.BiQuad_new        0x9d002120          0x390         912   
.text.malloc            0x9d0024b0          0x29c         668   
.text.sqrt              0x9d00274c          0x254         596   
.text.TIMER_2_Handler   0x9d0029a0          0x1d0         464   
.text.UART2_FAULT_Handl 0x9d002b70          0x1d0         464   
.text.UART2_RX_Handler  0x9d002d40          0x1d0         464   
.text.UART2_TX_Handler  0x9d002f10          0x1d0         464   
.text.free              0x9d0030e0          0x19c         412   
.text.UART2_RX_Interrup 0x9d00327c          0x18c         396   
.text.UART2_TX_Interrup 0x9d003408          0x184         388   
.rodata                 0x9d003590          0x158         344  Read-only const 
.text._sbrk_init        0x9d0036e8          0x154         340   
.text.sin               0x9d00383c          0x120         288   
.text.ADCHS_Initialize  0x9d00395c          0x110         272   
.text.cos               0x9d003a6c          0x100         256   
.rodata.cst8            0x9d003b70           0xf8         248   
.text.general_exception 0x9d003c68           0xdc         220   
.text._cache_err_except 0x9d003d44           0xd8         216   
.text.simple_tlb_refill 0x9d003e1c           0xd8         216   
.text.GPIO_Initialize   0x9d003ef4           0xc0         192   
.text.UART2_FAULT_Inter 0x9d003fb4           0xbc         188   
.tlb.__pic32_tlb_init_e 0x9d004070           0xbc         188   
.text.CLK_Initialize    0x9d00412c           0xb4         180   
.text.DynamicThresholdG 0x9d0041e0           0xb4         180   
.text.floor             0x9d004294           0xb4         180   
.text._sbrk             0x9d004348           0xb0         176   
.text.unbin             0x9d0043f8           0xac         172   
.text.__sin             0x9d0044a4           0x90         144   
.text                   0x9d004534           0x8c         140  App's exec code 
.text.scalbn            0x9d0045c0           0x8c         140   
.text.SYS_Initialize    0x9d00464c           0x88         136   
.text.__cos             0x9d0046d4           0x88         136   
.text.agc               0x9d00475c           0x84         132   
.rodata.cst8            0x9d0047e0           0x78         120   
.text.alloc_rev         0x9d004858           0x74         116   
.text.TIMER_2_Interrupt 0x9d0048cc           0x60          96   
.text.EVIC_Initialize   0x9d00492c           0x5c          92   
.rodata                 0x9d004988           0x5c          92  Read-only const 
.text.AudioPwmSet       0x9d0049e4           0x58          88   
.text.adjust_size       0x9d004a3c           0x58          88   
.text.trim              0x9d004a94           0x58          88   
.text.BiQuad            0x9d004aec           0x54          84   
.text.main_entry        0x9d004b40           0x54          84   
.text.DdsNextSample     0x9d004b94           0x50          80   
.text.DynamicThresholdI 0x9d004be4           0x4c          76   
.rodata.cst8            0x9d004c30           0x48          72   
.text.AgcInit           0x9d004c78           0x48          72   
.text                   0x9d004cc0           0x44          68  App's exec code 
.rodata.cst8            0x9d004d08           0x80         128   
.text.TMR2_Initialize   0x9d004d88           0x3c          60   
.text.__expand_heap     0x9d004dc4           0x3c          60   
.text                   0x9d004e00           0x78         120  App's exec code 
.text.UART2_WritePendin 0x9d004e78           0x34          52   
.text.UART2_ReadCountGe 0x9d004eac           0x34          52   
.text.lock_bin          0x9d004ee0           0x34          52   
.text.ADCHS_ChannelResu 0x9d004f14           0x30          48   
.text.UART2_WriteFreeBu 0x9d004f44           0x30          48   
.rodata.cst8            0x9d004f78           0x30          48   
.rodata                 0x9d004fa8           0x30          48  Read-only const 
.rodata.cst8            0x9d004fd8           0x30          48   
.text._stub_sbd_memlayo 0x9d005008           0x2c          44   
.text.ADCHS_ChannelConv 0x9d005034           0x28          40   
.text.OCMP1_Initialize  0x9d00505c           0x28          40   
.text.DdsFreqSet        0x9d005084           0x20          32   
.rodata.cst8            0x9d0050a8           0x20          32   
.text._general_exceptio 0x9d0050c8           0x1c          28   
.text._bootstrap_except 0x9d0050e4           0x1c          28   
.text._cache_err_except 0x9d005100           0x1c          28   
.text._simple_tlb_refil 0x9d00511c           0x1c          28   
.MIPS.abiflags          0x9d005138           0x18          24   
.text.ADCHS_ChannelResu 0x9d005150           0x18          24   
.text                   0x9d005168           0x18          24  App's exec code 
.text.fabs              0x9d005180           0x18          24   
.rodata.cst8            0x9d005198           0x18          24   
.text.OCMP1_Enable      0x9d0051b0           0x14          20   
.text.TMR2_Start        0x9d0051c4           0x14          20   
.text.OCMP1_CompareSeco 0x9d0051d8           0x10          16   
.rodata.cst8            0x9d0051e8           0x20          32   
.rodata.cst8            0x9d005208           0x20          32   
.rodata.cst8            0x9d005228           0x20          32   
.rodata.cst8            0x9d005248           0x10          16   
.text._on_bootstrap     0x9d005258            0x8           8   
      Total kseg0_program_mem used  :      0x5248       21064  1.0% of 0x200000

kseg0 Boot-Memory Usage
section                    address  length [bytes]      (dec)  Description
-------                 ----------  -------------------------  -----------
         Total kseg0_boot_mem used  :           0           0  

kseg1 Boot-Memory Usage
section                    address  length [bytes]      (dec)  Description
-------                 ----------  -------------------------  -----------
.reset                  0xbfc00000          0x1c4         452  Reset handler 
.bev_excpt              0xbfc00380           0x10          16  BEV-Exception 
         Total kseg1_boot_mem used  :       0x1d4         468  40.6% of 0x480
        --------------------------------------------------------------------------
         Total Program Memory used  :      0x541c       21532  1.0% of 0x200480
        --------------------------------------------------------------------------


kseg0 Data-Memory Usage
section                    address  length [bytes]      (dec)  Description
-------                 ----------  -------------------------  -----------
reserve_data_0_kseg0    0x80000000          0x380         896   
.sdata                  0x80000380           0x84         132  Small init data 
.sbss                   0x80000404           0x94         148  Small uninit data 
.bss                    0x80000498           0x44          68  Uninitialized data 
.bss                    0x800004dc          0x280         640  Uninitialized data 
.bss.errno              0x8000075c            0x4           4   
.bss                    0x80000760          0x260         608  Uninitialized data 
.bss                    0x800009c0           0x24          36  Uninitialized data 
         Total kseg0_data_mem used  :       0x9e4        2532  0.5% of 0x80000

kseg1 Data-Memory Usage
section                    address  length [bytes]      (dec)  Description
-------                 ----------  -------------------------  -----------
reserve_data_0_kseg1    0xa0000000          0x380         896   
         Total kseg1_data_mem used  :       0x380         896  100.0% of 0x380
        --------------------------------------------------------------------------
            Total Data Memory used  :       0xd64        3428  0.7% of 0x80380
        --------------------------------------------------------------------------


Dynamic Data-Memory Reservation
section                    address  length [bytes]      (dec)  Description
-------                 ----------  -------------------------  -----------
heap                    0x800009e8          0x400        1024  Reserved for heap 
stack                   0x80000e00        0x7f1f0      520688  Reserved for stack 

        --------------------------------------------------------------------------

Discarded input sections

 .text          0x0000000000000000        0x0 c:/program files/microchip/xc32/v4.00/bin/bin/../../lib/gcc/pic32mx/8.3.1/../../../../pic32mx/lib/fpu64\software-debug-break.o
 .data          0x0000000000000000        0x0 c:/program files/microchip/xc32/v4.00/bin/bin/../../lib/gcc/pic32mx/8.3.1/../../../../pic32mx/lib/fpu64\software-debug-break.o
 .bss           0x0000000000000000        0x0 c:/program files/microchip/xc32/v4.00/bin/bin/../../lib/gcc/pic32mx/8.3.1/../../../../pic32mx/lib/fpu64\software-debug-break.o
 .xc_stack_usage
                0x0000000000000000       0x27 c:/program files/microchip/xc32/v4.00/bin/bin/../../lib/gcc/pic32mx/8.3.1/../../../../pic32mx/lib/fpu64\software-debug-break.o
 .xc_stack_usage.hdr
                0x0000000000000000        0xe c:/program files/microchip/xc32/v4.00/bin/bin/../../lib/gcc/pic32mx/8.3.1/../../../../pic32mx/lib/fpu64\software-debug-break.o
 .text          0x0000000000000000        0x0 build/DSP_TU/debug/_ext/1736525323/plib_adchs.o
 .data          0x0000000000000000        0x0 build/DSP_TU/debug/_ext/1736525323/plib_adchs.o
 .bss           0x0000000000000000        0x0 build/DSP_TU/debug/_ext/1736525323/plib_adchs.o
 .reginfo       0x0000000000000000       0x18 build/DSP_TU/debug/_ext/1736525323/plib_adchs.o
 .MIPS.abiflags
                0x0000000000000000       0x18 build/DSP_TU/debug/_ext/1736525323/plib_adchs.o
 .text.ADCHS_ModulesEnable
                0x0000000000000000       0x1c build/DSP_TU/debug/_ext/1736525323/plib_adchs.o
 .text.ADCHS_ModulesDisable
                0x0000000000000000       0x20 build/DSP_TU/debug/_ext/1736525323/plib_adchs.o
 .text.ADCHS_ChannelResultInterruptEnable
                0x0000000000000000       0x48 build/DSP_TU/debug/_ext/1736525323/plib_adchs.o
 .text.ADCHS_ChannelResultInterruptDisable
                0x0000000000000000       0x50 build/DSP_TU/debug/_ext/1736525323/plib_adchs.o
 .text.ADCHS_ChannelEarlyInterruptEnable
                0x0000000000000000       0x48 build/DSP_TU/debug/_ext/1736525323/plib_adchs.o
 .text.ADCHS_ChannelEarlyInterruptDisable
                0x0000000000000000       0x50 build/DSP_TU/debug/_ext/1736525323/plib_adchs.o
 .text.ADCHS_GlobalEdgeConversionStart
                0x0000000000000000       0x1c build/DSP_TU/debug/_ext/1736525323/plib_adchs.o
 .text.ADCHS_GlobalLevelConversionStart
                0x0000000000000000       0x1c build/DSP_TU/debug/_ext/1736525323/plib_adchs.o
 .text.ADCHS_GlobalLevelConversionStop
                0x0000000000000000       0x18 build/DSP_TU/debug/_ext/1736525323/plib_adchs.o
 .text.ADCHS_EOSStatusGet
                0x0000000000000000       0x10 build/DSP_TU/debug/_ext/1736525323/plib_adchs.o
 .text          0x0000000000000000        0x0 build/DSP_TU/debug/_ext/2093422612/plib_clk.o
 .data          0x0000000000000000        0x0 build/DSP_TU/debug/_ext/2093422612/plib_clk.o
 .bss           0x0000000000000000        0x0 build/DSP_TU/debug/_ext/2093422612/plib_clk.o
 .reginfo       0x0000000000000000       0x18 build/DSP_TU/debug/_ext/2093422612/plib_clk.o
 .MIPS.abiflags
                0x0000000000000000       0x18 build/DSP_TU/debug/_ext/2093422612/plib_clk.o
 .text          0x0000000000000000        0x0 build/DSP_TU/debug/_ext/471522303/plib_evic.o
 .data          0x0000000000000000        0x0 build/DSP_TU/debug/_ext/471522303/plib_evic.o
 .bss           0x0000000000000000        0x0 build/DSP_TU/debug/_ext/471522303/plib_evic.o
 .reginfo       0x0000000000000000       0x18 build/DSP_TU/debug/_ext/471522303/plib_evic.o
 .MIPS.abiflags
                0x0000000000000000       0x18 build/DSP_TU/debug/_ext/471522303/plib_evic.o
 .text.EVIC_SourceEnable
                0x0000000000000000       0x28 build/DSP_TU/debug/_ext/471522303/plib_evic.o
 .text.EVIC_SourceDisable
                0x0000000000000000       0x28 build/DSP_TU/debug/_ext/471522303/plib_evic.o
 .text.EVIC_SourceIsEnabled
                0x0000000000000000       0x20 build/DSP_TU/debug/_ext/471522303/plib_evic.o
 .text.EVIC_SourceStatusGet
                0x0000000000000000       0x20 build/DSP_TU/debug/_ext/471522303/plib_evic.o
 .text.EVIC_SourceStatusSet
                0x0000000000000000       0x28 build/DSP_TU/debug/_ext/471522303/plib_evic.o
 .text.EVIC_SourceStatusClear
                0x0000000000000000       0x28 build/DSP_TU/debug/_ext/471522303/plib_evic.o
 .text.EVIC_INT_Enable
                0x0000000000000000       0x18 build/DSP_TU/debug/_ext/471522303/plib_evic.o
 .text.EVIC_INT_Disable
                0x0000000000000000       0x20 build/DSP_TU/debug/_ext/471522303/plib_evic.o
 .text.EVIC_INT_Restore
                0x0000000000000000       0x28 build/DSP_TU/debug/_ext/471522303/plib_evic.o
 .text          0x0000000000000000        0x0 build/DSP_TU/debug/_ext/471468475/plib_gpio.o
 .data          0x0000000000000000        0x0 build/DSP_TU/debug/_ext/471468475/plib_gpio.o
 .bss           0x0000000000000000        0x0 build/DSP_TU/debug/_ext/471468475/plib_gpio.o
 .reginfo       0x0000000000000000       0x18 build/DSP_TU/debug/_ext/471468475/plib_gpio.o
 .MIPS.abiflags
                0x0000000000000000       0x18 build/DSP_TU/debug/_ext/471468475/plib_gpio.o
 .text.GPIO_PortRead
                0x0000000000000000       0x18 build/DSP_TU/debug/_ext/471468475/plib_gpio.o
 .text.GPIO_PortWrite
                0x0000000000000000       0x2c build/DSP_TU/debug/_ext/471468475/plib_gpio.o
 .text.GPIO_PortLatchRead
                0x0000000000000000       0x18 build/DSP_TU/debug/_ext/471468475/plib_gpio.o
 .text.GPIO_PortSet
                0x0000000000000000       0x1c build/DSP_TU/debug/_ext/471468475/plib_gpio.o
 .text.GPIO_PortClear
                0x0000000000000000       0x1c build/DSP_TU/debug/_ext/471468475/plib_gpio.o
 .text.GPIO_PortToggle
                0x0000000000000000       0x1c build/DSP_TU/debug/_ext/471468475/plib_gpio.o
 .text.GPIO_PortInputEnable
                0x0000000000000000       0x1c build/DSP_TU/debug/_ext/471468475/plib_gpio.o
 .text.GPIO_PortOutputEnable
                0x0000000000000000       0x1c build/DSP_TU/debug/_ext/471468475/plib_gpio.o
 .text          0x0000000000000000        0x0 build/DSP_TU/debug/_ext/471242515/plib_ocmp1.o
 .data          0x0000000000000000        0x0 build/DSP_TU/debug/_ext/471242515/plib_ocmp1.o
 .bss           0x0000000000000000        0x0 build/DSP_TU/debug/_ext/471242515/plib_ocmp1.o
 .reginfo       0x0000000000000000       0x18 build/DSP_TU/debug/_ext/471242515/plib_ocmp1.o
 .MIPS.abiflags
                0x0000000000000000       0x18 build/DSP_TU/debug/_ext/471242515/plib_ocmp1.o
 .text.OCMP1_Disable
                0x0000000000000000       0x14 build/DSP_TU/debug/_ext/471242515/plib_ocmp1.o
 .text.OCMP1_CompareValueGet
                0x0000000000000000       0x10 build/DSP_TU/debug/_ext/471242515/plib_ocmp1.o
 .text.OCMP1_CompareSecondaryValueGet
                0x0000000000000000       0x10 build/DSP_TU/debug/_ext/471242515/plib_ocmp1.o
 .text          0x0000000000000000        0x0 build/DSP_TU/debug/_ext/2093406237/plib_tmr2.o
 .data          0x0000000000000000        0x0 build/DSP_TU/debug/_ext/2093406237/plib_tmr2.o
 .bss           0x0000000000000000        0x0 build/DSP_TU/debug/_ext/2093406237/plib_tmr2.o
 .reginfo       0x0000000000000000       0x18 build/DSP_TU/debug/_ext/2093406237/plib_tmr2.o
 .MIPS.abiflags
                0x0000000000000000       0x18 build/DSP_TU/debug/_ext/2093406237/plib_tmr2.o
 .text.TMR2_Stop
                0x0000000000000000       0x14 build/DSP_TU/debug/_ext/2093406237/plib_tmr2.o
 .text.TMR2_PeriodSet
                0x0000000000000000       0x10 build/DSP_TU/debug/_ext/2093406237/plib_tmr2.o
 .text.TMR2_PeriodGet
                0x0000000000000000       0x10 build/DSP_TU/debug/_ext/2093406237/plib_tmr2.o
 .text.TMR2_CounterGet
                0x0000000000000000       0x10 build/DSP_TU/debug/_ext/2093406237/plib_tmr2.o
 .text.TMR2_FrequencyGet
                0x0000000000000000        0xc build/DSP_TU/debug/_ext/2093406237/plib_tmr2.o
 .text.TMR2_InterruptEnable
                0x0000000000000000       0x14 build/DSP_TU/debug/_ext/2093406237/plib_tmr2.o
 .text.TMR2_InterruptDisable
                0x0000000000000000       0x14 build/DSP_TU/debug/_ext/2093406237/plib_tmr2.o
 .text.TMR2_CallbackRegister
                0x0000000000000000       0x10 build/DSP_TU/debug/_ext/2093406237/plib_tmr2.o
 .text          0x0000000000000000        0x0 build/DSP_TU/debug/_ext/471065532/plib_uart2.o
 .data          0x0000000000000000        0x0 build/DSP_TU/debug/_ext/471065532/plib_uart2.o
 .reginfo       0x0000000000000000       0x18 build/DSP_TU/debug/_ext/471065532/plib_uart2.o
 .MIPS.abiflags
                0x0000000000000000       0x18 build/DSP_TU/debug/_ext/471065532/plib_uart2.o
 .text.UART2_SerialSetup
                0x0000000000000000      0x13c build/DSP_TU/debug/_ext/471065532/plib_uart2.o
 .text.UART2_Read
                0x0000000000000000       0xc0 build/DSP_TU/debug/_ext/471065532/plib_uart2.o
 .text.UART2_ReadFreeBufferCountGet
                0x0000000000000000       0x30 build/DSP_TU/debug/_ext/471065532/plib_uart2.o
 .text.UART2_ReadBufferSizeGet
                0x0000000000000000       0x10 build/DSP_TU/debug/_ext/471065532/plib_uart2.o
 .text.UART2_ReadNotificationEnable
                0x0000000000000000       0x18 build/DSP_TU/debug/_ext/471065532/plib_uart2.o
 .text.UART2_ReadThresholdSet
                0x0000000000000000       0x14 build/DSP_TU/debug/_ext/471065532/plib_uart2.o
 .text.UART2_ReadCallbackRegister
                0x0000000000000000       0x14 build/DSP_TU/debug/_ext/471065532/plib_uart2.o
 .text.UART2_WriteCountGet
                0x0000000000000000       0x1c build/DSP_TU/debug/_ext/471065532/plib_uart2.o
 .text.UART2_Write
                0x0000000000000000      0x140 build/DSP_TU/debug/_ext/471065532/plib_uart2.o
 .text.UART2_WriteBufferSizeGet
                0x0000000000000000       0x10 build/DSP_TU/debug/_ext/471065532/plib_uart2.o
 .text.UART2_TransmitComplete
                0x0000000000000000       0x10 build/DSP_TU/debug/_ext/471065532/plib_uart2.o
 .text.UART2_WriteNotificationEnable
                0x0000000000000000       0x18 build/DSP_TU/debug/_ext/471065532/plib_uart2.o
 .text.UART2_WriteThresholdSet
                0x0000000000000000       0x14 build/DSP_TU/debug/_ext/471065532/plib_uart2.o
 .text.UART2_WriteCallbackRegister
                0x0000000000000000       0x14 build/DSP_TU/debug/_ext/471065532/plib_uart2.o
 .text.UART2_ErrorGet
                0x0000000000000000       0x18 build/DSP_TU/debug/_ext/471065532/plib_uart2.o
 .text.UART2_AutoBaudQuery
                0x0000000000000000       0x10 build/DSP_TU/debug/_ext/471065532/plib_uart2.o
 .text.UART2_AutoBaudSet
                0x0000000000000000       0x18 build/DSP_TU/debug/_ext/471065532/plib_uart2.o
 .text          0x0000000000000000        0x0 build/DSP_TU/debug/_ext/2030120972/xc32_monitor.o
 .data          0x0000000000000000        0x0 build/DSP_TU/debug/_ext/2030120972/xc32_monitor.o
 .bss           0x0000000000000000        0x0 build/DSP_TU/debug/_ext/2030120972/xc32_monitor.o
 .reginfo       0x0000000000000000       0x18 build/DSP_TU/debug/_ext/2030120972/xc32_monitor.o
 .MIPS.abiflags
                0x0000000000000000       0x18 build/DSP_TU/debug/_ext/2030120972/xc32_monitor.o
 .text.read     0x0000000000000000        0x8 build/DSP_TU/debug/_ext/2030120972/xc32_monitor.o
 .text.write    0x0000000000000000        0x8 build/DSP_TU/debug/_ext/2030120972/xc32_monitor.o
 .text          0x0000000000000000        0x0 build/DSP_TU/debug/_ext/1044038098/initialization.o
 .data          0x0000000000000000        0x0 build/DSP_TU/debug/_ext/1044038098/initialization.o
 .bss           0x0000000000000000        0x0 build/DSP_TU/debug/_ext/1044038098/initialization.o
 .reginfo       0x0000000000000000       0x18 build/DSP_TU/debug/_ext/1044038098/initialization.o
 .MIPS.abiflags
                0x0000000000000000       0x18 build/DSP_TU/debug/_ext/1044038098/initialization.o
 .text          0x0000000000000000        0x0 build/DSP_TU/debug/_ext/1044038098/interrupts.o
 .data          0x0000000000000000        0x0 build/DSP_TU/debug/_ext/1044038098/interrupts.o
 .bss           0x0000000000000000        0x0 build/DSP_TU/debug/_ext/1044038098/interrupts.o
 .reginfo       0x0000000000000000       0x18 build/DSP_TU/debug/_ext/1044038098/interrupts.o
 .MIPS.abiflags
                0x0000000000000000       0x18 build/DSP_TU/debug/_ext/1044038098/interrupts.o
 .text          0x0000000000000000        0x0 build/DSP_TU/debug/_ext/1044038098/exceptions.o
 .data          0x0000000000000000        0x0 build/DSP_TU/debug/_ext/1044038098/exceptions.o
 .bss           0x0000000000000000        0x0 build/DSP_TU/debug/_ext/1044038098/exceptions.o
 .reginfo       0x0000000000000000       0x18 build/DSP_TU/debug/_ext/1044038098/exceptions.o
 .MIPS.abiflags
                0x0000000000000000       0x18 build/DSP_TU/debug/_ext/1044038098/exceptions.o
 .text          0x0000000000000000        0x0 build/DSP_TU/debug/_ext/1360937237/main.o
 .data          0x0000000000000000        0x0 build/DSP_TU/debug/_ext/1360937237/main.o
 .bss           0x0000000000000000        0x0 build/DSP_TU/debug/_ext/1360937237/main.o
 .reginfo       0x0000000000000000       0x18 build/DSP_TU/debug/_ext/1360937237/main.o
 .MIPS.abiflags
                0x0000000000000000       0x18 build/DSP_TU/debug/_ext/1360937237/main.o
 .text          0x0000000000000000        0x0 build/DSP_TU/debug/_ext/1360937237/PwmAudioOut.o
 .data          0x0000000000000000        0x0 build/DSP_TU/debug/_ext/1360937237/PwmAudioOut.o
 .bss           0x0000000000000000        0x0 build/DSP_TU/debug/_ext/1360937237/PwmAudioOut.o
 .reginfo       0x0000000000000000       0x18 build/DSP_TU/debug/_ext/1360937237/PwmAudioOut.o
 .MIPS.abiflags
                0x0000000000000000       0x18 build/DSP_TU/debug/_ext/1360937237/PwmAudioOut.o
 .text          0x0000000000000000        0x0 build/DSP_TU/debug/_ext/1360937237/biquad.o
 .data          0x0000000000000000        0x0 build/DSP_TU/debug/_ext/1360937237/biquad.o
 .bss           0x0000000000000000        0x0 build/DSP_TU/debug/_ext/1360937237/biquad.o
 .reginfo       0x0000000000000000       0x18 build/DSP_TU/debug/_ext/1360937237/biquad.o
 .MIPS.abiflags
                0x0000000000000000       0x18 build/DSP_TU/debug/_ext/1360937237/biquad.o
 .text          0x0000000000000000        0x0 build/DSP_TU/debug/_ext/1360937237/dds.o
 .data          0x0000000000000000        0x0 build/DSP_TU/debug/_ext/1360937237/dds.o
 .bss           0x0000000000000000        0x0 build/DSP_TU/debug/_ext/1360937237/dds.o
 .reginfo       0x0000000000000000       0x18 build/DSP_TU/debug/_ext/1360937237/dds.o
 .MIPS.abiflags
                0x0000000000000000       0x18 build/DSP_TU/debug/_ext/1360937237/dds.o
 .rodata        0x0000000000000000        0x8 build/DSP_TU/debug/_ext/1360937237/dds.o
 .text          0x0000000000000000        0x0 build/DSP_TU/debug/_ext/1360937237/DynamicThreshold.o
 .data          0x0000000000000000        0x0 build/DSP_TU/debug/_ext/1360937237/DynamicThreshold.o
 .bss           0x0000000000000000        0x0 build/DSP_TU/debug/_ext/1360937237/DynamicThreshold.o
 .reginfo       0x0000000000000000       0x18 build/DSP_TU/debug/_ext/1360937237/DynamicThreshold.o
 .MIPS.abiflags
                0x0000000000000000       0x18 build/DSP_TU/debug/_ext/1360937237/DynamicThreshold.o
 .text          0x0000000000000000        0x0 build/DSP_TU/debug/_ext/1360937237/agc.o
 .data          0x0000000000000000        0x0 build/DSP_TU/debug/_ext/1360937237/agc.o
 .bss           0x0000000000000000        0x0 build/DSP_TU/debug/_ext/1360937237/agc.o
 .reginfo       0x0000000000000000       0x18 build/DSP_TU/debug/_ext/1360937237/agc.o
 .MIPS.abiflags
                0x0000000000000000       0x18 build/DSP_TU/debug/_ext/1360937237/agc.o
 .text          0x0000000000000000        0x0 C:\Users\HAROLD~1\AppData\Local\Temp\ccKBed8x.o
 .data          0x0000000000000000        0x0 C:\Users\HAROLD~1\AppData\Local\Temp\ccKBed8x.o
 .bss           0x0000000000000000        0x0 C:\Users\HAROLD~1\AppData\Local\Temp\ccKBed8x.o
 .reginfo       0x0000000000000000       0x18 C:\Users\HAROLD~1\AppData\Local\Temp\ccKBed8x.o
 .MIPS.abiflags
                0x0000000000000000       0x18 C:\Users\HAROLD~1\AppData\Local\Temp\ccKBed8x.o
 .text          0x0000000000000000        0x0 C:\Users\HAROLD~1\AppData\Local\Temp\ccsmQEBa.o
 .data          0x0000000000000000        0x0 C:\Users\HAROLD~1\AppData\Local\Temp\ccsmQEBa.o
 .bss           0x0000000000000000        0x0 C:\Users\HAROLD~1\AppData\Local\Temp\ccsmQEBa.o
 .reginfo       0x0000000000000000       0x18 C:\Users\HAROLD~1\AppData\Local\Temp\ccsmQEBa.o
 .MIPS.abiflags
                0x0000000000000000       0x18 C:\Users\HAROLD~1\AppData\Local\Temp\ccsmQEBa.o
 .text          0x0000000000000000        0x0 C:\Users\HAROLD~1\AppData\Local\Temp\ccbD2gxf.o
 .data          0x0000000000000000        0x0 C:\Users\HAROLD~1\AppData\Local\Temp\ccbD2gxf.o
 .bss           0x0000000000000000        0x0 C:\Users\HAROLD~1\AppData\Local\Temp\ccbD2gxf.o
 .reginfo       0x0000000000000000       0x18 C:\Users\HAROLD~1\AppData\Local\Temp\ccbD2gxf.o
 .MIPS.abiflags
                0x0000000000000000       0x18 C:\Users\HAROLD~1\AppData\Local\Temp\ccbD2gxf.o
 .text          0x0000000000000000        0x0 C:\Users\HAROLD~1\AppData\Local\Temp\cc4OfyKV.o
 .data          0x0000000000000000        0x0 C:\Users\HAROLD~1\AppData\Local\Temp\cc4OfyKV.o
 .bss           0x0000000000000000        0x0 C:\Users\HAROLD~1\AppData\Local\Temp\cc4OfyKV.o
 .reginfo       0x0000000000000000       0x18 C:\Users\HAROLD~1\AppData\Local\Temp\cc4OfyKV.o
 .MIPS.abiflags
                0x0000000000000000       0x18 C:\Users\HAROLD~1\AppData\Local\Temp\cc4OfyKV.o
 .discard       0x0000000000000000        0x4 C:\Users\HAROLD~1\AppData\Local\Temp\cc4OfyKV.o
 .data          0x0000000000000000        0x0 c:/program files/microchip/xc32/v4.00/bin/bin/../../lib/gcc/pic32mx/8.3.1/../../../../pic32mx/lib/fpu64\pic32_software_reset.o
 .bss           0x0000000000000000        0x0 c:/program files/microchip/xc32/v4.00/bin/bin/../../lib/gcc/pic32mx/8.3.1/../../../../pic32mx/lib/fpu64\pic32_software_reset.o
 .reginfo       0x0000000000000000       0x18 c:/program files/microchip/xc32/v4.00/bin/bin/../../lib/gcc/pic32mx/8.3.1/../../../../pic32mx/lib/fpu64\pic32_software_reset.o
 .MIPS.abiflags
                0x0000000000000000       0x18 c:/program files/microchip/xc32/v4.00/bin/bin/../../lib/gcc/pic32mx/8.3.1/../../../../pic32mx/lib/fpu64\pic32_software_reset.o
 .xc_stack_usage.hdr
                0x0000000000000000        0xe c:/program files/microchip/xc32/v4.00/bin/bin/../../lib/gcc/pic32mx/8.3.1/../../../../pic32mx/lib/fpu64\pic32_software_reset.o
 .xc_stack_usage
                0x0000000000000000       0x24 c:/program files/microchip/xc32/v4.00/bin/bin/../../lib/gcc/pic32mx/8.3.1/../../../../pic32mx/lib/fpu64\pic32_software_reset.o
 .text          0x0000000000000000        0x0 c:/program files/microchip/xc32/v4.00/bin/bin/../../lib/gcc/pic32mx/8.3.1/../../../../pic32mx/lib/fpu64\libpic32.a(default-on-reset.o)
 .data          0x0000000000000000        0x0 c:/program files/microchip/xc32/v4.00/bin/bin/../../lib/gcc/pic32mx/8.3.1/../../../../pic32mx/lib/fpu64\libpic32.a(default-on-reset.o)
 .bss           0x0000000000000000        0x0 c:/program files/microchip/xc32/v4.00/bin/bin/../../lib/gcc/pic32mx/8.3.1/../../../../pic32mx/lib/fpu64\libpic32.a(default-on-reset.o)
 .reginfo       0x0000000000000000       0x18 c:/program files/microchip/xc32/v4.00/bin/bin/../../lib/gcc/pic32mx/8.3.1/../../../../pic32mx/lib/fpu64\libpic32.a(default-on-reset.o)
 .MIPS.abiflags
                0x0000000000000000       0x18 c:/program files/microchip/xc32/v4.00/bin/bin/../../lib/gcc/pic32mx/8.3.1/../../../../pic32mx/lib/fpu64\libpic32.a(default-on-reset.o)
 .xc_stack_usage
                0x0000000000000000       0x17 c:/program files/microchip/xc32/v4.00/bin/bin/../../lib/gcc/pic32mx/8.3.1/../../../../pic32mx/lib/fpu64\libpic32.a(default-on-reset.o)
 .xc_stack_usage.hdr
                0x0000000000000000        0xe c:/program files/microchip/xc32/v4.00/bin/bin/../../lib/gcc/pic32mx/8.3.1/../../../../pic32mx/lib/fpu64\libpic32.a(default-on-reset.o)
 .text          0x0000000000000000        0x0 c:/program files/microchip/xc32/v4.00/bin/bin/../../lib/gcc/pic32mx/8.3.1/../../../../pic32mx/lib/fpu64\libpic32.a(default-on-bootstrap.o)
 .data          0x0000000000000000        0x0 c:/program files/microchip/xc32/v4.00/bin/bin/../../lib/gcc/pic32mx/8.3.1/../../../../pic32mx/lib/fpu64\libpic32.a(default-on-bootstrap.o)
 .bss           0x0000000000000000        0x0 c:/program files/microchip/xc32/v4.00/bin/bin/../../lib/gcc/pic32mx/8.3.1/../../../../pic32mx/lib/fpu64\libpic32.a(default-on-bootstrap.o)
 .reginfo       0x0000000000000000       0x18 c:/program files/microchip/xc32/v4.00/bin/bin/../../lib/gcc/pic32mx/8.3.1/../../../../pic32mx/lib/fpu64\libpic32.a(default-on-bootstrap.o)
 .MIPS.abiflags
                0x0000000000000000       0x18 c:/program files/microchip/xc32/v4.00/bin/bin/../../lib/gcc/pic32mx/8.3.1/../../../../pic32mx/lib/fpu64\libpic32.a(default-on-bootstrap.o)
 .xc_stack_usage
                0x0000000000000000       0x1b c:/program files/microchip/xc32/v4.00/bin/bin/../../lib/gcc/pic32mx/8.3.1/../../../../pic32mx/lib/fpu64\libpic32.a(default-on-bootstrap.o)
 .xc_stack_usage.hdr
                0x0000000000000000        0xe c:/program files/microchip/xc32/v4.00/bin/bin/../../lib/gcc/pic32mx/8.3.1/../../../../pic32mx/lib/fpu64\libpic32.a(default-on-bootstrap.o)
 .data          0x0000000000000000        0x0 c:/program files/microchip/xc32/v4.00/bin/bin/../../lib/gcc/pic32mx/8.3.1/../../../../pic32mx/lib/fpu64\libpic32.a(default-nmi-handler.o)
 .bss           0x0000000000000000        0x0 c:/program files/microchip/xc32/v4.00/bin/bin/../../lib/gcc/pic32mx/8.3.1/../../../../pic32mx/lib/fpu64\libpic32.a(default-nmi-handler.o)
 .reginfo       0x0000000000000000       0x18 c:/program files/microchip/xc32/v4.00/bin/bin/../../lib/gcc/pic32mx/8.3.1/../../../../pic32mx/lib/fpu64\libpic32.a(default-nmi-handler.o)
 .MIPS.abiflags
                0x0000000000000000       0x18 c:/program files/microchip/xc32/v4.00/bin/bin/../../lib/gcc/pic32mx/8.3.1/../../../../pic32mx/lib/fpu64\libpic32.a(default-nmi-handler.o)
 .xc_stack_usage.hdr
                0x0000000000000000        0xe c:/program files/microchip/xc32/v4.00/bin/bin/../../lib/gcc/pic32mx/8.3.1/../../../../pic32mx/lib/fpu64\libpic32.a(default-nmi-handler.o)
 .xc_stack_usage
                0x0000000000000000       0x1a c:/program files/microchip/xc32/v4.00/bin/bin/../../lib/gcc/pic32mx/8.3.1/../../../../pic32mx/lib/fpu64\libpic32.a(default-nmi-handler.o)
 .data          0x0000000000000000        0x0 c:/program files/microchip/xc32/v4.00/bin/bin/../../lib/gcc/pic32mx/8.3.1/../../../../pic32mx/lib/fpu64\libpic32.a(pic32_data_init.o)
 .bss           0x0000000000000000        0x0 c:/program files/microchip/xc32/v4.00/bin/bin/../../lib/gcc/pic32mx/8.3.1/../../../../pic32mx/lib/fpu64\libpic32.a(pic32_data_init.o)
 .reginfo       0x0000000000000000       0x18 c:/program files/microchip/xc32/v4.00/bin/bin/../../lib/gcc/pic32mx/8.3.1/../../../../pic32mx/lib/fpu64\libpic32.a(pic32_data_init.o)
 .MIPS.abiflags
                0x0000000000000000       0x18 c:/program files/microchip/xc32/v4.00/bin/bin/../../lib/gcc/pic32mx/8.3.1/../../../../pic32mx/lib/fpu64\libpic32.a(pic32_data_init.o)
 .xc_stack_usage.hdr
                0x0000000000000000        0xe c:/program files/microchip/xc32/v4.00/bin/bin/../../lib/gcc/pic32mx/8.3.1/../../../../pic32mx/lib/fpu64\libpic32.a(pic32_data_init.o)
 .xc_stack_usage
                0x0000000000000000       0x1f c:/program files/microchip/xc32/v4.00/bin/bin/../../lib/gcc/pic32mx/8.3.1/../../../../pic32mx/lib/fpu64\libpic32.a(pic32_data_init.o)
 .text          0x0000000000000000        0x0 c:/program files/microchip/xc32/v4.00/bin/bin/../../lib/gcc/pic32mx/8.3.1/../../../../pic32mx/lib/fpu64\libpic32.a(pic32_init_cache.o)
 .data          0x0000000000000000        0x0 c:/program files/microchip/xc32/v4.00/bin/bin/../../lib/gcc/pic32mx/8.3.1/../../../../pic32mx/lib/fpu64\libpic32.a(pic32_init_cache.o)
 .bss           0x0000000000000000        0x0 c:/program files/microchip/xc32/v4.00/bin/bin/../../lib/gcc/pic32mx/8.3.1/../../../../pic32mx/lib/fpu64\libpic32.a(pic32_init_cache.o)
 .reginfo       0x0000000000000000       0x18 c:/program files/microchip/xc32/v4.00/bin/bin/../../lib/gcc/pic32mx/8.3.1/../../../../pic32mx/lib/fpu64\libpic32.a(pic32_init_cache.o)
 .MIPS.abiflags
                0x0000000000000000       0x18 c:/program files/microchip/xc32/v4.00/bin/bin/../../lib/gcc/pic32mx/8.3.1/../../../../pic32mx/lib/fpu64\libpic32.a(pic32_init_cache.o)
 .cache_init.pic32_size_cache
                0x0000000000000000       0x58 c:/program files/microchip/xc32/v4.00/bin/bin/../../lib/gcc/pic32mx/8.3.1/../../../../pic32mx/lib/fpu64\libpic32.a(pic32_init_cache.o)
 .xc_stack_usage.hdr
                0x0000000000000000        0xe c:/program files/microchip/xc32/v4.00/bin/bin/../../lib/gcc/pic32mx/8.3.1/../../../../pic32mx/lib/fpu64\libpic32.a(pic32_init_cache.o)
 .xc_stack_usage
                0x0000000000000000       0x5a c:/program files/microchip/xc32/v4.00/bin/bin/../../lib/gcc/pic32mx/8.3.1/../../../../pic32mx/lib/fpu64\libpic32.a(pic32_init_cache.o)
 .text          0x0000000000000000        0x0 c:/program files/microchip/xc32/v4.00/bin/bin/../../lib/gcc/pic32mx/8.3.1/../../../../pic32mx/lib/fpu64\libpic32.a(pic32_init_tlb_ebi_sqi.o)
 .data          0x0000000000000000        0x0 c:/program files/microchip/xc32/v4.00/bin/bin/../../lib/gcc/pic32mx/8.3.1/../../../../pic32mx/lib/fpu64\libpic32.a(pic32_init_tlb_ebi_sqi.o)
 .bss           0x0000000000000000        0x0 c:/program files/microchip/xc32/v4.00/bin/bin/../../lib/gcc/pic32mx/8.3.1/../../../../pic32mx/lib/fpu64\libpic32.a(pic32_init_tlb_ebi_sqi.o)
 .reginfo       0x0000000000000000       0x18 c:/program files/microchip/xc32/v4.00/bin/bin/../../lib/gcc/pic32mx/8.3.1/../../../../pic32mx/lib/fpu64\libpic32.a(pic32_init_tlb_ebi_sqi.o)
 .MIPS.abiflags
                0x0000000000000000       0x18 c:/program files/microchip/xc32/v4.00/bin/bin/../../lib/gcc/pic32mx/8.3.1/../../../../pic32mx/lib/fpu64\libpic32.a(pic32_init_tlb_ebi_sqi.o)
 .xc_stack_usage.hdr
                0x0000000000000000        0xe c:/program files/microchip/xc32/v4.00/bin/bin/../../lib/gcc/pic32mx/8.3.1/../../../../pic32mx/lib/fpu64\libpic32.a(pic32_init_tlb_ebi_sqi.o)
 .xc_stack_usage
                0x0000000000000000       0x26 c:/program files/microchip/xc32/v4.00/bin/bin/../../lib/gcc/pic32mx/8.3.1/../../../../pic32mx/lib/fpu64\libpic32.a(pic32_init_tlb_ebi_sqi.o)
 .text          0x0000000000000000        0x0 c:/program files/microchip/xc32/v4.00/bin/bin/../../lib/gcc/pic32mx/8.3.1/../../../../pic32mx/lib/fpu64\libpic32.a(general-exception.o)
 .data          0x0000000000000000        0x0 c:/program files/microchip/xc32/v4.00/bin/bin/../../lib/gcc/pic32mx/8.3.1/../../../../pic32mx/lib/fpu64\libpic32.a(general-exception.o)
 .bss           0x0000000000000000        0x0 c:/program files/microchip/xc32/v4.00/bin/bin/../../lib/gcc/pic32mx/8.3.1/../../../../pic32mx/lib/fpu64\libpic32.a(general-exception.o)
 .reginfo       0x0000000000000000       0x18 c:/program files/microchip/xc32/v4.00/bin/bin/../../lib/gcc/pic32mx/8.3.1/../../../../pic32mx/lib/fpu64\libpic32.a(general-exception.o)
 .MIPS.abiflags
                0x0000000000000000       0x18 c:/program files/microchip/xc32/v4.00/bin/bin/../../lib/gcc/pic32mx/8.3.1/../../../../pic32mx/lib/fpu64\libpic32.a(general-exception.o)
 .xc_stack_usage.hdr
                0x0000000000000000        0xe c:/program files/microchip/xc32/v4.00/bin/bin/../../lib/gcc/pic32mx/8.3.1/../../../../pic32mx/lib/fpu64\libpic32.a(general-exception.o)
 .xc_stack_usage
                0x0000000000000000       0x28 c:/program files/microchip/xc32/v4.00/bin/bin/../../lib/gcc/pic32mx/8.3.1/../../../../pic32mx/lib/fpu64\libpic32.a(general-exception.o)
 .text          0x0000000000000000        0x0 c:/program files/microchip/xc32/v4.00/bin/bin/../../lib/gcc/pic32mx/8.3.1/../../../../pic32mx/lib/fpu64\libpic32.a(cache-err-exception.o)
 .data          0x0000000000000000        0x0 c:/program files/microchip/xc32/v4.00/bin/bin/../../lib/gcc/pic32mx/8.3.1/../../../../pic32mx/lib/fpu64\libpic32.a(cache-err-exception.o)
 .bss           0x0000000000000000        0x0 c:/program files/microchip/xc32/v4.00/bin/bin/../../lib/gcc/pic32mx/8.3.1/../../../../pic32mx/lib/fpu64\libpic32.a(cache-err-exception.o)
 .reginfo       0x0000000000000000       0x18 c:/program files/microchip/xc32/v4.00/bin/bin/../../lib/gcc/pic32mx/8.3.1/../../../../pic32mx/lib/fpu64\libpic32.a(cache-err-exception.o)
 .MIPS.abiflags
                0x0000000000000000       0x18 c:/program files/microchip/xc32/v4.00/bin/bin/../../lib/gcc/pic32mx/8.3.1/../../../../pic32mx/lib/fpu64\libpic32.a(cache-err-exception.o)
 .xc_stack_usage.hdr
                0x0000000000000000        0xe c:/program files/microchip/xc32/v4.00/bin/bin/../../lib/gcc/pic32mx/8.3.1/../../../../pic32mx/lib/fpu64\libpic32.a(cache-err-exception.o)
 .xc_stack_usage
                0x0000000000000000       0x2a c:/program files/microchip/xc32/v4.00/bin/bin/../../lib/gcc/pic32mx/8.3.1/../../../../pic32mx/lib/fpu64\libpic32.a(cache-err-exception.o)
 .text          0x0000000000000000        0x0 c:/program files/microchip/xc32/v4.00/bin/bin/../../lib/gcc/pic32mx/8.3.1/../../../../pic32mx/lib/fpu64\libpic32.a(simple-tlb-refill-exception.o)
 .data          0x0000000000000000        0x0 c:/program files/microchip/xc32/v4.00/bin/bin/../../lib/gcc/pic32mx/8.3.1/../../../../pic32mx/lib/fpu64\libpic32.a(simple-tlb-refill-exception.o)
 .bss           0x0000000000000000        0x0 c:/program files/microchip/xc32/v4.00/bin/bin/../../lib/gcc/pic32mx/8.3.1/../../../../pic32mx/lib/fpu64\libpic32.a(simple-tlb-refill-exception.o)
 .reginfo       0x0000000000000000       0x18 c:/program files/microchip/xc32/v4.00/bin/bin/../../lib/gcc/pic32mx/8.3.1/../../../../pic32mx/lib/fpu64\libpic32.a(simple-tlb-refill-exception.o)
 .MIPS.abiflags
                0x0000000000000000       0x18 c:/program files/microchip/xc32/v4.00/bin/bin/../../lib/gcc/pic32mx/8.3.1/../../../../pic32mx/lib/fpu64\libpic32.a(simple-tlb-refill-exception.o)
 .xc_stack_usage.hdr
                0x0000000000000000        0xe c:/program files/microchip/xc32/v4.00/bin/bin/../../lib/gcc/pic32mx/8.3.1/../../../../pic32mx/lib/fpu64\libpic32.a(simple-tlb-refill-exception.o)
 .xc_stack_usage
                0x0000000000000000       0x32 c:/program files/microchip/xc32/v4.00/bin/bin/../../lib/gcc/pic32mx/8.3.1/../../../../pic32mx/lib/fpu64\libpic32.a(simple-tlb-refill-exception.o)
 .text          0x0000000000000000        0x0 c:/program files/microchip/xc32/v4.00/bin/bin/../../lib/gcc/pic32mx/8.3.1/../../../../pic32mx/lib/fpu64\libpic32.a(defaultinterrupt.o)
 .data          0x0000000000000000        0x0 c:/program files/microchip/xc32/v4.00/bin/bin/../../lib/gcc/pic32mx/8.3.1/../../../../pic32mx/lib/fpu64\libpic32.a(defaultinterrupt.o)
 .bss           0x0000000000000000        0x0 c:/program files/microchip/xc32/v4.00/bin/bin/../../lib/gcc/pic32mx/8.3.1/../../../../pic32mx/lib/fpu64\libpic32.a(defaultinterrupt.o)
 .reginfo       0x0000000000000000       0x18 c:/program files/microchip/xc32/v4.00/bin/bin/../../lib/gcc/pic32mx/8.3.1/../../../../pic32mx/lib/fpu64\libpic32.a(defaultinterrupt.o)
 .MIPS.abiflags
                0x0000000000000000       0x18 c:/program files/microchip/xc32/v4.00/bin/bin/../../lib/gcc/pic32mx/8.3.1/../../../../pic32mx/lib/fpu64\libpic32.a(defaultinterrupt.o)
 .xc_stack_usage
                0x0000000000000000       0x1f c:/program files/microchip/xc32/v4.00/bin/bin/../../lib/gcc/pic32mx/8.3.1/../../../../pic32mx/lib/fpu64\libpic32.a(defaultinterrupt.o)
 .xc_stack_usage.hdr
                0x0000000000000000        0xe c:/program files/microchip/xc32/v4.00/bin/bin/../../lib/gcc/pic32mx/8.3.1/../../../../pic32mx/lib/fpu64\libpic32.a(defaultinterrupt.o)
 .text          0x0000000000000000        0x0 c:/program files/microchip/xc32/v4.00/bin/bin/../../lib/gcc/pic32mx/8.3.1/../../../../pic32mx/lib/fpu64\libc-musl.a(malloc.o)
 .data          0x0000000000000000        0x0 c:/program files/microchip/xc32/v4.00/bin/bin/../../lib/gcc/pic32mx/8.3.1/../../../../pic32mx/lib/fpu64\libc-musl.a(malloc.o)
 .reginfo       0x0000000000000000       0x18 c:/program files/microchip/xc32/v4.00/bin/bin/../../lib/gcc/pic32mx/8.3.1/../../../../pic32mx/lib/fpu64\libc-musl.a(malloc.o)
 .MIPS.abiflags
                0x0000000000000000       0x18 c:/program files/microchip/xc32/v4.00/bin/bin/../../lib/gcc/pic32mx/8.3.1/../../../../pic32mx/lib/fpu64\libc-musl.a(malloc.o)
 .xc_stack_usage
                0x0000000000000000       0xeb c:/program files/microchip/xc32/v4.00/bin/bin/../../lib/gcc/pic32mx/8.3.1/../../../../pic32mx/lib/fpu64\libc-musl.a(malloc.o)
 .text.__malloc0
                0x0000000000000000       0x50 c:/program files/microchip/xc32/v4.00/bin/bin/../../lib/gcc/pic32mx/8.3.1/../../../../pic32mx/lib/fpu64\libc-musl.a(malloc.o)
 .text.realloc  0x0000000000000000      0x118 c:/program files/microchip/xc32/v4.00/bin/bin/../../lib/gcc/pic32mx/8.3.1/../../../../pic32mx/lib/fpu64\libc-musl.a(malloc.o)
 .xc_stack_usage.hdr
                0x0000000000000000        0xe c:/program files/microchip/xc32/v4.00/bin/bin/../../lib/gcc/pic32mx/8.3.1/../../../../pic32mx/lib/fpu64\libc-musl.a(malloc.o)
 .note.GNU-stack
                0x0000000000000000        0x0 c:/program files/microchip/xc32/v4.00/bin/bin/../../lib/gcc/pic32mx/8.3.1/../../../../pic32mx/lib/fpu64\libc-musl.a(malloc.o)
 .text          0x0000000000000000        0x0 c:/program files/microchip/xc32/v4.00/bin/bin/../../lib/gcc/pic32mx/8.3.1/../../../../pic32mx/lib/fpu64\libc-musl.a(expand_heap.o)
 .data          0x0000000000000000        0x0 c:/program files/microchip/xc32/v4.00/bin/bin/../../lib/gcc/pic32mx/8.3.1/../../../../pic32mx/lib/fpu64\libc-musl.a(expand_heap.o)
 .bss           0x0000000000000000        0x0 c:/program files/microchip/xc32/v4.00/bin/bin/../../lib/gcc/pic32mx/8.3.1/../../../../pic32mx/lib/fpu64\libc-musl.a(expand_heap.o)
 .reginfo       0x0000000000000000       0x18 c:/program files/microchip/xc32/v4.00/bin/bin/../../lib/gcc/pic32mx/8.3.1/../../../../pic32mx/lib/fpu64\libc-musl.a(expand_heap.o)
 .MIPS.abiflags
                0x0000000000000000       0x18 c:/program files/microchip/xc32/v4.00/bin/bin/../../lib/gcc/pic32mx/8.3.1/../../../../pic32mx/lib/fpu64\libc-musl.a(expand_heap.o)
 .xc_stack_usage
                0x0000000000000000       0x1b c:/program files/microchip/xc32/v4.00/bin/bin/../../lib/gcc/pic32mx/8.3.1/../../../../pic32mx/lib/fpu64\libc-musl.a(expand_heap.o)
 .xc_stack_usage.hdr
                0x0000000000000000        0xe c:/program files/microchip/xc32/v4.00/bin/bin/../../lib/gcc/pic32mx/8.3.1/../../../../pic32mx/lib/fpu64\libc-musl.a(expand_heap.o)
 .note.GNU-stack
                0x0000000000000000        0x0 c:/program files/microchip/xc32/v4.00/bin/bin/../../lib/gcc/pic32mx/8.3.1/../../../../pic32mx/lib/fpu64\libc-musl.a(expand_heap.o)
 .text          0x0000000000000000        0x0 c:/program files/microchip/xc32/v4.00/bin/bin/../../lib/gcc/pic32mx/8.3.1/../../../../pic32mx/lib/fpu64\libc-musl.a(memcpy.o)
 .data          0x0000000000000000        0x0 c:/program files/microchip/xc32/v4.00/bin/bin/../../lib/gcc/pic32mx/8.3.1/../../../../pic32mx/lib/fpu64\libc-musl.a(memcpy.o)
 .bss           0x0000000000000000        0x0 c:/program files/microchip/xc32/v4.00/bin/bin/../../lib/gcc/pic32mx/8.3.1/../../../../pic32mx/lib/fpu64\libc-musl.a(memcpy.o)
 .reginfo       0x0000000000000000       0x18 c:/program files/microchip/xc32/v4.00/bin/bin/../../lib/gcc/pic32mx/8.3.1/../../../../pic32mx/lib/fpu64\libc-musl.a(memcpy.o)
 .MIPS.abiflags
                0x0000000000000000       0x18 c:/program files/microchip/xc32/v4.00/bin/bin/../../lib/gcc/pic32mx/8.3.1/../../../../pic32mx/lib/fpu64\libc-musl.a(memcpy.o)
 .xc_stack_usage
                0x0000000000000000       0x14 c:/program files/microchip/xc32/v4.00/bin/bin/../../lib/gcc/pic32mx/8.3.1/../../../../pic32mx/lib/fpu64\libc-musl.a(memcpy.o)
 .text.memcpy   0x0000000000000000       0x2c c:/program files/microchip/xc32/v4.00/bin/bin/../../lib/gcc/pic32mx/8.3.1/../../../../pic32mx/lib/fpu64\libc-musl.a(memcpy.o)
 .xc_stack_usage.hdr
                0x0000000000000000        0xe c:/program files/microchip/xc32/v4.00/bin/bin/../../lib/gcc/pic32mx/8.3.1/../../../../pic32mx/lib/fpu64\libc-musl.a(memcpy.o)
 .note.GNU-stack
                0x0000000000000000        0x0 c:/program files/microchip/xc32/v4.00/bin/bin/../../lib/gcc/pic32mx/8.3.1/../../../../pic32mx/lib/fpu64\libc-musl.a(memcpy.o)
 .text          0x0000000000000000        0x0 c:/program files/microchip/xc32/v4.00/bin/bin/../../lib/gcc/pic32mx/8.3.1/../../../../pic32mx/lib/fpu64\libc-musl.a(libc.o)
 .data          0x0000000000000000        0x0 c:/program files/microchip/xc32/v4.00/bin/bin/../../lib/gcc/pic32mx/8.3.1/../../../../pic32mx/lib/fpu64\libc-musl.a(libc.o)
 .reginfo       0x0000000000000000       0x18 c:/program files/microchip/xc32/v4.00/bin/bin/../../lib/gcc/pic32mx/8.3.1/../../../../pic32mx/lib/fpu64\libc-musl.a(libc.o)
 .MIPS.abiflags
                0x0000000000000000       0x18 c:/program files/microchip/xc32/v4.00/bin/bin/../../lib/gcc/pic32mx/8.3.1/../../../../pic32mx/lib/fpu64\libc-musl.a(libc.o)
 .xc_stack_usage.hdr
                0x0000000000000000        0xe c:/program files/microchip/xc32/v4.00/bin/bin/../../lib/gcc/pic32mx/8.3.1/../../../../pic32mx/lib/fpu64\libc-musl.a(libc.o)
 .note.GNU-stack
                0x0000000000000000        0x0 c:/program files/microchip/xc32/v4.00/bin/bin/../../lib/gcc/pic32mx/8.3.1/../../../../pic32mx/lib/fpu64\libc-musl.a(libc.o)
 .text          0x0000000000000000        0x0 c:/program files/microchip/xc32/v4.00/bin/bin/../../lib/gcc/pic32mx/8.3.1/../../../../pic32mx/lib/fpu64\libm-musl.a(cos.o)
 .data          0x0000000000000000        0x0 c:/program files/microchip/xc32/v4.00/bin/bin/../../lib/gcc/pic32mx/8.3.1/../../../../pic32mx/lib/fpu64\libm-musl.a(cos.o)
 .bss           0x0000000000000000        0x0 c:/program files/microchip/xc32/v4.00/bin/bin/../../lib/gcc/pic32mx/8.3.1/../../../../pic32mx/lib/fpu64\libm-musl.a(cos.o)
 .reginfo       0x0000000000000000       0x18 c:/program files/microchip/xc32/v4.00/bin/bin/../../lib/gcc/pic32mx/8.3.1/../../../../pic32mx/lib/fpu64\libm-musl.a(cos.o)
 .MIPS.abiflags
                0x0000000000000000       0x18 c:/program files/microchip/xc32/v4.00/bin/bin/../../lib/gcc/pic32mx/8.3.1/../../../../pic32mx/lib/fpu64\libm-musl.a(cos.o)
 .xc_stack_usage
                0x0000000000000000       0x11 c:/program files/microchip/xc32/v4.00/bin/bin/../../lib/gcc/pic32mx/8.3.1/../../../../pic32mx/lib/fpu64\libm-musl.a(cos.o)
 .xc_stack_usage.hdr
                0x0000000000000000        0xe c:/program files/microchip/xc32/v4.00/bin/bin/../../lib/gcc/pic32mx/8.3.1/../../../../pic32mx/lib/fpu64\libm-musl.a(cos.o)
 .note.GNU-stack
                0x0000000000000000        0x0 c:/program files/microchip/xc32/v4.00/bin/bin/../../lib/gcc/pic32mx/8.3.1/../../../../pic32mx/lib/fpu64\libm-musl.a(cos.o)
 .text          0x0000000000000000        0x0 c:/program files/microchip/xc32/v4.00/bin/bin/../../lib/gcc/pic32mx/8.3.1/../../../../pic32mx/lib/fpu64\libm-musl.a(pow.o)
 .data          0x0000000000000000        0x0 c:/program files/microchip/xc32/v4.00/bin/bin/../../lib/gcc/pic32mx/8.3.1/../../../../pic32mx/lib/fpu64\libm-musl.a(pow.o)
 .bss           0x0000000000000000        0x0 c:/program files/microchip/xc32/v4.00/bin/bin/../../lib/gcc/pic32mx/8.3.1/../../../../pic32mx/lib/fpu64\libm-musl.a(pow.o)
 .reginfo       0x0000000000000000       0x18 c:/program files/microchip/xc32/v4.00/bin/bin/../../lib/gcc/pic32mx/8.3.1/../../../../pic32mx/lib/fpu64\libm-musl.a(pow.o)
 .MIPS.abiflags
                0x0000000000000000       0x18 c:/program files/microchip/xc32/v4.00/bin/bin/../../lib/gcc/pic32mx/8.3.1/../../../../pic32mx/lib/fpu64\libm-musl.a(pow.o)
 .xc_stack_usage
                0x0000000000000000       0x11 c:/program files/microchip/xc32/v4.00/bin/bin/../../lib/gcc/pic32mx/8.3.1/../../../../pic32mx/lib/fpu64\libm-musl.a(pow.o)
 .xc_stack_usage.hdr
                0x0000000000000000        0xe c:/program files/microchip/xc32/v4.00/bin/bin/../../lib/gcc/pic32mx/8.3.1/../../../../pic32mx/lib/fpu64\libm-musl.a(pow.o)
 .note.GNU-stack
                0x0000000000000000        0x0 c:/program files/microchip/xc32/v4.00/bin/bin/../../lib/gcc/pic32mx/8.3.1/../../../../pic32mx/lib/fpu64\libm-musl.a(pow.o)
 .text          0x0000000000000000        0x0 c:/program files/microchip/xc32/v4.00/bin/bin/../../lib/gcc/pic32mx/8.3.1/../../../../pic32mx/lib/fpu64\libm-musl.a(scalbn.o)
 .data          0x0000000000000000        0x0 c:/program files/microchip/xc32/v4.00/bin/bin/../../lib/gcc/pic32mx/8.3.1/../../../../pic32mx/lib/fpu64\libm-musl.a(scalbn.o)
 .bss           0x0000000000000000        0x0 c:/program files/microchip/xc32/v4.00/bin/bin/../../lib/gcc/pic32mx/8.3.1/../../../../pic32mx/lib/fpu64\libm-musl.a(scalbn.o)
 .reginfo       0x0000000000000000       0x18 c:/program files/microchip/xc32/v4.00/bin/bin/../../lib/gcc/pic32mx/8.3.1/../../../../pic32mx/lib/fpu64\libm-musl.a(scalbn.o)
 .MIPS.abiflags
                0x0000000000000000       0x18 c:/program files/microchip/xc32/v4.00/bin/bin/../../lib/gcc/pic32mx/8.3.1/../../../../pic32mx/lib/fpu64\libm-musl.a(scalbn.o)
 .xc_stack_usage
                0x0000000000000000       0x14 c:/program files/microchip/xc32/v4.00/bin/bin/../../lib/gcc/pic32mx/8.3.1/../../../../pic32mx/lib/fpu64\libm-musl.a(scalbn.o)
 .xc_stack_usage.hdr
                0x0000000000000000        0xe c:/program files/microchip/xc32/v4.00/bin/bin/../../lib/gcc/pic32mx/8.3.1/../../../../pic32mx/lib/fpu64\libm-musl.a(scalbn.o)
 .note.GNU-stack
                0x0000000000000000        0x0 c:/program files/microchip/xc32/v4.00/bin/bin/../../lib/gcc/pic32mx/8.3.1/../../../../pic32mx/lib/fpu64\libm-musl.a(scalbn.o)
 .text          0x0000000000000000        0x0 c:/program files/microchip/xc32/v4.00/bin/bin/../../lib/gcc/pic32mx/8.3.1/../../../../pic32mx/lib/fpu64\libm-musl.a(sin.o)
 .data          0x0000000000000000        0x0 c:/program files/microchip/xc32/v4.00/bin/bin/../../lib/gcc/pic32mx/8.3.1/../../../../pic32mx/lib/fpu64\libm-musl.a(sin.o)
 .bss           0x0000000000000000        0x0 c:/program files/microchip/xc32/v4.00/bin/bin/../../lib/gcc/pic32mx/8.3.1/../../../../pic32mx/lib/fpu64\libm-musl.a(sin.o)
 .reginfo       0x0000000000000000       0x18 c:/program files/microchip/xc32/v4.00/bin/bin/../../lib/gcc/pic32mx/8.3.1/../../../../pic32mx/lib/fpu64\libm-musl.a(sin.o)
 .MIPS.abiflags
                0x0000000000000000       0x18 c:/program files/microchip/xc32/v4.00/bin/bin/../../lib/gcc/pic32mx/8.3.1/../../../../pic32mx/lib/fpu64\libm-musl.a(sin.o)
 .xc_stack_usage
                0x0000000000000000       0x11 c:/program files/microchip/xc32/v4.00/bin/bin/../../lib/gcc/pic32mx/8.3.1/../../../../pic32mx/lib/fpu64\libm-musl.a(sin.o)
 .xc_stack_usage.hdr
                0x0000000000000000        0xe c:/program files/microchip/xc32/v4.00/bin/bin/../../lib/gcc/pic32mx/8.3.1/../../../../pic32mx/lib/fpu64\libm-musl.a(sin.o)
 .note.GNU-stack
                0x0000000000000000        0x0 c:/program files/microchip/xc32/v4.00/bin/bin/../../lib/gcc/pic32mx/8.3.1/../../../../pic32mx/lib/fpu64\libm-musl.a(sin.o)
 .text          0x0000000000000000        0x0 c:/program files/microchip/xc32/v4.00/bin/bin/../../lib/gcc/pic32mx/8.3.1/../../../../pic32mx/lib/fpu64\libm-musl.a(sqrt.o)
 .data          0x0000000000000000        0x0 c:/program files/microchip/xc32/v4.00/bin/bin/../../lib/gcc/pic32mx/8.3.1/../../../../pic32mx/lib/fpu64\libm-musl.a(sqrt.o)
 .bss           0x0000000000000000        0x0 c:/program files/microchip/xc32/v4.00/bin/bin/../../lib/gcc/pic32mx/8.3.1/../../../../pic32mx/lib/fpu64\libm-musl.a(sqrt.o)
 .reginfo       0x0000000000000000       0x18 c:/program files/microchip/xc32/v4.00/bin/bin/../../lib/gcc/pic32mx/8.3.1/../../../../pic32mx/lib/fpu64\libm-musl.a(sqrt.o)
 .MIPS.abiflags
                0x0000000000000000       0x18 c:/program files/microchip/xc32/v4.00/bin/bin/../../lib/gcc/pic32mx/8.3.1/../../../../pic32mx/lib/fpu64\libm-musl.a(sqrt.o)
 .xc_stack_usage
                0x0000000000000000       0x12 c:/program files/microchip/xc32/v4.00/bin/bin/../../lib/gcc/pic32mx/8.3.1/../../../../pic32mx/lib/fpu64\libm-musl.a(sqrt.o)
 .xc_stack_usage.hdr
                0x0000000000000000        0xe c:/program files/microchip/xc32/v4.00/bin/bin/../../lib/gcc/pic32mx/8.3.1/../../../../pic32mx/lib/fpu64\libm-musl.a(sqrt.o)
 .note.GNU-stack
                0x0000000000000000        0x0 c:/program files/microchip/xc32/v4.00/bin/bin/../../lib/gcc/pic32mx/8.3.1/../../../../pic32mx/lib/fpu64\libm-musl.a(sqrt.o)
 .text          0x0000000000000000        0x0 c:/program files/microchip/xc32/v4.00/bin/bin/../../lib/gcc/pic32mx/8.3.1/../../../../pic32mx/lib/fpu64\libm-musl.a(__cos.o)
 .data          0x0000000000000000        0x0 c:/program files/microchip/xc32/v4.00/bin/bin/../../lib/gcc/pic32mx/8.3.1/../../../../pic32mx/lib/fpu64\libm-musl.a(__cos.o)
 .bss           0x0000000000000000        0x0 c:/program files/microchip/xc32/v4.00/bin/bin/../../lib/gcc/pic32mx/8.3.1/../../../../pic32mx/lib/fpu64\libm-musl.a(__cos.o)
 .reginfo       0x0000000000000000       0x18 c:/program files/microchip/xc32/v4.00/bin/bin/../../lib/gcc/pic32mx/8.3.1/../../../../pic32mx/lib/fpu64\libm-musl.a(__cos.o)
 .MIPS.abiflags
                0x0000000000000000       0x18 c:/program files/microchip/xc32/v4.00/bin/bin/../../lib/gcc/pic32mx/8.3.1/../../../../pic32mx/lib/fpu64\libm-musl.a(__cos.o)
 .xc_stack_usage
                0x0000000000000000       0x13 c:/program files/microchip/xc32/v4.00/bin/bin/../../lib/gcc/pic32mx/8.3.1/../../../../pic32mx/lib/fpu64\libm-musl.a(__cos.o)
 .xc_stack_usage.hdr
                0x0000000000000000        0xe c:/program files/microchip/xc32/v4.00/bin/bin/../../lib/gcc/pic32mx/8.3.1/../../../../pic32mx/lib/fpu64\libm-musl.a(__cos.o)
 .note.GNU-stack
                0x0000000000000000        0x0 c:/program files/microchip/xc32/v4.00/bin/bin/../../lib/gcc/pic32mx/8.3.1/../../../../pic32mx/lib/fpu64\libm-musl.a(__cos.o)
 .text          0x0000000000000000        0x0 c:/program files/microchip/xc32/v4.00/bin/bin/../../lib/gcc/pic32mx/8.3.1/../../../../pic32mx/lib/fpu64\libm-musl.a(__rem_pio2.o)
 .data          0x0000000000000000        0x0 c:/program files/microchip/xc32/v4.00/bin/bin/../../lib/gcc/pic32mx/8.3.1/../../../../pic32mx/lib/fpu64\libm-musl.a(__rem_pio2.o)
 .bss           0x0000000000000000        0x0 c:/program files/microchip/xc32/v4.00/bin/bin/../../lib/gcc/pic32mx/8.3.1/../../../../pic32mx/lib/fpu64\libm-musl.a(__rem_pio2.o)
 .reginfo       0x0000000000000000       0x18 c:/program files/microchip/xc32/v4.00/bin/bin/../../lib/gcc/pic32mx/8.3.1/../../../../pic32mx/lib/fpu64\libm-musl.a(__rem_pio2.o)
 .MIPS.abiflags
                0x0000000000000000       0x18 c:/program files/microchip/xc32/v4.00/bin/bin/../../lib/gcc/pic32mx/8.3.1/../../../../pic32mx/lib/fpu64\libm-musl.a(__rem_pio2.o)
 .xc_stack_usage
                0x0000000000000000       0x18 c:/program files/microchip/xc32/v4.00/bin/bin/../../lib/gcc/pic32mx/8.3.1/../../../../pic32mx/lib/fpu64\libm-musl.a(__rem_pio2.o)
 .xc_stack_usage.hdr
                0x0000000000000000        0xe c:/program files/microchip/xc32/v4.00/bin/bin/../../lib/gcc/pic32mx/8.3.1/../../../../pic32mx/lib/fpu64\libm-musl.a(__rem_pio2.o)
 .note.GNU-stack
                0x0000000000000000        0x0 c:/program files/microchip/xc32/v4.00/bin/bin/../../lib/gcc/pic32mx/8.3.1/../../../../pic32mx/lib/fpu64\libm-musl.a(__rem_pio2.o)
 .text          0x0000000000000000        0x0 c:/program files/microchip/xc32/v4.00/bin/bin/../../lib/gcc/pic32mx/8.3.1/../../../../pic32mx/lib/fpu64\libm-musl.a(__rem_pio2_large.o)
 .data          0x0000000000000000        0x0 c:/program files/microchip/xc32/v4.00/bin/bin/../../lib/gcc/pic32mx/8.3.1/../../../../pic32mx/lib/fpu64\libm-musl.a(__rem_pio2_large.o)
 .bss           0x0000000000000000        0x0 c:/program files/microchip/xc32/v4.00/bin/bin/../../lib/gcc/pic32mx/8.3.1/../../../../pic32mx/lib/fpu64\libm-musl.a(__rem_pio2_large.o)
 .reginfo       0x0000000000000000       0x18 c:/program files/microchip/xc32/v4.00/bin/bin/../../lib/gcc/pic32mx/8.3.1/../../../../pic32mx/lib/fpu64\libm-musl.a(__rem_pio2_large.o)
 .MIPS.abiflags
                0x0000000000000000       0x18 c:/program files/microchip/xc32/v4.00/bin/bin/../../lib/gcc/pic32mx/8.3.1/../../../../pic32mx/lib/fpu64\libm-musl.a(__rem_pio2_large.o)
 .xc_stack_usage
                0x0000000000000000       0x1e c:/program files/microchip/xc32/v4.00/bin/bin/../../lib/gcc/pic32mx/8.3.1/../../../../pic32mx/lib/fpu64\libm-musl.a(__rem_pio2_large.o)
 .xc_stack_usage.hdr
                0x0000000000000000        0xe c:/program files/microchip/xc32/v4.00/bin/bin/../../lib/gcc/pic32mx/8.3.1/../../../../pic32mx/lib/fpu64\libm-musl.a(__rem_pio2_large.o)
 .note.GNU-stack
                0x0000000000000000        0x0 c:/program files/microchip/xc32/v4.00/bin/bin/../../lib/gcc/pic32mx/8.3.1/../../../../pic32mx/lib/fpu64\libm-musl.a(__rem_pio2_large.o)
 .text          0x0000000000000000        0x0 c:/program files/microchip/xc32/v4.00/bin/bin/../../lib/gcc/pic32mx/8.3.1/../../../../pic32mx/lib/fpu64\libm-musl.a(__sin.o)
 .data          0x0000000000000000        0x0 c:/program files/microchip/xc32/v4.00/bin/bin/../../lib/gcc/pic32mx/8.3.1/../../../../pic32mx/lib/fpu64\libm-musl.a(__sin.o)
 .bss           0x0000000000000000        0x0 c:/program files/microchip/xc32/v4.00/bin/bin/../../lib/gcc/pic32mx/8.3.1/../../../../pic32mx/lib/fpu64\libm-musl.a(__sin.o)
 .reginfo       0x0000000000000000       0x18 c:/program files/microchip/xc32/v4.00/bin/bin/../../lib/gcc/pic32mx/8.3.1/../../../../pic32mx/lib/fpu64\libm-musl.a(__sin.o)
 .MIPS.abiflags
                0x0000000000000000       0x18 c:/program files/microchip/xc32/v4.00/bin/bin/../../lib/gcc/pic32mx/8.3.1/../../../../pic32mx/lib/fpu64\libm-musl.a(__sin.o)
 .xc_stack_usage
                0x0000000000000000       0x13 c:/program files/microchip/xc32/v4.00/bin/bin/../../lib/gcc/pic32mx/8.3.1/../../../../pic32mx/lib/fpu64\libm-musl.a(__sin.o)
 .xc_stack_usage.hdr
                0x0000000000000000        0xe c:/program files/microchip/xc32/v4.00/bin/bin/../../lib/gcc/pic32mx/8.3.1/../../../../pic32mx/lib/fpu64\libm-musl.a(__sin.o)
 .note.GNU-stack
                0x0000000000000000        0x0 c:/program files/microchip/xc32/v4.00/bin/bin/../../lib/gcc/pic32mx/8.3.1/../../../../pic32mx/lib/fpu64\libm-musl.a(__sin.o)
 .text          0x0000000000000000        0x0 c:/program files/microchip/xc32/v4.00/bin/bin/../../lib/gcc/pic32mx/8.3.1/../../../../pic32mx/lib/fpu64\libm-musl.a(fabs.o)
 .data          0x0000000000000000        0x0 c:/program files/microchip/xc32/v4.00/bin/bin/../../lib/gcc/pic32mx/8.3.1/../../../../pic32mx/lib/fpu64\libm-musl.a(fabs.o)
 .bss           0x0000000000000000        0x0 c:/program files/microchip/xc32/v4.00/bin/bin/../../lib/gcc/pic32mx/8.3.1/../../../../pic32mx/lib/fpu64\libm-musl.a(fabs.o)
 .reginfo       0x0000000000000000       0x18 c:/program files/microchip/xc32/v4.00/bin/bin/../../lib/gcc/pic32mx/8.3.1/../../../../pic32mx/lib/fpu64\libm-musl.a(fabs.o)
 .MIPS.abiflags
                0x0000000000000000       0x18 c:/program files/microchip/xc32/v4.00/bin/bin/../../lib/gcc/pic32mx/8.3.1/../../../../pic32mx/lib/fpu64\libm-musl.a(fabs.o)
 .xc_stack_usage
                0x0000000000000000       0x12 c:/program files/microchip/xc32/v4.00/bin/bin/../../lib/gcc/pic32mx/8.3.1/../../../../pic32mx/lib/fpu64\libm-musl.a(fabs.o)
 .xc_stack_usage.hdr
                0x0000000000000000        0xe c:/program files/microchip/xc32/v4.00/bin/bin/../../lib/gcc/pic32mx/8.3.1/../../../../pic32mx/lib/fpu64\libm-musl.a(fabs.o)
 .note.GNU-stack
                0x0000000000000000        0x0 c:/program files/microchip/xc32/v4.00/bin/bin/../../lib/gcc/pic32mx/8.3.1/../../../../pic32mx/lib/fpu64\libm-musl.a(fabs.o)
 .text          0x0000000000000000        0x0 c:/program files/microchip/xc32/v4.00/bin/bin/../../lib/gcc/pic32mx/8.3.1/../../../../pic32mx/lib/fpu64\libm-musl.a(floor.o)
 .data          0x0000000000000000        0x0 c:/program files/microchip/xc32/v4.00/bin/bin/../../lib/gcc/pic32mx/8.3.1/../../../../pic32mx/lib/fpu64\libm-musl.a(floor.o)
 .bss           0x0000000000000000        0x0 c:/program files/microchip/xc32/v4.00/bin/bin/../../lib/gcc/pic32mx/8.3.1/../../../../pic32mx/lib/fpu64\libm-musl.a(floor.o)
 .reginfo       0x0000000000000000       0x18 c:/program files/microchip/xc32/v4.00/bin/bin/../../lib/gcc/pic32mx/8.3.1/../../../../pic32mx/lib/fpu64\libm-musl.a(floor.o)
 .MIPS.abiflags
                0x0000000000000000       0x18 c:/program files/microchip/xc32/v4.00/bin/bin/../../lib/gcc/pic32mx/8.3.1/../../../../pic32mx/lib/fpu64\libm-musl.a(floor.o)
 .xc_stack_usage
                0x0000000000000000       0x13 c:/program files/microchip/xc32/v4.00/bin/bin/../../lib/gcc/pic32mx/8.3.1/../../../../pic32mx/lib/fpu64\libm-musl.a(floor.o)
 .xc_stack_usage.hdr
                0x0000000000000000        0xe c:/program files/microchip/xc32/v4.00/bin/bin/../../lib/gcc/pic32mx/8.3.1/../../../../pic32mx/lib/fpu64\libm-musl.a(floor.o)
 .note.GNU-stack
                0x0000000000000000        0x0 c:/program files/microchip/xc32/v4.00/bin/bin/../../lib/gcc/pic32mx/8.3.1/../../../../pic32mx/lib/fpu64\libm-musl.a(floor.o)
 .text          0x0000000000000000        0x0 c:/program files/microchip/xc32/v4.00/bin/bin/../../lib/gcc/pic32mx/8.3.1/../../../../pic32mx/lib/fpu64\libpic32.a(sbrk.o)
 .data          0x0000000000000000        0x0 c:/program files/microchip/xc32/v4.00/bin/bin/../../lib/gcc/pic32mx/8.3.1/../../../../pic32mx/lib/fpu64\libpic32.a(sbrk.o)
 .reginfo       0x0000000000000000       0x18 c:/program files/microchip/xc32/v4.00/bin/bin/../../lib/gcc/pic32mx/8.3.1/../../../../pic32mx/lib/fpu64\libpic32.a(sbrk.o)
 .MIPS.abiflags
                0x0000000000000000       0x18 c:/program files/microchip/xc32/v4.00/bin/bin/../../lib/gcc/pic32mx/8.3.1/../../../../pic32mx/lib/fpu64\libpic32.a(sbrk.o)
 .xc_stack_usage
                0x0000000000000000       0x77 c:/program files/microchip/xc32/v4.00/bin/bin/../../lib/gcc/pic32mx/8.3.1/../../../../pic32mx/lib/fpu64\libpic32.a(sbrk.o)
 .text.getpagesize
                0x0000000000000000        0x8 c:/program files/microchip/xc32/v4.00/bin/bin/../../lib/gcc/pic32mx/8.3.1/../../../../pic32mx/lib/fpu64\libpic32.a(sbrk.o)
 .text.sbrk     0x0000000000000000       0x4c c:/program files/microchip/xc32/v4.00/bin/bin/../../lib/gcc/pic32mx/8.3.1/../../../../pic32mx/lib/fpu64\libpic32.a(sbrk.o)
 .xc_stack_usage.hdr
                0x0000000000000000        0xe c:/program files/microchip/xc32/v4.00/bin/bin/../../lib/gcc/pic32mx/8.3.1/../../../../pic32mx/lib/fpu64\libpic32.a(sbrk.o)
 .text          0x0000000000000000        0x0 c:/program files/microchip/xc32/v4.00/bin/bin/../../lib/gcc/pic32mx/8.3.1/../../../../pic32mx/lib/fpu64\libpic32.a(errno.o)
 .data          0x0000000000000000        0x0 c:/program files/microchip/xc32/v4.00/bin/bin/../../lib/gcc/pic32mx/8.3.1/../../../../pic32mx/lib/fpu64\libpic32.a(errno.o)
 .bss           0x0000000000000000        0x0 c:/program files/microchip/xc32/v4.00/bin/bin/../../lib/gcc/pic32mx/8.3.1/../../../../pic32mx/lib/fpu64\libpic32.a(errno.o)
 .reginfo       0x0000000000000000       0x18 c:/program files/microchip/xc32/v4.00/bin/bin/../../lib/gcc/pic32mx/8.3.1/../../../../pic32mx/lib/fpu64\libpic32.a(errno.o)
 .MIPS.abiflags
                0x0000000000000000       0x18 c:/program files/microchip/xc32/v4.00/bin/bin/../../lib/gcc/pic32mx/8.3.1/../../../../pic32mx/lib/fpu64\libpic32.a(errno.o)
 .xc_stack_usage.hdr
                0x0000000000000000        0xe c:/program files/microchip/xc32/v4.00/bin/bin/../../lib/gcc/pic32mx/8.3.1/../../../../pic32mx/lib/fpu64\libpic32.a(errno.o)
 .text          0x0000000000000000       0xa8 c:/program files/microchip/xc32/v4.00/bin/bin/../../lib/gcc/pic32mx/8.3.1/../../../../pic32mx/lib/fpu64\libpic32.a(memset.o)
 .data          0x0000000000000000        0x0 c:/program files/microchip/xc32/v4.00/bin/bin/../../lib/gcc/pic32mx/8.3.1/../../../../pic32mx/lib/fpu64\libpic32.a(memset.o)
 .bss           0x0000000000000000        0x0 c:/program files/microchip/xc32/v4.00/bin/bin/../../lib/gcc/pic32mx/8.3.1/../../../../pic32mx/lib/fpu64\libpic32.a(memset.o)
 .reginfo       0x0000000000000000       0x18 c:/program files/microchip/xc32/v4.00/bin/bin/../../lib/gcc/pic32mx/8.3.1/../../../../pic32mx/lib/fpu64\libpic32.a(memset.o)
 .MIPS.abiflags
                0x0000000000000000       0x18 c:/program files/microchip/xc32/v4.00/bin/bin/../../lib/gcc/pic32mx/8.3.1/../../../../pic32mx/lib/fpu64\libpic32.a(memset.o)
 .comment       0x0000000000000000       0x19 c:/program files/microchip/xc32/v4.00/bin/bin/../../lib/gcc/pic32mx/8.3.1/../../../../pic32mx/lib/fpu64\libpic32.a(memset.o)
 .xc_stack_usage.hdr
                0x0000000000000000        0xe c:/program files/microchip/xc32/v4.00/bin/bin/../../lib/gcc/pic32mx/8.3.1/../../../../pic32mx/lib/fpu64\libpic32.a(memset.o)
 .xc_stack_usage
                0x0000000000000000       0x14 c:/program files/microchip/xc32/v4.00/bin/bin/../../lib/gcc/pic32mx/8.3.1/../../../../pic32mx/lib/fpu64\libpic32.a(memset.o)
 .data          0x0000000000000000        0x0 c:/program files/microchip/xc32/v4.00/bin/bin/../../lib/gcc/pic32mx/8.3.1/fpu64\libgcc.a(_lshrdi3.o)
 .bss           0x0000000000000000        0x0 c:/program files/microchip/xc32/v4.00/bin/bin/../../lib/gcc/pic32mx/8.3.1/fpu64\libgcc.a(_lshrdi3.o)
 .reginfo       0x0000000000000000       0x18 c:/program files/microchip/xc32/v4.00/bin/bin/../../lib/gcc/pic32mx/8.3.1/fpu64\libgcc.a(_lshrdi3.o)
 .MIPS.abiflags
                0x0000000000000000       0x18 c:/program files/microchip/xc32/v4.00/bin/bin/../../lib/gcc/pic32mx/8.3.1/fpu64\libgcc.a(_lshrdi3.o)
 .xc_stack_usage
                0x0000000000000000       0x17 c:/program files/microchip/xc32/v4.00/bin/bin/../../lib/gcc/pic32mx/8.3.1/fpu64\libgcc.a(_lshrdi3.o)
 .xc_stack_usage.hdr
                0x0000000000000000        0xe c:/program files/microchip/xc32/v4.00/bin/bin/../../lib/gcc/pic32mx/8.3.1/fpu64\libgcc.a(_lshrdi3.o)
 .data          0x0000000000000000        0x0 c:/program files/microchip/xc32/v4.00/bin/bin/../../lib/gcc/pic32mx/8.3.1/fpu64\libgcc.a(_ashldi3.o)
 .bss           0x0000000000000000        0x0 c:/program files/microchip/xc32/v4.00/bin/bin/../../lib/gcc/pic32mx/8.3.1/fpu64\libgcc.a(_ashldi3.o)
 .reginfo       0x0000000000000000       0x18 c:/program files/microchip/xc32/v4.00/bin/bin/../../lib/gcc/pic32mx/8.3.1/fpu64\libgcc.a(_ashldi3.o)
 .MIPS.abiflags
                0x0000000000000000       0x18 c:/program files/microchip/xc32/v4.00/bin/bin/../../lib/gcc/pic32mx/8.3.1/fpu64\libgcc.a(_ashldi3.o)
 .xc_stack_usage
                0x0000000000000000       0x17 c:/program files/microchip/xc32/v4.00/bin/bin/../../lib/gcc/pic32mx/8.3.1/fpu64\libgcc.a(_ashldi3.o)
 .xc_stack_usage.hdr
                0x0000000000000000        0xe c:/program files/microchip/xc32/v4.00/bin/bin/../../lib/gcc/pic32mx/8.3.1/fpu64\libgcc.a(_ashldi3.o)

Memory Configuration

Name             Origin             Length             Attributes
kseg0_data_mem   0x0000000080000000 0x0000000000080000 w !x
kseg1_data_mem   0x00000000a0000000 0x0000000000000380
kseg0_program_mem 0x000000009d000000 0x0000000000200000 xr
kseg0_boot_mem   0x000000009fc004b0 0x0000000000000000
kseg1_boot_mem   0x00000000bfc00000 0x0000000000000480
kseg1_boot_mem_4B0 0x00000000bfc004b0 0x000000000000fa50
config_BFC0FF40  0x00000000bfc0ff40 0x0000000000000004
config_BFC0FF44  0x00000000bfc0ff44 0x0000000000000004
config_BFC0FF48  0x00000000bfc0ff48 0x0000000000000004
config_BFC0FF4C  0x00000000bfc0ff4c 0x0000000000000004
config_BFC0FF50  0x00000000bfc0ff50 0x0000000000000004
config_BFC0FF54  0x00000000bfc0ff54 0x0000000000000004
config_BFC0FF58  0x00000000bfc0ff58 0x0000000000000004
config_BFC0FF5C  0x00000000bfc0ff5c 0x0000000000000004
config_BFC0FF60  0x00000000bfc0ff60 0x0000000000000004
config_BFC0FF64  0x00000000bfc0ff64 0x0000000000000004
config_BFC0FF68  0x00000000bfc0ff68 0x0000000000000004
config_BFC0FF6C  0x00000000bfc0ff6c 0x0000000000000004
config_BFC0FF70  0x00000000bfc0ff70 0x0000000000000004
config_BFC0FF74  0x00000000bfc0ff74 0x0000000000000004
config_BFC0FF78  0x00000000bfc0ff78 0x0000000000000004
config_BFC0FF7C  0x00000000bfc0ff7c 0x0000000000000004
config_BFC0FFC0  0x00000000bfc0ffc0 0x0000000000000004
config_BFC0FFC4  0x00000000bfc0ffc4 0x0000000000000004
config_BFC0FFC8  0x00000000bfc0ffc8 0x0000000000000004
config_BFC0FFCC  0x00000000bfc0ffcc 0x0000000000000004
config_BFC0FFD0  0x00000000bfc0ffd0 0x0000000000000004
config_BFC0FFD4  0x00000000bfc0ffd4 0x0000000000000004
config_BFC0FFD8  0x00000000bfc0ffd8 0x0000000000000004
config_BFC0FFDC  0x00000000bfc0ffdc 0x0000000000000004
config_BFC0FFE0  0x00000000bfc0ffe0 0x0000000000000004
config_BFC0FFE4  0x00000000bfc0ffe4 0x0000000000000004
config_BFC0FFE8  0x00000000bfc0ffe8 0x0000000000000004
config_BFC0FFEC  0x00000000bfc0ffec 0x0000000000000004
config_BFC0FFF0  0x00000000bfc0fff0 0x0000000000000004
config_BFC0FFF4  0x00000000bfc0fff4 0x0000000000000004
config_BFC0FFF8  0x00000000bfc0fff8 0x0000000000000004
config_BFC0FFFC  0x00000000bfc0fffc 0x0000000000000004
lowerbootaliaslastpage 0x00000000bfc10000 0x0000000000004000
upperbootalias   0x00000000bfc20000 0x000000000000ff00
config_BFC2FF40  0x00000000bfc2ff40 0x0000000000000004
config_BFC2FF44  0x00000000bfc2ff44 0x0000000000000004
config_BFC2FF48  0x00000000bfc2ff48 0x0000000000000004
config_BFC2FF4C  0x00000000bfc2ff4c 0x0000000000000004
config_BFC2FF50  0x00000000bfc2ff50 0x0000000000000004
config_BFC2FF54  0x00000000bfc2ff54 0x0000000000000004
config_BFC2FF58  0x00000000bfc2ff58 0x0000000000000004
config_BFC2FF5C  0x00000000bfc2ff5c 0x0000000000000004
config_BFC2FF60  0x00000000bfc2ff60 0x0000000000000004
config_BFC2FF64  0x00000000bfc2ff64 0x0000000000000004
config_BFC2FF68  0x00000000bfc2ff68 0x0000000000000004
config_BFC2FF6C  0x00000000bfc2ff6c 0x0000000000000004
config_BFC2FF70  0x00000000bfc2ff70 0x0000000000000004
config_BFC2FF74  0x00000000bfc2ff74 0x0000000000000004
config_BFC2FF78  0x00000000bfc2ff78 0x0000000000000004
config_BFC2FF7C  0x00000000bfc2ff7c 0x0000000000000004
config_BFC2FFC0  0x00000000bfc2ffc0 0x0000000000000004
config_BFC2FFC4  0x00000000bfc2ffc4 0x0000000000000004
config_BFC2FFC8  0x00000000bfc2ffc8 0x0000000000000004
config_BFC2FFCC  0x00000000bfc2ffcc 0x0000000000000004
config_BFC2FFD0  0x00000000bfc2ffd0 0x0000000000000004
config_BFC2FFD4  0x00000000bfc2ffd4 0x0000000000000004
config_BFC2FFD8  0x00000000bfc2ffd8 0x0000000000000004
config_BFC2FFDC  0x00000000bfc2ffdc 0x0000000000000004
config_BFC2FFE0  0x00000000bfc2ffe0 0x0000000000000004
config_BFC2FFE4  0x00000000bfc2ffe4 0x0000000000000004
config_BFC2FFE8  0x00000000bfc2ffe8 0x0000000000000004
config_BFC2FFEC  0x00000000bfc2ffec 0x0000000000000004
config_BFC2FFF0  0x00000000bfc2fff0 0x0000000000000004
config_BFC2FFF4  0x00000000bfc2fff4 0x0000000000000004
config_BFC2FFF8  0x00000000bfc2fff8 0x0000000000000004
config_BFC2FFFC  0x00000000bfc2fffc 0x0000000000000004
upperbootaliaslastpage 0x00000000bfc30000 0x0000000000004000
boot1            0x00000000bfc40000 0x000000000000ff00
config_BFC4FF40  0x00000000bfc4ff40 0x0000000000000004
config_BFC4FF44  0x00000000bfc4ff44 0x0000000000000004
config_BFC4FF48  0x00000000bfc4ff48 0x0000000000000004
config_BFC4FF4C  0x00000000bfc4ff4c 0x0000000000000004
config_BFC4FF50  0x00000000bfc4ff50 0x0000000000000004
config_BFC4FF54  0x00000000bfc4ff54 0x0000000000000004
config_BFC4FF58  0x00000000bfc4ff58 0x0000000000000004
config_BFC4FF5C  0x00000000bfc4ff5c 0x0000000000000004
config_BFC4FF60  0x00000000bfc4ff60 0x0000000000000004
config_BFC4FF64  0x00000000bfc4ff64 0x0000000000000004
config_BFC4FF68  0x00000000bfc4ff68 0x0000000000000004
config_BFC4FF6C  0x00000000bfc4ff6c 0x0000000000000004
config_BFC4FF70  0x00000000bfc4ff70 0x0000000000000004
config_BFC4FF74  0x00000000bfc4ff74 0x0000000000000004
config_BFC4FF78  0x00000000bfc4ff78 0x0000000000000004
config_BFC4FF7C  0x00000000bfc4ff7c 0x0000000000000004
config_BFC4FFC0  0x00000000bfc4ffc0 0x0000000000000004
config_BFC4FFC4  0x00000000bfc4ffc4 0x0000000000000004
config_BFC4FFC8  0x00000000bfc4ffc8 0x0000000000000004
config_BFC4FFCC  0x00000000bfc4ffcc 0x0000000000000004
config_BFC4FFD0  0x00000000bfc4ffd0 0x0000000000000004
config_BFC4FFD4  0x00000000bfc4ffd4 0x0000000000000004
config_BFC4FFD8  0x00000000bfc4ffd8 0x0000000000000004
config_BFC4FFDC  0x00000000bfc4ffdc 0x0000000000000004
config_BFC4FFE0  0x00000000bfc4ffe0 0x0000000000000004
config_BFC4FFE4  0x00000000bfc4ffe4 0x0000000000000004
config_BFC4FFE8  0x00000000bfc4ffe8 0x0000000000000004
config_BFC4FFEC  0x00000000bfc4ffec 0x0000000000000004
config_BFC4FFF0  0x00000000bfc4fff0 0x0000000000000004
config_BFC4FFF4  0x00000000bfc4fff4 0x0000000000000004
config_BFC4FFF8  0x00000000bfc4fff8 0x0000000000000004
config_BFC4FFFC  0x00000000bfc4fffc 0x0000000000000004
boot1lastpage    0x00000000bfc50000 0x0000000000004000
config_BFC54000  0x00000000bfc54000 0x0000000000000004
config_BFC54004  0x00000000bfc54004 0x0000000000000004
config_BFC54008  0x00000000bfc54008 0x0000000000000004
config_BFC5400C  0x00000000bfc5400c 0x0000000000000004
config_BFC54010  0x00000000bfc54010 0x0000000000000004
config_BFC5401C  0x00000000bfc5401c 0x0000000000000004
config_BFC54020  0x00000000bfc54020 0x0000000000000004
config_BFC54024  0x00000000bfc54024 0x0000000000000004
boot2            0x00000000bfc60000 0x000000000000ff00
config_BFC6FF40  0x00000000bfc6ff40 0x0000000000000004
config_BFC6FF44  0x00000000bfc6ff44 0x0000000000000004
config_BFC6FF48  0x00000000bfc6ff48 0x0000000000000004
config_BFC6FF4C  0x00000000bfc6ff4c 0x0000000000000004
config_BFC6FF50  0x00000000bfc6ff50 0x0000000000000004
config_BFC6FF54  0x00000000bfc6ff54 0x0000000000000004
config_BFC6FF58  0x00000000bfc6ff58 0x0000000000000004
config_BFC6FF5C  0x00000000bfc6ff5c 0x0000000000000004
config_BFC6FF60  0x00000000bfc6ff60 0x0000000000000004
config_BFC6FF64  0x00000000bfc6ff64 0x0000000000000004
config_BFC6FF68  0x00000000bfc6ff68 0x0000000000000004
config_BFC6FF6C  0x00000000bfc6ff6c 0x0000000000000004
config_BFC6FF70  0x00000000bfc6ff70 0x0000000000000004
config_BFC6FF74  0x00000000bfc6ff74 0x0000000000000004
config_BFC6FF78  0x00000000bfc6ff78 0x0000000000000004
config_BFC6FF7C  0x00000000bfc6ff7c 0x0000000000000004
config_BFC6FFC0  0x00000000bfc6ffc0 0x0000000000000004
config_BFC6FFC4  0x00000000bfc6ffc4 0x0000000000000004
config_BFC6FFC8  0x00000000bfc6ffc8 0x0000000000000004
config_BFC6FFCC  0x00000000bfc6ffcc 0x0000000000000004
config_BFC6FFD0  0x00000000bfc6ffd0 0x0000000000000004
config_BFC6FFD4  0x00000000bfc6ffd4 0x0000000000000004
config_BFC6FFD8  0x00000000bfc6ffd8 0x0000000000000004
config_BFC6FFDC  0x00000000bfc6ffdc 0x0000000000000004
config_BFC6FFE0  0x00000000bfc6ffe0 0x0000000000000004
config_BFC6FFE4  0x00000000bfc6ffe4 0x0000000000000004
config_BFC6FFE8  0x00000000bfc6ffe8 0x0000000000000004
config_BFC6FFEC  0x00000000bfc6ffec 0x0000000000000004
config_BFC6FFF0  0x00000000bfc6fff0 0x0000000000000004
config_BFC6FFF4  0x00000000bfc6fff4 0x0000000000000004
config_BFC6FFF8  0x00000000bfc6fff8 0x0000000000000004
config_BFC6FFFC  0x00000000bfc6fffc 0x0000000000000004
boot2lastpage    0x00000000bfc70000 0x0000000000004000
sfrs             0x00000000bf800000 0x0000000000100000
configsfrs_BFC0FF40 0x00000000bfc0ff40 0x0000000000000040
configsfrs_BFC0FFC0 0x00000000bfc0ffc0 0x0000000000000040
configsfrs_BFC2FF40 0x00000000bfc2ff40 0x0000000000000040
configsfrs_BFC2FFC0 0x00000000bfc2ffc0 0x0000000000000040
configsfrs_BFC4FF40 0x00000000bfc4ff40 0x0000000000000040
configsfrs_BFC4FFC0 0x00000000bfc4ffc0 0x0000000000000040
configsfrs_BFC54000 0x00000000bfc54000 0x0000000000000020
configsfrs_BFC6FF40 0x00000000bfc6ff40 0x0000000000000040
configsfrs_BFC6FFC0 0x00000000bfc6ffc0 0x0000000000000040
kseg2_ebi_data_mem 0x00000000c0000000 0x0000000004000000
kseg2_sqi_data_mem 0x00000000d0000000 0x0000000004000000
kseg3_ebi_data_mem 0x00000000e0000000 0x0000000004000000
kseg3_sqi_data_mem 0x00000000f0000000 0x0000000004000000
*default*        0x0000000000000000 0xffffffffffffffff

Linker script and memory map


reserve_data_0_kseg0
                0x0000000080000000      0x380
                0x0000000080000000        0x2 SHORT 0x0
                0x0000000000000380                . = 0x380
 *fill*         0x0000000080000002      0x37e 
                0x0000000080000380                . = ALIGN (0x4)

reserve_data_0_kseg1
                0x00000000a0000000      0x380
                0x00000000a0000000        0x2 SHORT 0x0
                0x0000000000000380                . = 0x380
 *fill*         0x00000000a0000002      0x37e 
                0x00000000a0000380                . = ALIGN (0x4)
LOAD c:/program files/microchip/xc32/v4.00/bin/bin/../../lib/gcc/pic32mx/8.3.1/../../../../pic32mx/lib/fpu64\software-debug-break.o
LOAD build/DSP_TU/debug/_ext/1736525323/plib_adchs.o
LOAD build/DSP_TU/debug/_ext/2093422612/plib_clk.o
LOAD build/DSP_TU/debug/_ext/471522303/plib_evic.o
LOAD build/DSP_TU/debug/_ext/471468475/plib_gpio.o
LOAD build/DSP_TU/debug/_ext/471242515/plib_ocmp1.o
LOAD build/DSP_TU/debug/_ext/2093406237/plib_tmr2.o
LOAD build/DSP_TU/debug/_ext/471065532/plib_uart2.o
LOAD build/DSP_TU/debug/_ext/2030120972/xc32_monitor.o
LOAD build/DSP_TU/debug/_ext/1044038098/initialization.o
LOAD build/DSP_TU/debug/_ext/1044038098/interrupts.o
LOAD build/DSP_TU/debug/_ext/1044038098/exceptions.o
LOAD build/DSP_TU/debug/_ext/1360937237/main.o
LOAD build/DSP_TU/debug/_ext/1360937237/PwmAudioOut.o
LOAD build/DSP_TU/debug/_ext/1360937237/biquad.o
LOAD build/DSP_TU/debug/_ext/1360937237/dds.o
LOAD build/DSP_TU/debug/_ext/1360937237/DynamicThreshold.o
LOAD build/DSP_TU/debug/_ext/1360937237/agc.o
                0x0000000000000001                __MPLAB_BUILD = 0x1
                0x0000000000000400                PROVIDE (_min_stack_size = 0x400)
START GROUP
LOAD vector_offset_init.o
END GROUP
                0x0000000000000001                PROVIDE (_vector_spacing = 0x1)
                0x000000009d000000                PROVIDE (_ebase_address = 0x9d000000)
                0x00000000bfc00000                _RESET_ADDR = 0xbfc00000
                0x00000000bfc00380                _BEV_EXCPT_ADDR = 0xbfc00380
                0x00000000bfc00480                _DBG_EXCPT_ADDR = 0xbfc00480
                0x000000009d000000                _SIMPLE_TLB_REFILL_EXCPT_ADDR = (_ebase_address + 0x0)
                0x000000009d000100                _CACHE_ERR_EXCPT_ADDR = (_ebase_address + 0x100)
                0x000000009d000180                _GEN_EXCPT_ADDR = (_ebase_address + 0x180)

.config_BFC0FF40
 *(.config_BFC0FF40)

.config_BFC0FF44
 *(.config_BFC0FF44)

.config_BFC0FF48
 *(.config_BFC0FF48)

.config_BFC0FF4C
 *(.config_BFC0FF4C)

.config_BFC0FF50
 *(.config_BFC0FF50)

.config_BFC0FF54
 *(.config_BFC0FF54)

.config_BFC0FF58
 *(.config_BFC0FF58)

.config_BFC0FF5C
 *(.config_BFC0FF5C)

.config_BFC0FF60
 *(.config_BFC0FF60)

.config_BFC0FF64
 *(.config_BFC0FF64)

.config_BFC0FF68
 *(.config_BFC0FF68)

.config_BFC0FF6C
 *(.config_BFC0FF6C)

.config_BFC0FF70
 *(.config_BFC0FF70)

.config_BFC0FF74
 *(.config_BFC0FF74)

.config_BFC0FF78
 *(.config_BFC0FF78)

.config_BFC0FF7C
 *(.config_BFC0FF7C)

.config_BFC0FFC0
                0x00000000bfc0ffc0        0x4
 *(.config_BFC0FFC0)
 .config_BFC0FFC0
                0x00000000bfc0ffc0        0x4 build/DSP_TU/debug/_ext/1044038098/initialization.o
                0x00000000bfc0ffc0                __config_BFC0FFC0

.config_BFC0FFC4
                0x00000000bfc0ffc4        0x4
 *(.config_BFC0FFC4)
 .config_BFC0FFC4
                0x00000000bfc0ffc4        0x4 build/DSP_TU/debug/_ext/1044038098/initialization.o
                0x00000000bfc0ffc4                __config_BFC0FFC4

.config_BFC0FFC8
                0x00000000bfc0ffc8        0x4
 *(.config_BFC0FFC8)
 .config_BFC0FFC8
                0x00000000bfc0ffc8        0x4 build/DSP_TU/debug/_ext/1044038098/initialization.o
                0x00000000bfc0ffc8                __config_BFC0FFC8

.config_BFC0FFCC
                0x00000000bfc0ffcc        0x4
 *(.config_BFC0FFCC)
 .config_BFC0FFCC
                0x00000000bfc0ffcc        0x4 build/DSP_TU/debug/_ext/1044038098/initialization.o
                0x00000000bfc0ffcc                __config_BFC0FFCC

.config_BFC0FFD0
 *(.config_BFC0FFD0)

.config_BFC0FFD4
 *(.config_BFC0FFD4)

.config_BFC0FFD8
 *(.config_BFC0FFD8)

.config_BFC0FFDC
                0x00000000bfc0ffdc        0x4
 *(.config_BFC0FFDC)
 .config_BFC0FFDC
                0x00000000bfc0ffdc        0x4 build/DSP_TU/debug/_ext/1044038098/initialization.o
                0x00000000bfc0ffdc                __config_BFC0FFDC

.config_BFC0FFE0
 *(.config_BFC0FFE0)

.config_BFC0FFE4
 *(.config_BFC0FFE4)

.config_BFC0FFE8
 *(.config_BFC0FFE8)

.config_BFC0FFEC
 *(.config_BFC0FFEC)

.config_BFC0FFF0
                0x00000000bfc0fff0        0x4
 *(.config_BFC0FFF0)
 .config_BFC0FFF0
                0x00000000bfc0fff0        0x4 build/DSP_TU/debug/_ext/1044038098/initialization.o
                0x00000000bfc0fff0                __config_BFC0FFF0

.config_BFC0FFF4
 *(.config_BFC0FFF4)

.config_BFC0FFF8
 *(.config_BFC0FFF8)

.config_BFC0FFFC
 *(.config_BFC0FFFC)

.config_BFC2FF40
 *(.config_BFC2FF40)

.config_BFC2FF44
 *(.config_BFC2FF44)

.config_BFC2FF48
 *(.config_BFC2FF48)

.config_BFC2FF4C
 *(.config_BFC2FF4C)

.config_BFC2FF50
 *(.config_BFC2FF50)

.config_BFC2FF54
 *(.config_BFC2FF54)

.config_BFC2FF58
 *(.config_BFC2FF58)

.config_BFC2FF5C
 *(.config_BFC2FF5C)

.config_BFC2FF60
 *(.config_BFC2FF60)

.config_BFC2FF64
 *(.config_BFC2FF64)

.config_BFC2FF68
 *(.config_BFC2FF68)

.config_BFC2FF6C
 *(.config_BFC2FF6C)

.config_BFC2FF70
 *(.config_BFC2FF70)

.config_BFC2FF74
 *(.config_BFC2FF74)

.config_BFC2FF78
 *(.config_BFC2FF78)

.config_BFC2FF7C
 *(.config_BFC2FF7C)

.config_BFC2FFC0
 *(.config_BFC2FFC0)

.config_BFC2FFC4
 *(.config_BFC2FFC4)

.config_BFC2FFC8
 *(.config_BFC2FFC8)

.config_BFC2FFCC
 *(.config_BFC2FFCC)

.config_BFC2FFD0
 *(.config_BFC2FFD0)

.config_BFC2FFD4
 *(.config_BFC2FFD4)

.config_BFC2FFD8
 *(.config_BFC2FFD8)

.config_BFC2FFDC
 *(.config_BFC2FFDC)

.config_BFC2FFE0
 *(.config_BFC2FFE0)

.config_BFC2FFE4
 *(.config_BFC2FFE4)

.config_BFC2FFE8
 *(.config_BFC2FFE8)

.config_BFC2FFEC
 *(.config_BFC2FFEC)

.config_BFC2FFF0
 *(.config_BFC2FFF0)

.config_BFC2FFF4
 *(.config_BFC2FFF4)

.config_BFC2FFF8
 *(.config_BFC2FFF8)

.config_BFC2FFFC
 *(.config_BFC2FFFC)

.config_BFC4FF40
 *(.config_BFC4FF40)

.config_BFC4FF44
 *(.config_BFC4FF44)

.config_BFC4FF48
 *(.config_BFC4FF48)

.config_BFC4FF4C
 *(.config_BFC4FF4C)

.config_BFC4FF50
 *(.config_BFC4FF50)

.config_BFC4FF54
 *(.config_BFC4FF54)

.config_BFC4FF58
 *(.config_BFC4FF58)

.config_BFC4FF5C
 *(.config_BFC4FF5C)

.config_BFC4FF60
 *(.config_BFC4FF60)

.config_BFC4FF64
 *(.config_BFC4FF64)

.config_BFC4FF68
 *(.config_BFC4FF68)

.config_BFC4FF6C
 *(.config_BFC4FF6C)

.config_BFC4FF70
 *(.config_BFC4FF70)

.config_BFC4FF74
 *(.config_BFC4FF74)

.config_BFC4FF78
 *(.config_BFC4FF78)

.config_BFC4FF7C
 *(.config_BFC4FF7C)

.config_BFC4FFC0
 *(.config_BFC4FFC0)

.config_BFC4FFC4
 *(.config_BFC4FFC4)

.config_BFC4FFC8
 *(.config_BFC4FFC8)

.config_BFC4FFCC
 *(.config_BFC4FFCC)

.config_BFC4FFD0
 *(.config_BFC4FFD0)

.config_BFC4FFD4
 *(.config_BFC4FFD4)

.config_BFC4FFD8
 *(.config_BFC4FFD8)

.config_BFC4FFDC
 *(.config_BFC4FFDC)

.config_BFC4FFE0
 *(.config_BFC4FFE0)

.config_BFC4FFE4
 *(.config_BFC4FFE4)

.config_BFC4FFE8
 *(.config_BFC4FFE8)

.config_BFC4FFEC
 *(.config_BFC4FFEC)

.config_BFC4FFF0
 *(.config_BFC4FFF0)

.config_BFC4FFF4
 *(.config_BFC4FFF4)

.config_BFC4FFF8
 *(.config_BFC4FFF8)

.config_BFC4FFFC
 *(.config_BFC4FFFC)

.config_BFC54000
 *(.config_BFC54000)

.config_BFC54004
 *(.config_BFC54004)

.config_BFC54008
 *(.config_BFC54008)

.config_BFC5400C
 *(.config_BFC5400C)

.config_BFC54010
 *(.config_BFC54010)

.config_BFC5401C
 *(.config_BFC5401C)

.config_BFC54020
 *(.config_BFC54020)

.config_BFC54024
 *(.config_BFC54024)

.config_BFC6FF40
 *(.config_BFC6FF40)

.config_BFC6FF44
 *(.config_BFC6FF44)

.config_BFC6FF48
 *(.config_BFC6FF48)

.config_BFC6FF4C
 *(.config_BFC6FF4C)

.config_BFC6FF50
 *(.config_BFC6FF50)

.config_BFC6FF54
 *(.config_BFC6FF54)

.config_BFC6FF58
 *(.config_BFC6FF58)

.config_BFC6FF5C
 *(.config_BFC6FF5C)

.config_BFC6FF60
 *(.config_BFC6FF60)

.config_BFC6FF64
 *(.config_BFC6FF64)

.config_BFC6FF68
 *(.config_BFC6FF68)

.config_BFC6FF6C
 *(.config_BFC6FF6C)

.config_BFC6FF70
 *(.config_BFC6FF70)

.config_BFC6FF74
 *(.config_BFC6FF74)

.config_BFC6FF78
 *(.config_BFC6FF78)

.config_BFC6FF7C
 *(.config_BFC6FF7C)

.config_BFC6FFC0
 *(.config_BFC6FFC0)

.config_BFC6FFC4
 *(.config_BFC6FFC4)

.config_BFC6FFC8
 *(.config_BFC6FFC8)

.config_BFC6FFCC
 *(.config_BFC6FFCC)

.config_BFC6FFD0
 *(.config_BFC6FFD0)

.config_BFC6FFD4
 *(.config_BFC6FFD4)

.config_BFC6FFD8
 *(.config_BFC6FFD8)

.config_BFC6FFDC
 *(.config_BFC6FFDC)

.config_BFC6FFE0
 *(.config_BFC6FFE0)

.config_BFC6FFE4
 *(.config_BFC6FFE4)

.config_BFC6FFE8
 *(.config_BFC6FFE8)

.config_BFC6FFEC
 *(.config_BFC6FFEC)

.config_BFC6FFF0
 *(.config_BFC6FFF0)

.config_BFC6FFF4
 *(.config_BFC6FFF4)

.config_BFC6FFF8
 *(.config_BFC6FFF8)

.config_BFC6FFFC
 *(.config_BFC6FFFC)

.reset          0x00000000bfc00000      0x1c4
 *(.reset)
 .reset         0x00000000bfc00000       0x18 C:\Users\HAROLD~1\AppData\Local\Temp\ccKBed8x.o
                0x00000000bfc00000                _reset
 *(.reset.startup)
 .reset.startup
                0x00000000bfc00018      0x1ac C:\Users\HAROLD~1\AppData\Local\Temp\ccKBed8x.o
                0x00000000bfc00018                _startup

.bev_excpt      0x00000000bfc00380       0x10
 *(.bev_handler)
 .bev_handler   0x00000000bfc00380       0x10 C:\Users\HAROLD~1\AppData\Local\Temp\ccKBed8x.o

.cache_init     0x00000000bfc004b0      0x1c0
 *(.cache_init)
 *(.cache_init.*)
 .cache_init.cache
                0x00000000bfc004b0       0xc0 c:/program files/microchip/xc32/v4.00/bin/bin/../../lib/gcc/pic32mx/8.3.1/../../../../pic32mx/lib/fpu64\libpic32.a(pic32_init_cache.o)
 .cache_init.pic32_init_cache
                0x00000000bfc00570      0x100 c:/program files/microchip/xc32/v4.00/bin/bin/../../lib/gcc/pic32mx/8.3.1/../../../../pic32mx/lib/fpu64\libpic32.a(pic32_init_cache.o)
                0x00000000bfc00570                __pic32_init_cache

.simple_tlb_refill_excpt
                0x000000009d000000       0x10
 *(.simple_tlb_refill_vector)
 .simple_tlb_refill_vector
                0x000000009d000000       0x10 C:\Users\HAROLD~1\AppData\Local\Temp\ccKBed8x.o

.cache_err_excpt
                0x000000009d000100       0x10
 *(.cache_err_vector)
 .cache_err_vector
                0x000000009d000100       0x10 C:\Users\HAROLD~1\AppData\Local\Temp\ccKBed8x.o

.app_excpt      0x000000009d000180       0x10
 *(.gen_handler)
 .gen_handler   0x000000009d000180       0x10 C:\Users\HAROLD~1\AppData\Local\Temp\ccKBed8x.o

.vectors        0x000000009d000200       0x68
                0x000000009d000200                . = ALIGN (0x4)
                0x0000000000000220                __vector_offset_0 = DEFINED (__vector_dispatch_0)?(. - _ebase_address):__vector_offset_default
 *(.vector_0)
                0x000000009d000200                . = ALIGN (0x4)
                0x0000000000000220                __vector_offset_1 = DEFINED (__vector_dispatch_1)?(. - _ebase_address):__vector_offset_default
 *(.vector_1)
                0x000000009d000200                . = ALIGN (0x4)
                0x0000000000000220                __vector_offset_2 = DEFINED (__vector_dispatch_2)?(. - _ebase_address):__vector_offset_default
 *(.vector_2)
                0x000000009d000200                . = ALIGN (0x4)
                0x0000000000000220                __vector_offset_3 = DEFINED (__vector_dispatch_3)?(. - _ebase_address):__vector_offset_default
 *(.vector_3)
                0x000000009d000200                . = ALIGN (0x4)
                0x0000000000000220                __vector_offset_4 = DEFINED (__vector_dispatch_4)?(. - _ebase_address):__vector_offset_default
 *(.vector_4)
                0x000000009d000200                . = ALIGN (0x4)
                0x0000000000000220                __vector_offset_5 = DEFINED (__vector_dispatch_5)?(. - _ebase_address):__vector_offset_default
 *(.vector_5)
                0x000000009d000200                . = ALIGN (0x4)
                0x0000000000000220                __vector_offset_6 = DEFINED (__vector_dispatch_6)?(. - _ebase_address):__vector_offset_default
 *(.vector_6)
                0x000000009d000200                . = ALIGN (0x4)
                0x0000000000000220                __vector_offset_7 = DEFINED (__vector_dispatch_7)?(. - _ebase_address):__vector_offset_default
 *(.vector_7)
                0x000000009d000200                . = ALIGN (0x4)
                0x0000000000000220                __vector_offset_8 = DEFINED (__vector_dispatch_8)?(. - _ebase_address):__vector_offset_default
 *(.vector_8)
                0x000000009d000200                . = ALIGN (0x4)
                0x0000000000000200                __vector_offset_9 = DEFINED (__vector_dispatch_9)?(. - _ebase_address):__vector_offset_default
 *(.vector_9)
 .vector_9      0x000000009d000200        0x8 build/DSP_TU/debug/_ext/1044038098/interrupts.o
                0x000000009d000200                __vector_dispatch_9
                0x000000009d000208                . = ALIGN (0x4)
                0x0000000000000220                __vector_offset_10 = DEFINED (__vector_dispatch_10)?(. - _ebase_address):__vector_offset_default
 *(.vector_10)
                0x000000009d000208                . = ALIGN (0x4)
                0x0000000000000220                __vector_offset_11 = DEFINED (__vector_dispatch_11)?(. - _ebase_address):__vector_offset_default
 *(.vector_11)
                0x000000009d000208                . = ALIGN (0x4)
                0x0000000000000220                __vector_offset_12 = DEFINED (__vector_dispatch_12)?(. - _ebase_address):__vector_offset_default
 *(.vector_12)
                0x000000009d000208                . = ALIGN (0x4)
                0x0000000000000220                __vector_offset_13 = DEFINED (__vector_dispatch_13)?(. - _ebase_address):__vector_offset_default
 *(.vector_13)
                0x000000009d000208                . = ALIGN (0x4)
                0x0000000000000220                __vector_offset_14 = DEFINED (__vector_dispatch_14)?(. - _ebase_address):__vector_offset_default
 *(.vector_14)
                0x000000009d000208                . = ALIGN (0x4)
                0x0000000000000220                __vector_offset_15 = DEFINED (__vector_dispatch_15)?(. - _ebase_address):__vector_offset_default
 *(.vector_15)
                0x000000009d000208                . = ALIGN (0x4)
                0x0000000000000220                __vector_offset_16 = DEFINED (__vector_dispatch_16)?(. - _ebase_address):__vector_offset_default
 *(.vector_16)
                0x000000009d000208                . = ALIGN (0x4)
                0x0000000000000220                __vector_offset_17 = DEFINED (__vector_dispatch_17)?(. - _ebase_address):__vector_offset_default
 *(.vector_17)
                0x000000009d000208                . = ALIGN (0x4)
                0x0000000000000220                __vector_offset_18 = DEFINED (__vector_dispatch_18)?(. - _ebase_address):__vector_offset_default
 *(.vector_18)
                0x000000009d000208                . = ALIGN (0x4)
                0x0000000000000220                __vector_offset_19 = DEFINED (__vector_dispatch_19)?(. - _ebase_address):__vector_offset_default
 *(.vector_19)
                0x000000009d000208                . = ALIGN (0x4)
                0x0000000000000220                __vector_offset_20 = DEFINED (__vector_dispatch_20)?(. - _ebase_address):__vector_offset_default
 *(.vector_20)
                0x000000009d000208                . = ALIGN (0x4)
                0x0000000000000220                __vector_offset_21 = DEFINED (__vector_dispatch_21)?(. - _ebase_address):__vector_offset_default
 *(.vector_21)
                0x000000009d000208                . = ALIGN (0x4)
                0x0000000000000220                __vector_offset_22 = DEFINED (__vector_dispatch_22)?(. - _ebase_address):__vector_offset_default
 *(.vector_22)
                0x000000009d000208                . = ALIGN (0x4)
                0x0000000000000220                __vector_offset_23 = DEFINED (__vector_dispatch_23)?(. - _ebase_address):__vector_offset_default
 *(.vector_23)
                0x000000009d000208                . = ALIGN (0x4)
                0x0000000000000220                __vector_offset_24 = DEFINED (__vector_dispatch_24)?(. - _ebase_address):__vector_offset_default
 *(.vector_24)
                0x000000009d000208                . = ALIGN (0x4)
                0x0000000000000220                __vector_offset_25 = DEFINED (__vector_dispatch_25)?(. - _ebase_address):__vector_offset_default
 *(.vector_25)
                0x000000009d000208                . = ALIGN (0x4)
                0x0000000000000220                __vector_offset_26 = DEFINED (__vector_dispatch_26)?(. - _ebase_address):__vector_offset_default
 *(.vector_26)
                0x000000009d000208                . = ALIGN (0x4)
                0x0000000000000220                __vector_offset_27 = DEFINED (__vector_dispatch_27)?(. - _ebase_address):__vector_offset_default
 *(.vector_27)
                0x000000009d000208                . = ALIGN (0x4)
                0x0000000000000220                __vector_offset_28 = DEFINED (__vector_dispatch_28)?(. - _ebase_address):__vector_offset_default
 *(.vector_28)
                0x000000009d000208                . = ALIGN (0x4)
                0x0000000000000220                __vector_offset_29 = DEFINED (__vector_dispatch_29)?(. - _ebase_address):__vector_offset_default
 *(.vector_29)
                0x000000009d000208                . = ALIGN (0x4)
                0x0000000000000220                __vector_offset_30 = DEFINED (__vector_dispatch_30)?(. - _ebase_address):__vector_offset_default
 *(.vector_30)
                0x000000009d000208                . = ALIGN (0x4)
                0x0000000000000220                __vector_offset_31 = DEFINED (__vector_dispatch_31)?(. - _ebase_address):__vector_offset_default
 *(.vector_31)
                0x000000009d000208                . = ALIGN (0x4)
                0x0000000000000220                __vector_offset_32 = DEFINED (__vector_dispatch_32)?(. - _ebase_address):__vector_offset_default
 *(.vector_32)
                0x000000009d000208                . = ALIGN (0x4)
                0x0000000000000220                __vector_offset_33 = DEFINED (__vector_dispatch_33)?(. - _ebase_address):__vector_offset_default
 *(.vector_33)
                0x000000009d000208                . = ALIGN (0x4)
                0x0000000000000220                __vector_offset_34 = DEFINED (__vector_dispatch_34)?(. - _ebase_address):__vector_offset_default
 *(.vector_34)
                0x000000009d000208                . = ALIGN (0x4)
                0x0000000000000220                __vector_offset_35 = DEFINED (__vector_dispatch_35)?(. - _ebase_address):__vector_offset_default
 *(.vector_35)
                0x000000009d000208                . = ALIGN (0x4)
                0x0000000000000220                __vector_offset_36 = DEFINED (__vector_dispatch_36)?(. - _ebase_address):__vector_offset_default
 *(.vector_36)
                0x000000009d000208                . = ALIGN (0x4)
                0x0000000000000220                __vector_offset_37 = DEFINED (__vector_dispatch_37)?(. - _ebase_address):__vector_offset_default
 *(.vector_37)
                0x000000009d000208                . = ALIGN (0x4)
                0x0000000000000220                __vector_offset_38 = DEFINED (__vector_dispatch_38)?(. - _ebase_address):__vector_offset_default
 *(.vector_38)
                0x000000009d000208                . = ALIGN (0x4)
                0x0000000000000220                __vector_offset_39 = DEFINED (__vector_dispatch_39)?(. - _ebase_address):__vector_offset_default
 *(.vector_39)
                0x000000009d000208                . = ALIGN (0x4)
                0x0000000000000220                __vector_offset_40 = DEFINED (__vector_dispatch_40)?(. - _ebase_address):__vector_offset_default
 *(.vector_40)
                0x000000009d000208                . = ALIGN (0x4)
                0x0000000000000220                __vector_offset_41 = DEFINED (__vector_dispatch_41)?(. - _ebase_address):__vector_offset_default
 *(.vector_41)
                0x000000009d000208                . = ALIGN (0x4)
                0x0000000000000220                __vector_offset_42 = DEFINED (__vector_dispatch_42)?(. - _ebase_address):__vector_offset_default
 *(.vector_42)
                0x000000009d000208                . = ALIGN (0x4)
                0x0000000000000220                __vector_offset_43 = DEFINED (__vector_dispatch_43)?(. - _ebase_address):__vector_offset_default
 *(.vector_43)
                0x000000009d000208                . = ALIGN (0x4)
                0x0000000000000220                __vector_offset_44 = DEFINED (__vector_dispatch_44)?(. - _ebase_address):__vector_offset_default
 *(.vector_44)
                0x000000009d000208                . = ALIGN (0x4)
                0x0000000000000220                __vector_offset_45 = DEFINED (__vector_dispatch_45)?(. - _ebase_address):__vector_offset_default
 *(.vector_45)
                0x000000009d000208                . = ALIGN (0x4)
                0x0000000000000220                __vector_offset_46 = DEFINED (__vector_dispatch_46)?(. - _ebase_address):__vector_offset_default
 *(.vector_46)
                0x000000009d000208                . = ALIGN (0x4)
                0x0000000000000220                __vector_offset_47 = DEFINED (__vector_dispatch_47)?(. - _ebase_address):__vector_offset_default
 *(.vector_47)
                0x000000009d000208                . = ALIGN (0x4)
                0x0000000000000220                __vector_offset_48 = DEFINED (__vector_dispatch_48)?(. - _ebase_address):__vector_offset_default
 *(.vector_48)
                0x000000009d000208                . = ALIGN (0x4)
                0x0000000000000220                __vector_offset_49 = DEFINED (__vector_dispatch_49)?(. - _ebase_address):__vector_offset_default
 *(.vector_49)
                0x000000009d000208                . = ALIGN (0x4)
                0x0000000000000220                __vector_offset_50 = DEFINED (__vector_dispatch_50)?(. - _ebase_address):__vector_offset_default
 *(.vector_50)
                0x000000009d000208                . = ALIGN (0x4)
                0x0000000000000220                __vector_offset_51 = DEFINED (__vector_dispatch_51)?(. - _ebase_address):__vector_offset_default
 *(.vector_51)
                0x000000009d000208                . = ALIGN (0x4)
                0x0000000000000220                __vector_offset_52 = DEFINED (__vector_dispatch_52)?(. - _ebase_address):__vector_offset_default
 *(.vector_52)
                0x000000009d000208                . = ALIGN (0x4)
                0x0000000000000220                __vector_offset_53 = DEFINED (__vector_dispatch_53)?(. - _ebase_address):__vector_offset_default
 *(.vector_53)
                0x000000009d000208                . = ALIGN (0x4)
                0x0000000000000220                __vector_offset_54 = DEFINED (__vector_dispatch_54)?(. - _ebase_address):__vector_offset_default
 *(.vector_54)
                0x000000009d000208                . = ALIGN (0x4)
                0x0000000000000220                __vector_offset_55 = DEFINED (__vector_dispatch_55)?(. - _ebase_address):__vector_offset_default
 *(.vector_55)
                0x000000009d000208                . = ALIGN (0x4)
                0x0000000000000220                __vector_offset_56 = DEFINED (__vector_dispatch_56)?(. - _ebase_address):__vector_offset_default
 *(.vector_56)
                0x000000009d000208                . = ALIGN (0x4)
                0x0000000000000220                __vector_offset_57 = DEFINED (__vector_dispatch_57)?(. - _ebase_address):__vector_offset_default
 *(.vector_57)
                0x000000009d000208                . = ALIGN (0x4)
                0x0000000000000220                __vector_offset_58 = DEFINED (__vector_dispatch_58)?(. - _ebase_address):__vector_offset_default
 *(.vector_58)
                0x000000009d000208                . = ALIGN (0x4)
                0x0000000000000220                __vector_offset_59 = DEFINED (__vector_dispatch_59)?(. - _ebase_address):__vector_offset_default
 *(.vector_59)
                0x000000009d000208                . = ALIGN (0x4)
                0x0000000000000220                __vector_offset_60 = DEFINED (__vector_dispatch_60)?(. - _ebase_address):__vector_offset_default
 *(.vector_60)
                0x000000009d000208                . = ALIGN (0x4)
                0x0000000000000220                __vector_offset_61 = DEFINED (__vector_dispatch_61)?(. - _ebase_address):__vector_offset_default
 *(.vector_61)
                0x000000009d000208                . = ALIGN (0x4)
                0x0000000000000220                __vector_offset_62 = DEFINED (__vector_dispatch_62)?(. - _ebase_address):__vector_offset_default
 *(.vector_62)
                0x000000009d000208                . = ALIGN (0x4)
                0x0000000000000220                __vector_offset_63 = DEFINED (__vector_dispatch_63)?(. - _ebase_address):__vector_offset_default
 *(.vector_63)
                0x000000009d000208                . = ALIGN (0x4)
                0x0000000000000220                __vector_offset_64 = DEFINED (__vector_dispatch_64)?(. - _ebase_address):__vector_offset_default
 *(.vector_64)
                0x000000009d000208                . = ALIGN (0x4)
                0x0000000000000220                __vector_offset_65 = DEFINED (__vector_dispatch_65)?(. - _ebase_address):__vector_offset_default
 *(.vector_65)
                0x000000009d000208                . = ALIGN (0x4)
                0x0000000000000220                __vector_offset_66 = DEFINED (__vector_dispatch_66)?(. - _ebase_address):__vector_offset_default
 *(.vector_66)
                0x000000009d000208                . = ALIGN (0x4)
                0x0000000000000220                __vector_offset_67 = DEFINED (__vector_dispatch_67)?(. - _ebase_address):__vector_offset_default
 *(.vector_67)
                0x000000009d000208                . = ALIGN (0x4)
                0x0000000000000220                __vector_offset_68 = DEFINED (__vector_dispatch_68)?(. - _ebase_address):__vector_offset_default
 *(.vector_68)
                0x000000009d000208                . = ALIGN (0x4)
                0x0000000000000220                __vector_offset_69 = DEFINED (__vector_dispatch_69)?(. - _ebase_address):__vector_offset_default
 *(.vector_69)
                0x000000009d000208                . = ALIGN (0x4)
                0x0000000000000220                __vector_offset_70 = DEFINED (__vector_dispatch_70)?(. - _ebase_address):__vector_offset_default
 *(.vector_70)
                0x000000009d000208                . = ALIGN (0x4)
                0x0000000000000220                __vector_offset_71 = DEFINED (__vector_dispatch_71)?(. - _ebase_address):__vector_offset_default
 *(.vector_71)
                0x000000009d000208                . = ALIGN (0x4)
                0x0000000000000220                __vector_offset_72 = DEFINED (__vector_dispatch_72)?(. - _ebase_address):__vector_offset_default
 *(.vector_72)
                0x000000009d000208                . = ALIGN (0x4)
                0x0000000000000220                __vector_offset_73 = DEFINED (__vector_dispatch_73)?(. - _ebase_address):__vector_offset_default
 *(.vector_73)
                0x000000009d000208                . = ALIGN (0x4)
                0x0000000000000220                __vector_offset_74 = DEFINED (__vector_dispatch_74)?(. - _ebase_address):__vector_offset_default
 *(.vector_74)
                0x000000009d000208                . = ALIGN (0x4)
                0x0000000000000220                __vector_offset_75 = DEFINED (__vector_dispatch_75)?(. - _ebase_address):__vector_offset_default
 *(.vector_75)
                0x000000009d000208                . = ALIGN (0x4)
                0x0000000000000220                __vector_offset_76 = DEFINED (__vector_dispatch_76)?(. - _ebase_address):__vector_offset_default
 *(.vector_76)
                0x000000009d000208                . = ALIGN (0x4)
                0x0000000000000220                __vector_offset_77 = DEFINED (__vector_dispatch_77)?(. - _ebase_address):__vector_offset_default
 *(.vector_77)
                0x000000009d000208                . = ALIGN (0x4)
                0x0000000000000220                __vector_offset_78 = DEFINED (__vector_dispatch_78)?(. - _ebase_address):__vector_offset_default
 *(.vector_78)
                0x000000009d000208                . = ALIGN (0x4)
                0x0000000000000220                __vector_offset_79 = DEFINED (__vector_dispatch_79)?(. - _ebase_address):__vector_offset_default
 *(.vector_79)
                0x000000009d000208                . = ALIGN (0x4)
                0x0000000000000220                __vector_offset_80 = DEFINED (__vector_dispatch_80)?(. - _ebase_address):__vector_offset_default
 *(.vector_80)
                0x000000009d000208                . = ALIGN (0x4)
                0x0000000000000220                __vector_offset_81 = DEFINED (__vector_dispatch_81)?(. - _ebase_address):__vector_offset_default
 *(.vector_81)
                0x000000009d000208                . = ALIGN (0x4)
                0x0000000000000220                __vector_offset_82 = DEFINED (__vector_dispatch_82)?(. - _ebase_address):__vector_offset_default
 *(.vector_82)
                0x000000009d000208                . = ALIGN (0x4)
                0x0000000000000220                __vector_offset_83 = DEFINED (__vector_dispatch_83)?(. - _ebase_address):__vector_offset_default
 *(.vector_83)
                0x000000009d000208                . = ALIGN (0x4)
                0x0000000000000220                __vector_offset_84 = DEFINED (__vector_dispatch_84)?(. - _ebase_address):__vector_offset_default
 *(.vector_84)
                0x000000009d000208                . = ALIGN (0x4)
                0x0000000000000220                __vector_offset_85 = DEFINED (__vector_dispatch_85)?(. - _ebase_address):__vector_offset_default
 *(.vector_85)
                0x000000009d000208                . = ALIGN (0x4)
                0x0000000000000220                __vector_offset_86 = DEFINED (__vector_dispatch_86)?(. - _ebase_address):__vector_offset_default
 *(.vector_86)
                0x000000009d000208                . = ALIGN (0x4)
                0x0000000000000220                __vector_offset_87 = DEFINED (__vector_dispatch_87)?(. - _ebase_address):__vector_offset_default
 *(.vector_87)
                0x000000009d000208                . = ALIGN (0x4)
                0x0000000000000220                __vector_offset_88 = DEFINED (__vector_dispatch_88)?(. - _ebase_address):__vector_offset_default
 *(.vector_88)
                0x000000009d000208                . = ALIGN (0x4)
                0x0000000000000220                __vector_offset_89 = DEFINED (__vector_dispatch_89)?(. - _ebase_address):__vector_offset_default
 *(.vector_89)
                0x000000009d000208                . = ALIGN (0x4)
                0x0000000000000220                __vector_offset_90 = DEFINED (__vector_dispatch_90)?(. - _ebase_address):__vector_offset_default
 *(.vector_90)
                0x000000009d000208                . = ALIGN (0x4)
                0x0000000000000220                __vector_offset_91 = DEFINED (__vector_dispatch_91)?(. - _ebase_address):__vector_offset_default
 *(.vector_91)
                0x000000009d000208                . = ALIGN (0x4)
                0x0000000000000220                __vector_offset_92 = DEFINED (__vector_dispatch_92)?(. - _ebase_address):__vector_offset_default
 *(.vector_92)
                0x000000009d000208                . = ALIGN (0x4)
                0x0000000000000220                __vector_offset_93 = DEFINED (__vector_dispatch_93)?(. - _ebase_address):__vector_offset_default
 *(.vector_93)
                0x000000009d000208                . = ALIGN (0x4)
                0x0000000000000220                __vector_offset_94 = DEFINED (__vector_dispatch_94)?(. - _ebase_address):__vector_offset_default
 *(.vector_94)
                0x000000009d000208                . = ALIGN (0x4)
                0x0000000000000220                __vector_offset_95 = DEFINED (__vector_dispatch_95)?(. - _ebase_address):__vector_offset_default
 *(.vector_95)
                0x000000009d000208                . = ALIGN (0x4)
                0x0000000000000220                __vector_offset_96 = DEFINED (__vector_dispatch_96)?(. - _ebase_address):__vector_offset_default
 *(.vector_96)
                0x000000009d000208                . = ALIGN (0x4)
                0x0000000000000220                __vector_offset_97 = DEFINED (__vector_dispatch_97)?(. - _ebase_address):__vector_offset_default
 *(.vector_97)
                0x000000009d000208                . = ALIGN (0x4)
                0x0000000000000220                __vector_offset_98 = DEFINED (__vector_dispatch_98)?(. - _ebase_address):__vector_offset_default
 *(.vector_98)
                0x000000009d000208                . = ALIGN (0x4)
                0x0000000000000220                __vector_offset_99 = DEFINED (__vector_dispatch_99)?(. - _ebase_address):__vector_offset_default
 *(.vector_99)
                0x000000009d000208                . = ALIGN (0x4)
                0x0000000000000220                __vector_offset_100 = DEFINED (__vector_dispatch_100)?(. - _ebase_address):__vector_offset_default
 *(.vector_100)
                0x000000009d000208                . = ALIGN (0x4)
                0x0000000000000220                __vector_offset_101 = DEFINED (__vector_dispatch_101)?(. - _ebase_address):__vector_offset_default
 *(.vector_101)
                0x000000009d000208                . = ALIGN (0x4)
                0x0000000000000220                __vector_offset_102 = DEFINED (__vector_dispatch_102)?(. - _ebase_address):__vector_offset_default
 *(.vector_102)
                0x000000009d000208                . = ALIGN (0x4)
                0x0000000000000220                __vector_offset_103 = DEFINED (__vector_dispatch_103)?(. - _ebase_address):__vector_offset_default
 *(.vector_103)
                0x000000009d000208                . = ALIGN (0x4)
                0x0000000000000220                __vector_offset_104 = DEFINED (__vector_dispatch_104)?(. - _ebase_address):__vector_offset_default
 *(.vector_104)
                0x000000009d000208                . = ALIGN (0x4)
                0x0000000000000220                __vector_offset_105 = DEFINED (__vector_dispatch_105)?(. - _ebase_address):__vector_offset_default
 *(.vector_105)
                0x000000009d000208                . = ALIGN (0x4)
                0x0000000000000220                __vector_offset_106 = DEFINED (__vector_dispatch_106)?(. - _ebase_address):__vector_offset_default
 *(.vector_106)
                0x000000009d000208                . = ALIGN (0x4)
                0x0000000000000220                __vector_offset_107 = DEFINED (__vector_dispatch_107)?(. - _ebase_address):__vector_offset_default
 *(.vector_107)
                0x000000009d000208                . = ALIGN (0x4)
                0x0000000000000220                __vector_offset_108 = DEFINED (__vector_dispatch_108)?(. - _ebase_address):__vector_offset_default
 *(.vector_108)
                0x000000009d000208                . = ALIGN (0x4)
                0x0000000000000220                __vector_offset_109 = DEFINED (__vector_dispatch_109)?(. - _ebase_address):__vector_offset_default
 *(.vector_109)
                0x000000009d000208                . = ALIGN (0x4)
                0x0000000000000220                __vector_offset_110 = DEFINED (__vector_dispatch_110)?(. - _ebase_address):__vector_offset_default
 *(.vector_110)
                0x000000009d000208                . = ALIGN (0x4)
                0x0000000000000220                __vector_offset_111 = DEFINED (__vector_dispatch_111)?(. - _ebase_address):__vector_offset_default
 *(.vector_111)
                0x000000009d000208                . = ALIGN (0x4)
                0x0000000000000220                __vector_offset_112 = DEFINED (__vector_dispatch_112)?(. - _ebase_address):__vector_offset_default
 *(.vector_112)
                0x000000009d000208                . = ALIGN (0x4)
                0x0000000000000220                __vector_offset_113 = DEFINED (__vector_dispatch_113)?(. - _ebase_address):__vector_offset_default
 *(.vector_113)
                0x000000009d000208                . = ALIGN (0x4)
                0x0000000000000220                __vector_offset_114 = DEFINED (__vector_dispatch_114)?(. - _ebase_address):__vector_offset_default
 *(.vector_114)
                0x000000009d000208                . = ALIGN (0x4)
                0x0000000000000220                __vector_offset_115 = DEFINED (__vector_dispatch_115)?(. - _ebase_address):__vector_offset_default
 *(.vector_115)
                0x000000009d000208                . = ALIGN (0x4)
                0x0000000000000220                __vector_offset_116 = DEFINED (__vector_dispatch_116)?(. - _ebase_address):__vector_offset_default
 *(.vector_116)
                0x000000009d000208                . = ALIGN (0x4)
                0x0000000000000220                __vector_offset_117 = DEFINED (__vector_dispatch_117)?(. - _ebase_address):__vector_offset_default
 *(.vector_117)
                0x000000009d000208                . = ALIGN (0x4)
                0x0000000000000220                __vector_offset_118 = DEFINED (__vector_dispatch_118)?(. - _ebase_address):__vector_offset_default
 *(.vector_118)
                0x000000009d000208                . = ALIGN (0x4)
                0x0000000000000220                __vector_offset_119 = DEFINED (__vector_dispatch_119)?(. - _ebase_address):__vector_offset_default
 *(.vector_119)
                0x000000009d000208                . = ALIGN (0x4)
                0x0000000000000220                __vector_offset_120 = DEFINED (__vector_dispatch_120)?(. - _ebase_address):__vector_offset_default
 *(.vector_120)
                0x000000009d000208                . = ALIGN (0x4)
                0x0000000000000220                __vector_offset_121 = DEFINED (__vector_dispatch_121)?(. - _ebase_address):__vector_offset_default
 *(.vector_121)
                0x000000009d000208                . = ALIGN (0x4)
                0x0000000000000220                __vector_offset_122 = DEFINED (__vector_dispatch_122)?(. - _ebase_address):__vector_offset_default
 *(.vector_122)
                0x000000009d000208                . = ALIGN (0x4)
                0x0000000000000220                __vector_offset_123 = DEFINED (__vector_dispatch_123)?(. - _ebase_address):__vector_offset_default
 *(.vector_123)
                0x000000009d000208                . = ALIGN (0x4)
                0x0000000000000220                __vector_offset_124 = DEFINED (__vector_dispatch_124)?(. - _ebase_address):__vector_offset_default
 *(.vector_124)
                0x000000009d000208                . = ALIGN (0x4)
                0x0000000000000220                __vector_offset_125 = DEFINED (__vector_dispatch_125)?(. - _ebase_address):__vector_offset_default
 *(.vector_125)
                0x000000009d000208                . = ALIGN (0x4)
                0x0000000000000220                __vector_offset_126 = DEFINED (__vector_dispatch_126)?(. - _ebase_address):__vector_offset_default
 *(.vector_126)
                0x000000009d000208                . = ALIGN (0x4)
                0x0000000000000220                __vector_offset_127 = DEFINED (__vector_dispatch_127)?(. - _ebase_address):__vector_offset_default
 *(.vector_127)
                0x000000009d000208                . = ALIGN (0x4)
                0x0000000000000220                __vector_offset_128 = DEFINED (__vector_dispatch_128)?(. - _ebase_address):__vector_offset_default
 *(.vector_128)
                0x000000009d000208                . = ALIGN (0x4)
                0x0000000000000220                __vector_offset_129 = DEFINED (__vector_dispatch_129)?(. - _ebase_address):__vector_offset_default
 *(.vector_129)
                0x000000009d000208                . = ALIGN (0x4)
                0x0000000000000220                __vector_offset_130 = DEFINED (__vector_dispatch_130)?(. - _ebase_address):__vector_offset_default
 *(.vector_130)
                0x000000009d000208                . = ALIGN (0x4)
                0x0000000000000220                __vector_offset_131 = DEFINED (__vector_dispatch_131)?(. - _ebase_address):__vector_offset_default
 *(.vector_131)
                0x000000009d000208                . = ALIGN (0x4)
                0x0000000000000220                __vector_offset_132 = DEFINED (__vector_dispatch_132)?(. - _ebase_address):__vector_offset_default
 *(.vector_132)
                0x000000009d000208                . = ALIGN (0x4)
                0x0000000000000220                __vector_offset_133 = DEFINED (__vector_dispatch_133)?(. - _ebase_address):__vector_offset_default
 *(.vector_133)
                0x000000009d000208                . = ALIGN (0x4)
                0x0000000000000220                __vector_offset_134 = DEFINED (__vector_dispatch_134)?(. - _ebase_address):__vector_offset_default
 *(.vector_134)
                0x000000009d000208                . = ALIGN (0x4)
                0x0000000000000220                __vector_offset_135 = DEFINED (__vector_dispatch_135)?(. - _ebase_address):__vector_offset_default
 *(.vector_135)
                0x000000009d000208                . = ALIGN (0x4)
                0x0000000000000220                __vector_offset_136 = DEFINED (__vector_dispatch_136)?(. - _ebase_address):__vector_offset_default
 *(.vector_136)
                0x000000009d000208                . = ALIGN (0x4)
                0x0000000000000220                __vector_offset_137 = DEFINED (__vector_dispatch_137)?(. - _ebase_address):__vector_offset_default
 *(.vector_137)
                0x000000009d000208                . = ALIGN (0x4)
                0x0000000000000220                __vector_offset_138 = DEFINED (__vector_dispatch_138)?(. - _ebase_address):__vector_offset_default
 *(.vector_138)
                0x000000009d000208                . = ALIGN (0x4)
                0x0000000000000220                __vector_offset_139 = DEFINED (__vector_dispatch_139)?(. - _ebase_address):__vector_offset_default
 *(.vector_139)
                0x000000009d000208                . = ALIGN (0x4)
                0x0000000000000220                __vector_offset_140 = DEFINED (__vector_dispatch_140)?(. - _ebase_address):__vector_offset_default
 *(.vector_140)
                0x000000009d000208                . = ALIGN (0x4)
                0x0000000000000220                __vector_offset_141 = DEFINED (__vector_dispatch_141)?(. - _ebase_address):__vector_offset_default
 *(.vector_141)
                0x000000009d000208                . = ALIGN (0x4)
                0x0000000000000220                __vector_offset_142 = DEFINED (__vector_dispatch_142)?(. - _ebase_address):__vector_offset_default
 *(.vector_142)
                0x000000009d000208                . = ALIGN (0x4)
                0x0000000000000220                __vector_offset_143 = DEFINED (__vector_dispatch_143)?(. - _ebase_address):__vector_offset_default
 *(.vector_143)
                0x000000009d000208                . = ALIGN (0x4)
                0x0000000000000220                __vector_offset_144 = DEFINED (__vector_dispatch_144)?(. - _ebase_address):__vector_offset_default
 *(.vector_144)
                0x000000009d000208                . = ALIGN (0x4)
                0x0000000000000208                __vector_offset_145 = DEFINED (__vector_dispatch_145)?(. - _ebase_address):__vector_offset_default
 *(.vector_145)
 .vector_145    0x000000009d000208        0x8 build/DSP_TU/debug/_ext/1044038098/interrupts.o
                0x000000009d000208                __vector_dispatch_145
                0x000000009d000210                . = ALIGN (0x4)
                0x0000000000000210                __vector_offset_146 = DEFINED (__vector_dispatch_146)?(. - _ebase_address):__vector_offset_default
 *(.vector_146)
 .vector_146    0x000000009d000210        0x8 build/DSP_TU/debug/_ext/1044038098/interrupts.o
                0x000000009d000210                __vector_dispatch_146
                0x000000009d000218                . = ALIGN (0x4)
                0x0000000000000218                __vector_offset_147 = DEFINED (__vector_dispatch_147)?(. - _ebase_address):__vector_offset_default
 *(.vector_147)
 .vector_147    0x000000009d000218        0x8 build/DSP_TU/debug/_ext/1044038098/interrupts.o
                0x000000009d000218                __vector_dispatch_147
                0x000000009d000220                . = ALIGN (0x4)
                0x0000000000000220                __vector_offset_148 = DEFINED (__vector_dispatch_148)?(. - _ebase_address):__vector_offset_default
 *(.vector_148)
                0x000000009d000220                . = ALIGN (0x4)
                0x0000000000000220                __vector_offset_149 = DEFINED (__vector_dispatch_149)?(. - _ebase_address):__vector_offset_default
 *(.vector_149)
                0x000000009d000220                . = ALIGN (0x4)
                0x0000000000000220                __vector_offset_150 = DEFINED (__vector_dispatch_150)?(. - _ebase_address):__vector_offset_default
 *(.vector_150)
                0x000000009d000220                . = ALIGN (0x4)
                0x0000000000000220                __vector_offset_151 = DEFINED (__vector_dispatch_151)?(. - _ebase_address):__vector_offset_default
 *(.vector_151)
                0x000000009d000220                . = ALIGN (0x4)
                0x0000000000000220                __vector_offset_152 = DEFINED (__vector_dispatch_152)?(. - _ebase_address):__vector_offset_default
 *(.vector_152)
                0x000000009d000220                . = ALIGN (0x4)
                0x0000000000000220                __vector_offset_153 = DEFINED (__vector_dispatch_153)?(. - _ebase_address):__vector_offset_default
 *(.vector_153)
                0x000000009d000220                . = ALIGN (0x4)
                0x0000000000000220                __vector_offset_154 = DEFINED (__vector_dispatch_154)?(. - _ebase_address):__vector_offset_default
 *(.vector_154)
                0x000000009d000220                . = ALIGN (0x4)
                0x0000000000000220                __vector_offset_155 = DEFINED (__vector_dispatch_155)?(. - _ebase_address):__vector_offset_default
 *(.vector_155)
                0x000000009d000220                . = ALIGN (0x4)
                0x0000000000000220                __vector_offset_156 = DEFINED (__vector_dispatch_156)?(. - _ebase_address):__vector_offset_default
 *(.vector_156)
                0x000000009d000220                . = ALIGN (0x4)
                0x0000000000000220                __vector_offset_157 = DEFINED (__vector_dispatch_157)?(. - _ebase_address):__vector_offset_default
 *(.vector_157)
                0x000000009d000220                . = ALIGN (0x4)
                0x0000000000000220                __vector_offset_158 = DEFINED (__vector_dispatch_158)?(. - _ebase_address):__vector_offset_default
 *(.vector_158)
                0x000000009d000220                . = ALIGN (0x4)
                0x0000000000000220                __vector_offset_159 = DEFINED (__vector_dispatch_159)?(. - _ebase_address):__vector_offset_default
 *(.vector_159)
                0x000000009d000220                . = ALIGN (0x4)
                0x0000000000000220                __vector_offset_160 = DEFINED (__vector_dispatch_160)?(. - _ebase_address):__vector_offset_default
 *(.vector_160)
                0x000000009d000220                . = ALIGN (0x4)
                0x0000000000000220                __vector_offset_161 = DEFINED (__vector_dispatch_161)?(. - _ebase_address):__vector_offset_default
 *(.vector_161)
                0x000000009d000220                . = ALIGN (0x4)
                0x0000000000000220                __vector_offset_162 = DEFINED (__vector_dispatch_162)?(. - _ebase_address):__vector_offset_default
 *(.vector_162)
                0x000000009d000220                . = ALIGN (0x4)
                0x0000000000000220                __vector_offset_163 = DEFINED (__vector_dispatch_163)?(. - _ebase_address):__vector_offset_default
 *(.vector_163)
                0x000000009d000220                . = ALIGN (0x4)
                0x0000000000000220                __vector_offset_164 = DEFINED (__vector_dispatch_164)?(. - _ebase_address):__vector_offset_default
 *(.vector_164)
                0x000000009d000220                . = ALIGN (0x4)
                0x0000000000000220                __vector_offset_165 = DEFINED (__vector_dispatch_165)?(. - _ebase_address):__vector_offset_default
 *(.vector_165)
                0x000000009d000220                . = ALIGN (0x4)
                0x0000000000000220                __vector_offset_166 = DEFINED (__vector_dispatch_166)?(. - _ebase_address):__vector_offset_default
 *(.vector_166)
                0x000000009d000220                . = ALIGN (0x4)
                0x0000000000000220                __vector_offset_167 = DEFINED (__vector_dispatch_167)?(. - _ebase_address):__vector_offset_default
 *(.vector_167)
                0x000000009d000220                . = ALIGN (0x4)
                0x0000000000000220                __vector_offset_168 = DEFINED (__vector_dispatch_168)?(. - _ebase_address):__vector_offset_default
 *(.vector_168)
                0x000000009d000220                . = ALIGN (0x4)
                0x0000000000000220                __vector_offset_169 = DEFINED (__vector_dispatch_169)?(. - _ebase_address):__vector_offset_default
 *(.vector_169)
                0x000000009d000220                . = ALIGN (0x4)
                0x0000000000000220                __vector_offset_170 = DEFINED (__vector_dispatch_170)?(. - _ebase_address):__vector_offset_default
 *(.vector_170)
                0x000000009d000220                . = ALIGN (0x4)
                0x0000000000000220                __vector_offset_171 = DEFINED (__vector_dispatch_171)?(. - _ebase_address):__vector_offset_default
 *(.vector_171)
                0x000000009d000220                . = ALIGN (0x4)
                0x0000000000000220                __vector_offset_172 = DEFINED (__vector_dispatch_172)?(. - _ebase_address):__vector_offset_default
 *(.vector_172)
                0x000000009d000220                . = ALIGN (0x4)
                0x0000000000000220                __vector_offset_173 = DEFINED (__vector_dispatch_173)?(. - _ebase_address):__vector_offset_default
 *(.vector_173)
                0x000000009d000220                . = ALIGN (0x4)
                0x0000000000000220                __vector_offset_174 = DEFINED (__vector_dispatch_174)?(. - _ebase_address):__vector_offset_default
 *(.vector_174)
                0x000000009d000220                . = ALIGN (0x4)
                0x0000000000000220                __vector_offset_175 = DEFINED (__vector_dispatch_175)?(. - _ebase_address):__vector_offset_default
 *(.vector_175)
                0x000000009d000220                . = ALIGN (0x4)
                0x0000000000000220                __vector_offset_176 = DEFINED (__vector_dispatch_176)?(. - _ebase_address):__vector_offset_default
 *(.vector_176)
                0x000000009d000220                . = ALIGN (0x4)
                0x0000000000000220                __vector_offset_177 = DEFINED (__vector_dispatch_177)?(. - _ebase_address):__vector_offset_default
 *(.vector_177)
                0x000000009d000220                . = ALIGN (0x4)
                0x0000000000000220                __vector_offset_178 = DEFINED (__vector_dispatch_178)?(. - _ebase_address):__vector_offset_default
 *(.vector_178)
                0x000000009d000220                . = ALIGN (0x4)
                0x0000000000000220                __vector_offset_179 = DEFINED (__vector_dispatch_179)?(. - _ebase_address):__vector_offset_default
 *(.vector_179)
                0x000000009d000220                . = ALIGN (0x4)
                0x0000000000000220                __vector_offset_180 = DEFINED (__vector_dispatch_180)?(. - _ebase_address):__vector_offset_default
 *(.vector_180)
                0x000000009d000220                . = ALIGN (0x4)
                0x0000000000000220                __vector_offset_181 = DEFINED (__vector_dispatch_181)?(. - _ebase_address):__vector_offset_default
 *(.vector_181)
                0x000000009d000220                . = ALIGN (0x4)
                0x0000000000000220                __vector_offset_182 = DEFINED (__vector_dispatch_182)?(. - _ebase_address):__vector_offset_default
 *(.vector_182)
                0x000000009d000220                . = ALIGN (0x4)
                0x0000000000000220                __vector_offset_183 = DEFINED (__vector_dispatch_183)?(. - _ebase_address):__vector_offset_default
 *(.vector_183)
                0x000000009d000220                . = ALIGN (0x4)
                0x0000000000000220                __vector_offset_184 = DEFINED (__vector_dispatch_184)?(. - _ebase_address):__vector_offset_default
 *(.vector_184)
                0x000000009d000220                . = ALIGN (0x4)
                0x0000000000000220                __vector_offset_185 = DEFINED (__vector_dispatch_185)?(. - _ebase_address):__vector_offset_default
 *(.vector_185)
                0x000000009d000220                . = ALIGN (0x4)
                0x0000000000000220                __vector_offset_186 = DEFINED (__vector_dispatch_186)?(. - _ebase_address):__vector_offset_default
 *(.vector_186)
                0x000000009d000220                . = ALIGN (0x4)
                0x0000000000000220                __vector_offset_187 = DEFINED (__vector_dispatch_187)?(. - _ebase_address):__vector_offset_default
 *(.vector_187)
                0x000000009d000220                . = ALIGN (0x4)
                0x0000000000000220                __vector_offset_188 = DEFINED (__vector_dispatch_188)?(. - _ebase_address):__vector_offset_default
 *(.vector_188)
                0x000000009d000220                . = ALIGN (0x4)
                0x0000000000000220                __vector_offset_189 = DEFINED (__vector_dispatch_189)?(. - _ebase_address):__vector_offset_default
 *(.vector_189)
                0x000000009d000220                . = ALIGN (0x4)
                0x0000000000000220                __vector_offset_190 = DEFINED (__vector_dispatch_190)?(. - _ebase_address):__vector_offset_default
 *(.vector_190)
                0x000000009d000220                . = ALIGN (0x4)
                0x0000000000000220                __vector_offset_191 = DEFINED (__vector_dispatch_191)?(. - _ebase_address):__vector_offset_default
 *(.vector_191)
                0x000000009d000220                . = ALIGN (0x4)
                0x0000000000000220                __vector_offset_192 = DEFINED (__vector_dispatch_192)?(. - _ebase_address):__vector_offset_default
 *(.vector_192)
                0x000000009d000220                . = ALIGN (0x4)
                0x0000000000000220                __vector_offset_193 = DEFINED (__vector_dispatch_193)?(. - _ebase_address):__vector_offset_default
 *(.vector_193)
                0x000000009d000220                . = ALIGN (0x4)
                0x0000000000000220                __vector_offset_194 = DEFINED (__vector_dispatch_194)?(. - _ebase_address):__vector_offset_default
 *(.vector_194)
                0x000000009d000220                . = ALIGN (0x4)
                0x0000000000000220                __vector_offset_195 = DEFINED (__vector_dispatch_195)?(. - _ebase_address):__vector_offset_default
 *(.vector_195)
                0x000000009d000220                . = ALIGN (0x4)
                0x0000000000000220                __vector_offset_196 = DEFINED (__vector_dispatch_196)?(. - _ebase_address):__vector_offset_default
 *(.vector_196)
                0x000000009d000220                . = ALIGN (0x4)
                0x0000000000000220                __vector_offset_197 = DEFINED (__vector_dispatch_197)?(. - _ebase_address):__vector_offset_default
 *(.vector_197)
                0x000000009d000220                . = ALIGN (0x4)
                0x0000000000000220                __vector_offset_198 = DEFINED (__vector_dispatch_198)?(. - _ebase_address):__vector_offset_default
 *(.vector_198)
                0x000000009d000220                . = ALIGN (0x4)
                0x0000000000000220                __vector_offset_199 = DEFINED (__vector_dispatch_199)?(. - _ebase_address):__vector_offset_default
 *(.vector_199)
                0x000000009d000220                . = ALIGN (0x4)
                0x0000000000000220                __vector_offset_200 = DEFINED (__vector_dispatch_200)?(. - _ebase_address):__vector_offset_default
 *(.vector_200)
                0x000000009d000220                . = ALIGN (0x4)
                0x0000000000000220                __vector_offset_201 = DEFINED (__vector_dispatch_201)?(. - _ebase_address):__vector_offset_default
 *(.vector_201)
                0x000000009d000220                . = ALIGN (0x4)
                0x0000000000000220                __vector_offset_202 = DEFINED (__vector_dispatch_202)?(. - _ebase_address):__vector_offset_default
 *(.vector_202)
                0x000000009d000220                . = ALIGN (0x4)
                0x0000000000000220                __vector_offset_203 = DEFINED (__vector_dispatch_203)?(. - _ebase_address):__vector_offset_default
 *(.vector_203)
                0x000000009d000220                . = ALIGN (0x4)
                0x0000000000000220                __vector_offset_204 = DEFINED (__vector_dispatch_204)?(. - _ebase_address):__vector_offset_default
 *(.vector_204)
                0x000000009d000220                . = ALIGN (0x4)
                0x0000000000000220                __vector_offset_205 = DEFINED (__vector_dispatch_205)?(. - _ebase_address):__vector_offset_default
 *(.vector_205)
                0x000000009d000220                . = ALIGN (0x4)
                0x0000000000000220                __vector_offset_206 = DEFINED (__vector_dispatch_206)?(. - _ebase_address):__vector_offset_default
 *(.vector_206)
                0x000000009d000220                . = ALIGN (0x4)
                0x0000000000000220                __vector_offset_207 = DEFINED (__vector_dispatch_207)?(. - _ebase_address):__vector_offset_default
 *(.vector_207)
                0x000000009d000220                . = ALIGN (0x4)
                0x0000000000000220                __vector_offset_208 = DEFINED (__vector_dispatch_208)?(. - _ebase_address):__vector_offset_default
 *(.vector_208)
                0x000000009d000220                . = ALIGN (0x4)
                0x0000000000000220                __vector_offset_209 = DEFINED (__vector_dispatch_209)?(. - _ebase_address):__vector_offset_default
 *(.vector_209)
                0x000000009d000220                . = ALIGN (0x4)
                0x0000000000000220                __vector_offset_210 = DEFINED (__vector_dispatch_210)?(. - _ebase_address):__vector_offset_default
 *(.vector_210)
                0x000000009d000220                . = ALIGN (0x4)
                0x0000000000000220                __vector_offset_211 = DEFINED (__vector_dispatch_211)?(. - _ebase_address):__vector_offset_default
 *(.vector_211)
                0x000000009d000220                . = ALIGN (0x4)
                0x0000000000000220                __vector_offset_212 = DEFINED (__vector_dispatch_212)?(. - _ebase_address):__vector_offset_default
 *(.vector_212)
                0x000000009d000220                . = ALIGN (0x4)
                0x0000000000000220                __vector_offset_213 = DEFINED (__vector_dispatch_213)?(. - _ebase_address):__vector_offset_default
 *(.vector_213)
                0x000000009d000220                . = ALIGN (0x4)
                0x0000000000000220                __vector_offset_214 = DEFINED (__vector_dispatch_214)?(. - _ebase_address):__vector_offset_default
 *(.vector_214)
                0x000000009d000220                . = ALIGN (0x4)
                0x0000000000000220                __vector_offset_215 = DEFINED (__vector_dispatch_215)?(. - _ebase_address):__vector_offset_default
 *(.vector_215)
                0x000000009d000220                . = ALIGN (0x4)
                0x0000000000000220                __vector_offset_216 = DEFINED (__vector_dispatch_216)?(. - _ebase_address):__vector_offset_default
 *(.vector_216)
                0x000000009d000220                . = ALIGN (0x4)
                0x0000000000000220                __vector_offset_217 = DEFINED (__vector_dispatch_217)?(. - _ebase_address):__vector_offset_default
 *(.vector_217)
                0x000000009d000220                . = ALIGN (0x4)
                0x0000000000000220                __vector_offset_218 = DEFINED (__vector_dispatch_218)?(. - _ebase_address):__vector_offset_default
 *(.vector_218)
                0x000000009d000220                . = ALIGN (0x4)
                0x0000000000000220                __vector_offset_219 = DEFINED (__vector_dispatch_219)?(. - _ebase_address):__vector_offset_default
 *(.vector_219)
                0x000000009d000220                . = ALIGN (0x4)
                0x0000000000000220                __vector_offset_220 = DEFINED (__vector_dispatch_220)?(. - _ebase_address):__vector_offset_default
 *(.vector_220)
                0x000000009d000220                . = ALIGN (0x4)
                0x0000000000000220                __vector_offset_221 = DEFINED (__vector_dispatch_221)?(. - _ebase_address):__vector_offset_default
 *(.vector_221)
                0x000000009d000220                . = ALIGN (0x4)
                0x0000000000000220                __vector_offset_222 = DEFINED (__vector_dispatch_222)?(. - _ebase_address):__vector_offset_default
 *(.vector_222)
                0x000000009d000220                . = ALIGN (0x4)
                0x0000000000000220                __vector_offset_223 = DEFINED (__vector_dispatch_223)?(. - _ebase_address):__vector_offset_default
 *(.vector_223)
                0x000000009d000220                . = ALIGN (0x4)
                0x0000000000000220                __vector_offset_224 = DEFINED (__vector_dispatch_224)?(. - _ebase_address):__vector_offset_default
 *(.vector_224)
                0x000000009d000220                . = ALIGN (0x4)
                0x0000000000000220                __vector_offset_225 = DEFINED (__vector_dispatch_225)?(. - _ebase_address):__vector_offset_default
 *(.vector_225)
                0x000000009d000220                . = ALIGN (0x4)
                0x0000000000000220                __vector_offset_226 = DEFINED (__vector_dispatch_226)?(. - _ebase_address):__vector_offset_default
 *(.vector_226)
                0x000000009d000220                . = ALIGN (0x4)
                0x0000000000000220                __vector_offset_227 = DEFINED (__vector_dispatch_227)?(. - _ebase_address):__vector_offset_default
 *(.vector_227)
                0x000000009d000220                . = ALIGN (0x4)
                0x0000000000000220                __vector_offset_228 = DEFINED (__vector_dispatch_228)?(. - _ebase_address):__vector_offset_default
 *(.vector_228)
                0x000000009d000220                . = ALIGN (0x4)
                0x0000000000000220                __vector_offset_229 = DEFINED (__vector_dispatch_229)?(. - _ebase_address):__vector_offset_default
 *(.vector_229)
                0x000000009d000220                . = ALIGN (0x4)
                0x0000000000000220                __vector_offset_230 = DEFINED (__vector_dispatch_230)?(. - _ebase_address):__vector_offset_default
 *(.vector_230)
                0x000000009d000220                . = ALIGN (0x4)
                0x0000000000000220                __vector_offset_231 = DEFINED (__vector_dispatch_231)?(. - _ebase_address):__vector_offset_default
 *(.vector_231)
                0x000000009d000220                . = ALIGN (0x4)
                0x0000000000000220                __vector_offset_232 = DEFINED (__vector_dispatch_232)?(. - _ebase_address):__vector_offset_default
 *(.vector_232)
                0x000000009d000220                . = ALIGN (0x4)
                0x0000000000000220                __vector_offset_233 = DEFINED (__vector_dispatch_233)?(. - _ebase_address):__vector_offset_default
 *(.vector_233)
                0x000000009d000220                . = ALIGN (0x4)
                0x0000000000000220                __vector_offset_234 = DEFINED (__vector_dispatch_234)?(. - _ebase_address):__vector_offset_default
 *(.vector_234)
                0x000000009d000220                . = ALIGN (0x4)
                0x0000000000000220                __vector_offset_235 = DEFINED (__vector_dispatch_235)?(. - _ebase_address):__vector_offset_default
 *(.vector_235)
                0x000000009d000220                . = ALIGN (0x4)
                0x0000000000000220                __vector_offset_236 = DEFINED (__vector_dispatch_236)?(. - _ebase_address):__vector_offset_default
 *(.vector_236)
                0x000000009d000220                . = ALIGN (0x4)
                0x0000000000000220                __vector_offset_237 = DEFINED (__vector_dispatch_237)?(. - _ebase_address):__vector_offset_default
 *(.vector_237)
                0x000000009d000220                . = ALIGN (0x4)
                0x0000000000000220                __vector_offset_238 = DEFINED (__vector_dispatch_238)?(. - _ebase_address):__vector_offset_default
 *(.vector_238)
                0x000000009d000220                . = ALIGN (0x4)
                0x0000000000000220                __vector_offset_239 = DEFINED (__vector_dispatch_239)?(. - _ebase_address):__vector_offset_default
 *(.vector_239)
                0x000000009d000220                . = ALIGN (0x4)
                0x0000000000000220                __vector_offset_240 = DEFINED (__vector_dispatch_240)?(. - _ebase_address):__vector_offset_default
 *(.vector_240)
                0x000000009d000220                . = ALIGN (0x4)
                0x0000000000000220                __vector_offset_241 = DEFINED (__vector_dispatch_241)?(. - _ebase_address):__vector_offset_default
 *(.vector_241)
                0x000000009d000220                . = ALIGN (0x4)
                0x0000000000000220                __vector_offset_242 = DEFINED (__vector_dispatch_242)?(. - _ebase_address):__vector_offset_default
 *(.vector_242)
                0x000000009d000220                . = ALIGN (0x4)
                0x0000000000000220                __vector_offset_243 = DEFINED (__vector_dispatch_243)?(. - _ebase_address):__vector_offset_default
 *(.vector_243)
                0x000000009d000220                . = ALIGN (0x4)
                0x0000000000000220                __vector_offset_244 = DEFINED (__vector_dispatch_244)?(. - _ebase_address):__vector_offset_default
 *(.vector_244)
                0x000000009d000220                . = ALIGN (0x4)
                0x0000000000000220                __vector_offset_245 = DEFINED (__vector_dispatch_245)?(. - _ebase_address):__vector_offset_default
 *(.vector_245)
                0x000000009d000220                . = ALIGN (0x4)
                0x0000000000000220                __vector_offset_246 = DEFINED (__vector_dispatch_246)?(. - _ebase_address):__vector_offset_default
 *(.vector_246)
                0x000000009d000220                . = ALIGN (0x4)
                0x0000000000000220                __vector_offset_247 = DEFINED (__vector_dispatch_247)?(. - _ebase_address):__vector_offset_default
 *(.vector_247)
                0x000000009d000220                . = ALIGN (0x4)
                0x0000000000000220                __vector_offset_248 = DEFINED (__vector_dispatch_248)?(. - _ebase_address):__vector_offset_default
 *(.vector_248)
                0x000000009d000220                . = ALIGN (0x4)
                0x0000000000000220                __vector_offset_249 = DEFINED (__vector_dispatch_249)?(. - _ebase_address):__vector_offset_default
 *(.vector_249)
                0x000000009d000220                . = ALIGN (0x4)
                0x0000000000000220                __vector_offset_250 = DEFINED (__vector_dispatch_250)?(. - _ebase_address):__vector_offset_default
 *(.vector_250)
                0x000000009d000220                . = ALIGN (0x4)
                0x0000000000000220                __vector_offset_251 = DEFINED (__vector_dispatch_251)?(. - _ebase_address):__vector_offset_default
 *(.vector_251)
                0x000000009d000220                . = ALIGN (0x4)
                0x0000000000000220                __vector_offset_252 = DEFINED (__vector_dispatch_252)?(. - _ebase_address):__vector_offset_default
 *(.vector_252)
                0x000000009d000220                . = ALIGN (0x4)
                0x0000000000000220                __vector_offset_253 = DEFINED (__vector_dispatch_253)?(. - _ebase_address):__vector_offset_default
 *(.vector_253)
                0x000000009d000220                . = ALIGN (0x4)
                0x0000000000000220                __vector_offset_254 = DEFINED (__vector_dispatch_254)?(. - _ebase_address):__vector_offset_default
 *(.vector_254)
                0x000000009d000220                . = ALIGN (0x4)
                0x0000000000000220                __vector_offset_255 = DEFINED (__vector_dispatch_255)?(. - _ebase_address):__vector_offset_default
 *(.vector_255)
                0x000000009d000220                . = ALIGN (0x4)
                0x0000000000000220                __vector_offset_default = (. - _ebase_address)
 *(.vector_default)
 .vector_default
                0x000000009d000220       0x48 c:/program files/microchip/xc32/v4.00/bin/bin/../../lib/gcc/pic32mx/8.3.1/../../../../pic32mx/lib/fpu64\libpic32.a(defaultinterrupt.o)
                0x000000009d000220                _DefaultInterrupt

.startup
 *(.startup)

.text           0x000000009d000268        0x0
 *(.stub .gnu.linkonce.t.*)
 *(.text.*personality*)
 *(.mips16.fn.*)
 *(.mips16.call.*)
 *(.gnu.warning)
                0x000000009d000268                . = ALIGN (0x4)

.init           0x000000009d000268        0x0
 *crti.o(.init)
 *crtbegin.o(.init)
 *(EXCLUDE_FILE(*crtn.o *crtend?.o *crtend.o) .init)
 *crtend.o(.init)
 *crtn.o(.init)
                0x000000009d000268                . = ALIGN (0x4)

.fini           0x000000009d000268        0x0
 *(.fini)
                0x000000009d000268                . = ALIGN (0x4)

.preinit_array  0x000000009d000268        0x0
                [!provide]                        PROVIDE (__preinit_array_start = .)
 *(.preinit_array)
                [!provide]                        PROVIDE (__preinit_array_end = .)
                0x000000009d000268                . = ALIGN (0x4)

.init_array     0x000000009d000268        0x0
                [!provide]                        PROVIDE (__init_array_start = .)
 *(SORT_BY_NAME(.init_array.*))
 *(.init_array)
                [!provide]                        PROVIDE (__init_array_end = .)
                0x000000009d000268                . = ALIGN (0x4)

.fini_array     0x000000009d000268        0x0
                [!provide]                        PROVIDE (__fini_array_start = .)
 *(SORT_BY_NAME(.fini_array.*))
 *(.fini_array)
                [!provide]                        PROVIDE (__fini_array_end = .)
                0x000000009d000268                . = ALIGN (0x4)

.ctors          0x000000009d000268        0x0
 *crtbegin.o(.ctors)
 *crtbegin?.o(.ctors)
 *(EXCLUDE_FILE(*crtend?.o *crtend.o) .ctors)
 *(SORT_BY_NAME(.ctors.*))
 *(.ctors)
                0x000000009d000268                . = ALIGN (0x4)

.dtors          0x000000009d000268        0x0
 *crtbegin.o(.dtors)
 *crtbegin?.o(.dtors)
 *(EXCLUDE_FILE(*crtend?.o *crtend.o) .dtors)
 *(SORT_BY_NAME(.dtors.*))
 *(.dtors)
                0x000000009d000268                . = ALIGN (0x4)

.rodata         0x000000009d000268        0x0
 *(.gnu.linkonce.r.*)
 *(.rodata1)
                0x000000009d000268                . = ALIGN (0x4)

.sdata2         0x000000009d000268        0x0
 *(.sdata2 .sdata2.* .gnu.linkonce.s2.*)
                0x000000009d000268                . = ALIGN (0x4)

.sbss2          0x000000009d000268        0x0
 *(.sbss2 .sbss2.* .gnu.linkonce.sb2.*)
                0x000000009d000268                . = ALIGN (0x4)

.eh_frame_hdr
 *(.eh_frame_hdr)
                0x000000009d000268                . = ALIGN (0x4)

.eh_frame
 *(.eh_frame)
                0x000000009d000268                . = ALIGN (0x4)

.gcc_except_table
 *(.gcc_except_table .gcc_except_table.*)
                0x000000009d000268                . = ALIGN (0x4)

.dbg_data       0x0000000080000380        0x0
                0x0000000080000380                . = (. + DEFINED (_DEBUGGER)?0x200:0x0)
                0x0000000080000380                . = (. + DEFINED (_DEBUGGER)?0x80:0x0)
                0x0000000080000380                . = (. + DEFINED (_DEBUGGER)?0x100:0x0)

.jcr            0x0000000080000380        0x0
 *(.jcr)
                0x0000000080000380                . = ALIGN (0x4)

.eh_frame
 *(.eh_frame)
                0x0000000080000380                . = ALIGN (0x4)

.gcc_except_table
 *(.gcc_except_table .gcc_except_table.*)
                0x0000000080000380                . = ALIGN (0x4)

.persist        0x0000000080000380        0x0
                0x0000000080000380                _persist_begin = .
 *(.persist .persist.*)
                0x0000000080000380                . = ALIGN (0x4)
                0x0000000080000380                _persist_end = .

.data           0x0000000080000380        0x0
 *(.gnu.linkonce.d.*)
 *(.data1)
                0x0000000080000380                . = ALIGN (0x4)
                0x0000000080000380                . = .
                0x0000000080008370                _gp = (ALIGN (0x10) + 0x7ff0)

.got            0x0000000080000380        0x0
 *(.got.plt)
 *(.got)
                0x0000000080000380                . = ALIGN (0x4)

.sdata          0x0000000080000380       0x84
                0x0000000080000380                _sdata_begin = .
 *(.sdata .sdata.* .gnu.linkonce.s.*)
 .sdata         0x0000000080000380       0x40 build/DSP_TU/debug/_ext/1360937237/main.o
                0x0000000080000380                UseAgc
                0x0000000080000384                UseInputBpf
                0x0000000080000388                AudioOut
                0x0000000080000390                InputBpfQ
                0x0000000080000398                InputBpfF
                0x00000000800003a0                LpfF
                0x00000000800003a8                BpfQ
                0x00000000800003b0                SpaceFreq
                0x00000000800003b8                MarkFreq
 .sdata         0x00000000800003c0       0x20 build/DSP_TU/debug/_ext/1360937237/agc.o
                0x00000000800003c0                AgcLpfF
                0x00000000800003c8                TargetLevel
                0x00000000800003d0                MaxGain
                0x00000000800003d8                gain
 .sdata         0x00000000800003e0       0x24 c:/program files/microchip/xc32/v4.00/bin/bin/../../lib/gcc/pic32mx/8.3.1/../../../../pic32mx/lib/fpu64\libpic32.a(pic32_init_cache.o)
                0x00000000800003e0                __pic32_icache_size
                0x00000000800003e4                __pic32_icache_linesize
                0x00000000800003e8                __pic32_icache_ways
                0x00000000800003ec                __pic32_dcache_size
                0x00000000800003f0                __pic32_dcache_linesize
                0x00000000800003f4                __pic32_dcache_ways
                0x00000000800003f8                __pic32_scache_size
                0x00000000800003fc                __pic32_scache_linesize
                0x0000000080000400                __pic32_scache_ways
                0x0000000080000404                . = ALIGN (0x4)
                0x0000000080000404                _sdata_end = .

.lit8
 *(.lit8)

.lit4
 *(.lit4)
                0x0000000080000404                . = ALIGN (0x4)
                0x0000000080000404                _data_end = .
                0x0000000080000404                _bss_begin = .

.sbss           0x0000000080000404       0x94
                0x0000000080000404                _sbss_begin = .
 *(.dynsbss)
 *(.sbss .sbss.* .gnu.linkonce.sb.*)
 .sbss          0x0000000080000404        0x8 build/DSP_TU/debug/_ext/2093406237/plib_tmr2.o
 .sbss          0x000000008000040c        0x6 build/DSP_TU/debug/_ext/1360937237/main.o
                0x000000008000040c                UseLimiter
                0x0000000080000410                Timer2TimeoutCounter
 *fill*         0x0000000080000412        0x6 
 .sbss          0x0000000080000418       0x10 build/DSP_TU/debug/_ext/1360937237/dds.o
 .sbss          0x0000000080000428       0x1c build/DSP_TU/debug/_ext/1360937237/DynamicThreshold.o
 *(.scommon)
 *fill*         0x0000000080000444        0x4 
 .scommon       0x0000000080000448       0x48 build/DSP_TU/debug/_ext/1360937237/main.o
                0x0000000080000448                samplef
                0x0000000080000450                Threshold
                0x0000000080000458                DiscrimOut
                0x0000000080000460                SpaceSample
                0x0000000080000468                SpaceDemodOut
                0x0000000080000470                MarkSample
                0x0000000080000478                MarkDemodOut
                0x0000000080000480                DdsOut
                0x0000000080000488                TestSamplef
 .scommon       0x0000000080000490        0x4 build/DSP_TU/debug/_ext/1360937237/DynamicThreshold.o
                0x0000000080000490                DynamicThresholdLpf
 .scommon       0x0000000080000494        0x4 build/DSP_TU/debug/_ext/1360937237/agc.o
                0x0000000080000494                AgcLpf
                0x0000000080000498                _sbss_end = .
                0x0000000080000498                . = ALIGN (0x4)

.bss            0x0000000080000498       0x44
 *(.dynbss)
 *(COMMON)
 COMMON         0x0000000080000498       0x44 build/DSP_TU/debug/_ext/471065532/plib_uart2.o
                0x0000000080000498                uart2Obj
                0x00000000800004dc                . = ALIGN ((. != 0x0)?0x4:0x1)
                0x00000000800004dc                . = ALIGN (0x4)
                0x00000000800004dc                _end = .
                0x00000000800004dc                _bss_end = .
                0x0000000000080000                _bmxdudba_address = LENGTH (kseg0_data_mem)
                0x0000000000080000                _bmxdupba_address = LENGTH (kseg0_data_mem)

/DISCARD/
 *(.pdr)
 *(.rel.dyn)
 *(.note.GNU-stack)
 *(.note.GNU-stack)
 *(.gnu_debuglink)
 *(.gnu.lto_*)
 *(.discard)

.gptab.sdata
 *(.gptab.data)
 *(.gptab.sdata)

.gptab.sbss
 *(.gptab.bss)
 *(.gptab.sbss)

.mdebug.abi32   0x0000000000000000        0x0
 *(.mdebug.abi32)
 .mdebug.abi32  0x0000000000000000        0x0 c:/program files/microchip/xc32/v4.00/bin/bin/../../lib/gcc/pic32mx/8.3.1/../../../../pic32mx/lib/fpu64\software-debug-break.o
 .mdebug.abi32  0x0000000000000000        0x0 build/DSP_TU/debug/_ext/1736525323/plib_adchs.o
 .mdebug.abi32  0x0000000000000000        0x0 build/DSP_TU/debug/_ext/2093422612/plib_clk.o
 .mdebug.abi32  0x0000000000000000        0x0 build/DSP_TU/debug/_ext/471522303/plib_evic.o
 .mdebug.abi32  0x0000000000000000        0x0 build/DSP_TU/debug/_ext/471468475/plib_gpio.o
 .mdebug.abi32  0x0000000000000000        0x0 build/DSP_TU/debug/_ext/471242515/plib_ocmp1.o
 .mdebug.abi32  0x0000000000000000        0x0 build/DSP_TU/debug/_ext/2093406237/plib_tmr2.o
 .mdebug.abi32  0x0000000000000000        0x0 build/DSP_TU/debug/_ext/471065532/plib_uart2.o
 .mdebug.abi32  0x0000000000000000        0x0 build/DSP_TU/debug/_ext/2030120972/xc32_monitor.o
 .mdebug.abi32  0x0000000000000000        0x0 build/DSP_TU/debug/_ext/1044038098/initialization.o
 .mdebug.abi32  0x0000000000000000        0x0 build/DSP_TU/debug/_ext/1044038098/interrupts.o
 .mdebug.abi32  0x0000000000000000        0x0 build/DSP_TU/debug/_ext/1044038098/exceptions.o
 .mdebug.abi32  0x0000000000000000        0x0 build/DSP_TU/debug/_ext/1360937237/main.o
 .mdebug.abi32  0x0000000000000000        0x0 build/DSP_TU/debug/_ext/1360937237/PwmAudioOut.o
 .mdebug.abi32  0x0000000000000000        0x0 build/DSP_TU/debug/_ext/1360937237/biquad.o
 .mdebug.abi32  0x0000000000000000        0x0 build/DSP_TU/debug/_ext/1360937237/dds.o
 .mdebug.abi32  0x0000000000000000        0x0 build/DSP_TU/debug/_ext/1360937237/DynamicThreshold.o
 .mdebug.abi32  0x0000000000000000        0x0 build/DSP_TU/debug/_ext/1360937237/agc.o
 .mdebug.abi32  0x0000000000000000        0x0 c:/program files/microchip/xc32/v4.00/bin/bin/../../lib/gcc/pic32mx/8.3.1/../../../../pic32mx/lib/fpu64\libpic32.a(default-on-reset.o)
 .mdebug.abi32  0x0000000000000000        0x0 c:/program files/microchip/xc32/v4.00/bin/bin/../../lib/gcc/pic32mx/8.3.1/../../../../pic32mx/lib/fpu64\libpic32.a(default-on-bootstrap.o)
 .mdebug.abi32  0x0000000000000000        0x0 c:/program files/microchip/xc32/v4.00/bin/bin/../../lib/gcc/pic32mx/8.3.1/../../../../pic32mx/lib/fpu64\libpic32.a(defaultinterrupt.o)
 .mdebug.abi32  0x0000000000000000        0x0 c:/program files/microchip/xc32/v4.00/bin/bin/../../lib/gcc/pic32mx/8.3.1/../../../../pic32mx/lib/fpu64\libc-musl.a(malloc.o)
 .mdebug.abi32  0x0000000000000000        0x0 c:/program files/microchip/xc32/v4.00/bin/bin/../../lib/gcc/pic32mx/8.3.1/../../../../pic32mx/lib/fpu64\libc-musl.a(expand_heap.o)
 .mdebug.abi32  0x0000000000000000        0x0 c:/program files/microchip/xc32/v4.00/bin/bin/../../lib/gcc/pic32mx/8.3.1/../../../../pic32mx/lib/fpu64\libc-musl.a(memcpy.o)
 .mdebug.abi32  0x0000000000000000        0x0 c:/program files/microchip/xc32/v4.00/bin/bin/../../lib/gcc/pic32mx/8.3.1/../../../../pic32mx/lib/fpu64\libc-musl.a(libc.o)
 .mdebug.abi32  0x0000000000000000        0x0 c:/program files/microchip/xc32/v4.00/bin/bin/../../lib/gcc/pic32mx/8.3.1/../../../../pic32mx/lib/fpu64\libm-musl.a(cos.o)
 .mdebug.abi32  0x0000000000000000        0x0 c:/program files/microchip/xc32/v4.00/bin/bin/../../lib/gcc/pic32mx/8.3.1/../../../../pic32mx/lib/fpu64\libm-musl.a(pow.o)
 .mdebug.abi32  0x0000000000000000        0x0 c:/program files/microchip/xc32/v4.00/bin/bin/../../lib/gcc/pic32mx/8.3.1/../../../../pic32mx/lib/fpu64\libm-musl.a(scalbn.o)
 .mdebug.abi32  0x0000000000000000        0x0 c:/program files/microchip/xc32/v4.00/bin/bin/../../lib/gcc/pic32mx/8.3.1/../../../../pic32mx/lib/fpu64\libm-musl.a(sin.o)
 .mdebug.abi32  0x0000000000000000        0x0 c:/program files/microchip/xc32/v4.00/bin/bin/../../lib/gcc/pic32mx/8.3.1/../../../../pic32mx/lib/fpu64\libm-musl.a(sqrt.o)
 .mdebug.abi32  0x0000000000000000        0x0 c:/program files/microchip/xc32/v4.00/bin/bin/../../lib/gcc/pic32mx/8.3.1/../../../../pic32mx/lib/fpu64\libm-musl.a(__cos.o)
 .mdebug.abi32  0x0000000000000000        0x0 c:/program files/microchip/xc32/v4.00/bin/bin/../../lib/gcc/pic32mx/8.3.1/../../../../pic32mx/lib/fpu64\libm-musl.a(__rem_pio2.o)
 .mdebug.abi32  0x0000000000000000        0x0 c:/program files/microchip/xc32/v4.00/bin/bin/../../lib/gcc/pic32mx/8.3.1/../../../../pic32mx/lib/fpu64\libm-musl.a(__rem_pio2_large.o)
 .mdebug.abi32  0x0000000000000000        0x0 c:/program files/microchip/xc32/v4.00/bin/bin/../../lib/gcc/pic32mx/8.3.1/../../../../pic32mx/lib/fpu64\libm-musl.a(__sin.o)
 .mdebug.abi32  0x0000000000000000        0x0 c:/program files/microchip/xc32/v4.00/bin/bin/../../lib/gcc/pic32mx/8.3.1/../../../../pic32mx/lib/fpu64\libm-musl.a(fabs.o)
 .mdebug.abi32  0x0000000000000000        0x0 c:/program files/microchip/xc32/v4.00/bin/bin/../../lib/gcc/pic32mx/8.3.1/../../../../pic32mx/lib/fpu64\libm-musl.a(floor.o)
 .mdebug.abi32  0x0000000000000000        0x0 c:/program files/microchip/xc32/v4.00/bin/bin/../../lib/gcc/pic32mx/8.3.1/../../../../pic32mx/lib/fpu64\libpic32.a(sbrk.o)
 .mdebug.abi32  0x0000000000000000        0x0 c:/program files/microchip/xc32/v4.00/bin/bin/../../lib/gcc/pic32mx/8.3.1/../../../../pic32mx/lib/fpu64\libpic32.a(errno.o)
 .mdebug.abi32  0x0000000000000000        0x0 c:/program files/microchip/xc32/v4.00/bin/bin/../../lib/gcc/pic32mx/8.3.1/fpu64\libgcc.a(_lshrdi3.o)
 .mdebug.abi32  0x0000000000000000        0x0 c:/program files/microchip/xc32/v4.00/bin/bin/../../lib/gcc/pic32mx/8.3.1/fpu64\libgcc.a(_ashldi3.o)

.mdebug.abiN32
 *(.mdebug.abiN32)

.mdebug.abi64
 *(.mdebug.abi64)

.mdebug.abiO64
 *(.mdebug.abiO64)

.mdebug.eabi32
 *(.mdebug.eabi32)

.mdebug.eabi64
 *(.mdebug.eabi64)

.gcc_compiled_long32
 *(.gcc_compiled_long32)

.gcc_compiled_long64
 *(.gcc_compiled_long64)

.stab
 *(.stab)

.stabstr
 *(.stabstr)

.stab.excl
 *(.stab.excl)

.stab.exclstr
 *(.stab.exclstr)

.stab.index
 *(.stab.index)

.stab.indexstr
 *(.stab.indexstr)

.comment        0x0000000000000000       0x9e
 *(.comment)
 .comment       0x0000000000000000       0x53 c:/program files/microchip/xc32/v4.00/bin/bin/../../lib/gcc/pic32mx/8.3.1/../../../../pic32mx/lib/fpu64\software-debug-break.o
                                         0x54 (size before relaxing)
 .comment       0x0000000000000053       0x54 build/DSP_TU/debug/_ext/1736525323/plib_adchs.o
 .comment       0x0000000000000053       0x54 build/DSP_TU/debug/_ext/2093422612/plib_clk.o
 .comment       0x0000000000000053       0x54 build/DSP_TU/debug/_ext/471522303/plib_evic.o
 .comment       0x0000000000000053       0x54 build/DSP_TU/debug/_ext/471468475/plib_gpio.o
 .comment       0x0000000000000053       0x54 build/DSP_TU/debug/_ext/471242515/plib_ocmp1.o
 .comment       0x0000000000000053       0x54 build/DSP_TU/debug/_ext/2093406237/plib_tmr2.o
 .comment       0x0000000000000053       0x54 build/DSP_TU/debug/_ext/471065532/plib_uart2.o
 .comment       0x0000000000000053       0x54 build/DSP_TU/debug/_ext/2030120972/xc32_monitor.o
 .comment       0x0000000000000053       0x54 build/DSP_TU/debug/_ext/1044038098/initialization.o
 .comment       0x0000000000000053       0x54 build/DSP_TU/debug/_ext/1044038098/interrupts.o
 .comment       0x0000000000000053       0x54 build/DSP_TU/debug/_ext/1044038098/exceptions.o
 .comment       0x0000000000000053       0x54 build/DSP_TU/debug/_ext/1360937237/main.o
 .comment       0x0000000000000053       0x54 build/DSP_TU/debug/_ext/1360937237/PwmAudioOut.o
 .comment       0x0000000000000053       0x54 build/DSP_TU/debug/_ext/1360937237/biquad.o
 .comment       0x0000000000000053       0x54 build/DSP_TU/debug/_ext/1360937237/dds.o
 .comment       0x0000000000000053       0x54 build/DSP_TU/debug/_ext/1360937237/DynamicThreshold.o
 .comment       0x0000000000000053       0x54 build/DSP_TU/debug/_ext/1360937237/agc.o
 .comment       0x0000000000000053       0x54 c:/program files/microchip/xc32/v4.00/bin/bin/../../lib/gcc/pic32mx/8.3.1/../../../../pic32mx/lib/fpu64\libpic32.a(default-on-reset.o)
 .comment       0x0000000000000053       0x54 c:/program files/microchip/xc32/v4.00/bin/bin/../../lib/gcc/pic32mx/8.3.1/../../../../pic32mx/lib/fpu64\libpic32.a(default-on-bootstrap.o)
 .comment       0x0000000000000053       0x54 c:/program files/microchip/xc32/v4.00/bin/bin/../../lib/gcc/pic32mx/8.3.1/../../../../pic32mx/lib/fpu64\libpic32.a(defaultinterrupt.o)
 .comment       0x0000000000000053       0x54 c:/program files/microchip/xc32/v4.00/bin/bin/../../lib/gcc/pic32mx/8.3.1/../../../../pic32mx/lib/fpu64\libc-musl.a(malloc.o)
 .comment       0x0000000000000053       0x54 c:/program files/microchip/xc32/v4.00/bin/bin/../../lib/gcc/pic32mx/8.3.1/../../../../pic32mx/lib/fpu64\libc-musl.a(expand_heap.o)
 .comment       0x0000000000000053       0x54 c:/program files/microchip/xc32/v4.00/bin/bin/../../lib/gcc/pic32mx/8.3.1/../../../../pic32mx/lib/fpu64\libc-musl.a(memcpy.o)
 .comment       0x0000000000000053       0x54 c:/program files/microchip/xc32/v4.00/bin/bin/../../lib/gcc/pic32mx/8.3.1/../../../../pic32mx/lib/fpu64\libc-musl.a(libc.o)
 .comment       0x0000000000000053       0x54 c:/program files/microchip/xc32/v4.00/bin/bin/../../lib/gcc/pic32mx/8.3.1/../../../../pic32mx/lib/fpu64\libm-musl.a(cos.o)
 .comment       0x0000000000000053       0x54 c:/program files/microchip/xc32/v4.00/bin/bin/../../lib/gcc/pic32mx/8.3.1/../../../../pic32mx/lib/fpu64\libm-musl.a(pow.o)
 .comment       0x0000000000000053       0x54 c:/program files/microchip/xc32/v4.00/bin/bin/../../lib/gcc/pic32mx/8.3.1/../../../../pic32mx/lib/fpu64\libm-musl.a(scalbn.o)
 .comment       0x0000000000000053       0x54 c:/program files/microchip/xc32/v4.00/bin/bin/../../lib/gcc/pic32mx/8.3.1/../../../../pic32mx/lib/fpu64\libm-musl.a(sin.o)
 .comment       0x0000000000000053       0x54 c:/program files/microchip/xc32/v4.00/bin/bin/../../lib/gcc/pic32mx/8.3.1/../../../../pic32mx/lib/fpu64\libm-musl.a(sqrt.o)
 .comment       0x0000000000000053       0x54 c:/program files/microchip/xc32/v4.00/bin/bin/../../lib/gcc/pic32mx/8.3.1/../../../../pic32mx/lib/fpu64\libm-musl.a(__cos.o)
 .comment       0x0000000000000053       0x54 c:/program files/microchip/xc32/v4.00/bin/bin/../../lib/gcc/pic32mx/8.3.1/../../../../pic32mx/lib/fpu64\libm-musl.a(__rem_pio2.o)
 .comment       0x0000000000000053       0x54 c:/program files/microchip/xc32/v4.00/bin/bin/../../lib/gcc/pic32mx/8.3.1/../../../../pic32mx/lib/fpu64\libm-musl.a(__rem_pio2_large.o)
 .comment       0x0000000000000053       0x54 c:/program files/microchip/xc32/v4.00/bin/bin/../../lib/gcc/pic32mx/8.3.1/../../../../pic32mx/lib/fpu64\libm-musl.a(__sin.o)
 .comment       0x0000000000000053       0x54 c:/program files/microchip/xc32/v4.00/bin/bin/../../lib/gcc/pic32mx/8.3.1/../../../../pic32mx/lib/fpu64\libm-musl.a(fabs.o)
 .comment       0x0000000000000053       0x54 c:/program files/microchip/xc32/v4.00/bin/bin/../../lib/gcc/pic32mx/8.3.1/../../../../pic32mx/lib/fpu64\libm-musl.a(floor.o)
 .comment       0x0000000000000053       0x4b c:/program files/microchip/xc32/v4.00/bin/bin/../../lib/gcc/pic32mx/8.3.1/../../../../pic32mx/lib/fpu64\libpic32.a(sbrk.o)
                                         0x9f (size before relaxing)
 .comment       0x000000000000009e       0x54 c:/program files/microchip/xc32/v4.00/bin/bin/../../lib/gcc/pic32mx/8.3.1/../../../../pic32mx/lib/fpu64\libpic32.a(errno.o)
 .comment       0x000000000000009e       0x54 c:/program files/microchip/xc32/v4.00/bin/bin/../../lib/gcc/pic32mx/8.3.1/fpu64\libgcc.a(_lshrdi3.o)
 .comment       0x000000000000009e       0x54 c:/program files/microchip/xc32/v4.00/bin/bin/../../lib/gcc/pic32mx/8.3.1/fpu64\libgcc.a(_ashldi3.o)

.debug
 *.elf(.debug)
 *(.debug)

.line
 *.elf(.line)
 *(.line)

.debug_srcinfo
 *.elf(.debug_srcinfo)
 *(.debug_srcinfo)

.debug_sfnames
 *.elf(.debug_sfnames)
 *(.debug_sfnames)

.debug_aranges  0x0000000000000000      0x810
 *.elf(.debug_aranges)
 *(.debug_aranges)
 .debug_aranges
                0x0000000000000000       0x20 c:/program files/microchip/xc32/v4.00/bin/bin/../../lib/gcc/pic32mx/8.3.1/../../../../pic32mx/lib/fpu64\software-debug-break.o
 .debug_aranges
                0x0000000000000020       0x88 build/DSP_TU/debug/_ext/1736525323/plib_adchs.o
 .debug_aranges
                0x00000000000000a8       0x20 build/DSP_TU/debug/_ext/2093422612/plib_clk.o
 .debug_aranges
                0x00000000000000c8       0x68 build/DSP_TU/debug/_ext/471522303/plib_evic.o
 .debug_aranges
                0x0000000000000130       0x60 build/DSP_TU/debug/_ext/471468475/plib_gpio.o
 .debug_aranges
                0x0000000000000190       0x48 build/DSP_TU/debug/_ext/471242515/plib_ocmp1.o
 .debug_aranges
                0x00000000000001d8       0x70 build/DSP_TU/debug/_ext/2093406237/plib_tmr2.o
 .debug_aranges
                0x0000000000000248       0xd8 build/DSP_TU/debug/_ext/471065532/plib_uart2.o
 .debug_aranges
                0x0000000000000320       0x28 build/DSP_TU/debug/_ext/2030120972/xc32_monitor.o
 .debug_aranges
                0x0000000000000348       0x20 build/DSP_TU/debug/_ext/1044038098/initialization.o
 .debug_aranges
                0x0000000000000368       0x38 build/DSP_TU/debug/_ext/1044038098/interrupts.o
 .debug_aranges
                0x00000000000003a0       0x38 build/DSP_TU/debug/_ext/1044038098/exceptions.o
 .debug_aranges
                0x00000000000003d8       0x20 build/DSP_TU/debug/_ext/1360937237/main.o
 .debug_aranges
                0x00000000000003f8       0x20 build/DSP_TU/debug/_ext/1360937237/PwmAudioOut.o
 .debug_aranges
                0x0000000000000418       0x28 build/DSP_TU/debug/_ext/1360937237/biquad.o
 .debug_aranges
                0x0000000000000440       0x28 build/DSP_TU/debug/_ext/1360937237/dds.o
 .debug_aranges
                0x0000000000000468       0x28 build/DSP_TU/debug/_ext/1360937237/DynamicThreshold.o
 .debug_aranges
                0x0000000000000490       0x28 build/DSP_TU/debug/_ext/1360937237/agc.o
 .debug_aranges
                0x00000000000004b8       0x50 C:\Users\HAROLD~1\AppData\Local\Temp\ccKBed8x.o
 .debug_aranges
                0x0000000000000508       0x20 c:/program files/microchip/xc32/v4.00/bin/bin/../../lib/gcc/pic32mx/8.3.1/../../../../pic32mx/lib/fpu64\libpic32.a(default-on-reset.o)
 .debug_aranges
                0x0000000000000528       0x20 c:/program files/microchip/xc32/v4.00/bin/bin/../../lib/gcc/pic32mx/8.3.1/../../../../pic32mx/lib/fpu64\libpic32.a(default-on-bootstrap.o)
 .debug_aranges
                0x0000000000000548       0x20 c:/program files/microchip/xc32/v4.00/bin/bin/../../lib/gcc/pic32mx/8.3.1/../../../../pic32mx/lib/fpu64\libpic32.a(defaultinterrupt.o)
 .debug_aranges
                0x0000000000000568       0x70 c:/program files/microchip/xc32/v4.00/bin/bin/../../lib/gcc/pic32mx/8.3.1/../../../../pic32mx/lib/fpu64\libc-musl.a(malloc.o)
 .debug_aranges
                0x00000000000005d8       0x20 c:/program files/microchip/xc32/v4.00/bin/bin/../../lib/gcc/pic32mx/8.3.1/../../../../pic32mx/lib/fpu64\libc-musl.a(expand_heap.o)
 .debug_aranges
                0x00000000000005f8       0x20 c:/program files/microchip/xc32/v4.00/bin/bin/../../lib/gcc/pic32mx/8.3.1/../../../../pic32mx/lib/fpu64\libc-musl.a(memcpy.o)
 .debug_aranges
                0x0000000000000618       0x18 c:/program files/microchip/xc32/v4.00/bin/bin/../../lib/gcc/pic32mx/8.3.1/../../../../pic32mx/lib/fpu64\libc-musl.a(libc.o)
 .debug_aranges
                0x0000000000000630       0x20 c:/program files/microchip/xc32/v4.00/bin/bin/../../lib/gcc/pic32mx/8.3.1/../../../../pic32mx/lib/fpu64\libm-musl.a(cos.o)
 .debug_aranges
                0x0000000000000650       0x20 c:/program files/microchip/xc32/v4.00/bin/bin/../../lib/gcc/pic32mx/8.3.1/../../../../pic32mx/lib/fpu64\libm-musl.a(pow.o)
 .debug_aranges
                0x0000000000000670       0x20 c:/program files/microchip/xc32/v4.00/bin/bin/../../lib/gcc/pic32mx/8.3.1/../../../../pic32mx/lib/fpu64\libm-musl.a(scalbn.o)
 .debug_aranges
                0x0000000000000690       0x20 c:/program files/microchip/xc32/v4.00/bin/bin/../../lib/gcc/pic32mx/8.3.1/../../../../pic32mx/lib/fpu64\libm-musl.a(sin.o)
 .debug_aranges
                0x00000000000006b0       0x20 c:/program files/microchip/xc32/v4.00/bin/bin/../../lib/gcc/pic32mx/8.3.1/../../../../pic32mx/lib/fpu64\libm-musl.a(sqrt.o)
 .debug_aranges
                0x00000000000006d0       0x20 c:/program files/microchip/xc32/v4.00/bin/bin/../../lib/gcc/pic32mx/8.3.1/../../../../pic32mx/lib/fpu64\libm-musl.a(__cos.o)
 .debug_aranges
                0x00000000000006f0       0x20 c:/program files/microchip/xc32/v4.00/bin/bin/../../lib/gcc/pic32mx/8.3.1/../../../../pic32mx/lib/fpu64\libm-musl.a(__rem_pio2.o)
 .debug_aranges
                0x0000000000000710       0x20 c:/program files/microchip/xc32/v4.00/bin/bin/../../lib/gcc/pic32mx/8.3.1/../../../../pic32mx/lib/fpu64\libm-musl.a(__rem_pio2_large.o)
 .debug_aranges
                0x0000000000000730       0x20 c:/program files/microchip/xc32/v4.00/bin/bin/../../lib/gcc/pic32mx/8.3.1/../../../../pic32mx/lib/fpu64\libm-musl.a(__sin.o)
 .debug_aranges
                0x0000000000000750       0x20 c:/program files/microchip/xc32/v4.00/bin/bin/../../lib/gcc/pic32mx/8.3.1/../../../../pic32mx/lib/fpu64\libm-musl.a(fabs.o)
 .debug_aranges
                0x0000000000000770       0x20 c:/program files/microchip/xc32/v4.00/bin/bin/../../lib/gcc/pic32mx/8.3.1/../../../../pic32mx/lib/fpu64\libm-musl.a(floor.o)
 .debug_aranges
                0x0000000000000790       0x40 c:/program files/microchip/xc32/v4.00/bin/bin/../../lib/gcc/pic32mx/8.3.1/../../../../pic32mx/lib/fpu64\libpic32.a(sbrk.o)
 .debug_aranges
                0x00000000000007d0       0x20 c:/program files/microchip/xc32/v4.00/bin/bin/../../lib/gcc/pic32mx/8.3.1/fpu64\libgcc.a(_lshrdi3.o)
 .debug_aranges
                0x00000000000007f0       0x20 c:/program files/microchip/xc32/v4.00/bin/bin/../../lib/gcc/pic32mx/8.3.1/fpu64\libgcc.a(_ashldi3.o)

.debug_pubnames
 *.elf(.debug_pubnames)
 *(.debug_pubnames)

.debug_info     0x0000000000000000   0x41b722
 *.elf(.debug_info .gnu.linkonce.wi.*)
 *(.debug_info .gnu.linkonce.wi.*)
 .debug_info    0x0000000000000000       0x3f c:/program files/microchip/xc32/v4.00/bin/bin/../../lib/gcc/pic32mx/8.3.1/../../../../pic32mx/lib/fpu64\software-debug-break.o
 .debug_info    0x000000000000003f    0x57416 build/DSP_TU/debug/_ext/1736525323/plib_adchs.o
 .debug_info    0x0000000000057455    0x570ca build/DSP_TU/debug/_ext/2093422612/plib_clk.o
 .debug_info    0x00000000000ae51f    0x577e0 build/DSP_TU/debug/_ext/471522303/plib_evic.o
 .debug_info    0x0000000000105cff    0x572c4 build/DSP_TU/debug/_ext/471468475/plib_gpio.o
 .debug_info    0x000000000015cfc3    0x5715f build/DSP_TU/debug/_ext/471242515/plib_ocmp1.o
 .debug_info    0x00000000001b4122    0x57294 build/DSP_TU/debug/_ext/2093406237/plib_tmr2.o
 .debug_info    0x000000000020b3b6    0x57d31 build/DSP_TU/debug/_ext/471065532/plib_uart2.o
 .debug_info    0x00000000002630e7       0xe2 build/DSP_TU/debug/_ext/2030120972/xc32_monitor.o
 .debug_info    0x00000000002631c9    0x57190 build/DSP_TU/debug/_ext/1044038098/initialization.o
 .debug_info    0x00000000002ba359    0x57187 build/DSP_TU/debug/_ext/1044038098/interrupts.o
 .debug_info    0x00000000003114e0    0x571f7 build/DSP_TU/debug/_ext/1044038098/exceptions.o
 .debug_info    0x00000000003686d7    0x57741 build/DSP_TU/debug/_ext/1360937237/main.o
 .debug_info    0x00000000003bfe18    0x57109 build/DSP_TU/debug/_ext/1360937237/PwmAudioOut.o
 .debug_info    0x0000000000416f21      0x40a build/DSP_TU/debug/_ext/1360937237/biquad.o
 .debug_info    0x000000000041732b      0x122 build/DSP_TU/debug/_ext/1360937237/dds.o
 .debug_info    0x000000000041744d      0x2b3 build/DSP_TU/debug/_ext/1360937237/DynamicThreshold.o
 .debug_info    0x0000000000417700      0x28b build/DSP_TU/debug/_ext/1360937237/agc.o
 .debug_info    0x000000000041798b       0x22 C:\Users\HAROLD~1\AppData\Local\Temp\ccKBed8x.o
 .debug_info    0x00000000004179ad       0x3f c:/program files/microchip/xc32/v4.00/bin/bin/../../lib/gcc/pic32mx/8.3.1/../../../../pic32mx/lib/fpu64\libpic32.a(default-on-reset.o)
 .debug_info    0x00000000004179ec       0x3f c:/program files/microchip/xc32/v4.00/bin/bin/../../lib/gcc/pic32mx/8.3.1/../../../../pic32mx/lib/fpu64\libpic32.a(default-on-bootstrap.o)
 .debug_info    0x0000000000417a2b       0x40 c:/program files/microchip/xc32/v4.00/bin/bin/../../lib/gcc/pic32mx/8.3.1/../../../../pic32mx/lib/fpu64\libpic32.a(defaultinterrupt.o)
 .debug_info    0x0000000000417a6b     0x108d c:/program files/microchip/xc32/v4.00/bin/bin/../../lib/gcc/pic32mx/8.3.1/../../../../pic32mx/lib/fpu64\libc-musl.a(malloc.o)
 .debug_info    0x0000000000418af8      0x32f c:/program files/microchip/xc32/v4.00/bin/bin/../../lib/gcc/pic32mx/8.3.1/../../../../pic32mx/lib/fpu64\libc-musl.a(expand_heap.o)
 .debug_info    0x0000000000418e27       0xea c:/program files/microchip/xc32/v4.00/bin/bin/../../lib/gcc/pic32mx/8.3.1/../../../../pic32mx/lib/fpu64\libc-musl.a(memcpy.o)
 .debug_info    0x0000000000418f11      0x2d8 c:/program files/microchip/xc32/v4.00/bin/bin/../../lib/gcc/pic32mx/8.3.1/../../../../pic32mx/lib/fpu64\libc-musl.a(libc.o)
 .debug_info    0x00000000004191e9      0x207 c:/program files/microchip/xc32/v4.00/bin/bin/../../lib/gcc/pic32mx/8.3.1/../../../../pic32mx/lib/fpu64\libm-musl.a(cos.o)
 .debug_info    0x00000000004193f0      0xa1c c:/program files/microchip/xc32/v4.00/bin/bin/../../lib/gcc/pic32mx/8.3.1/../../../../pic32mx/lib/fpu64\libm-musl.a(pow.o)
 .debug_info    0x0000000000419e0c      0x118 c:/program files/microchip/xc32/v4.00/bin/bin/../../lib/gcc/pic32mx/8.3.1/../../../../pic32mx/lib/fpu64\libm-musl.a(scalbn.o)
 .debug_info    0x0000000000419f24      0x203 c:/program files/microchip/xc32/v4.00/bin/bin/../../lib/gcc/pic32mx/8.3.1/../../../../pic32mx/lib/fpu64\libm-musl.a(sin.o)
 .debug_info    0x000000000041a127      0x259 c:/program files/microchip/xc32/v4.00/bin/bin/../../lib/gcc/pic32mx/8.3.1/../../../../pic32mx/lib/fpu64\libm-musl.a(sqrt.o)
 .debug_info    0x000000000041a380      0x18a c:/program files/microchip/xc32/v4.00/bin/bin/../../lib/gcc/pic32mx/8.3.1/../../../../pic32mx/lib/fpu64\libm-musl.a(__cos.o)
 .debug_info    0x000000000041a50a      0x322 c:/program files/microchip/xc32/v4.00/bin/bin/../../lib/gcc/pic32mx/8.3.1/../../../../pic32mx/lib/fpu64\libm-musl.a(__rem_pio2.o)
 .debug_info    0x000000000041a82c      0x3d5 c:/program files/microchip/xc32/v4.00/bin/bin/../../lib/gcc/pic32mx/8.3.1/../../../../pic32mx/lib/fpu64\libm-musl.a(__rem_pio2_large.o)
 .debug_info    0x000000000041ac01      0x19c c:/program files/microchip/xc32/v4.00/bin/bin/../../lib/gcc/pic32mx/8.3.1/../../../../pic32mx/lib/fpu64\libm-musl.a(__sin.o)
 .debug_info    0x000000000041ad9d       0xe3 c:/program files/microchip/xc32/v4.00/bin/bin/../../lib/gcc/pic32mx/8.3.1/../../../../pic32mx/lib/fpu64\libm-musl.a(fabs.o)
 .debug_info    0x000000000041ae80      0x17c c:/program files/microchip/xc32/v4.00/bin/bin/../../lib/gcc/pic32mx/8.3.1/../../../../pic32mx/lib/fpu64\libm-musl.a(floor.o)
 .debug_info    0x000000000041affc       0xae c:/program files/microchip/xc32/v4.00/bin/bin/../../lib/gcc/pic32mx/8.3.1/../../../../pic32mx/lib/fpu64\libpic32.a(sbrk.o)
 .debug_info    0x000000000041b0aa      0x33c c:/program files/microchip/xc32/v4.00/bin/bin/../../lib/gcc/pic32mx/8.3.1/fpu64\libgcc.a(_lshrdi3.o)
 .debug_info    0x000000000041b3e6      0x33c c:/program files/microchip/xc32/v4.00/bin/bin/../../lib/gcc/pic32mx/8.3.1/fpu64\libgcc.a(_ashldi3.o)

.debug_abbrev   0x0000000000000000     0x36e6
 *.elf(.debug_abbrev)
 *(.debug_abbrev)
 .debug_abbrev  0x0000000000000000       0x2e c:/program files/microchip/xc32/v4.00/bin/bin/../../lib/gcc/pic32mx/8.3.1/../../../../pic32mx/lib/fpu64\software-debug-break.o
 .debug_abbrev  0x000000000000002e      0x21a build/DSP_TU/debug/_ext/1736525323/plib_adchs.o
 .debug_abbrev  0x0000000000000248      0x16f build/DSP_TU/debug/_ext/2093422612/plib_clk.o
 .debug_abbrev  0x00000000000003b7      0x256 build/DSP_TU/debug/_ext/471522303/plib_evic.o
 .debug_abbrev  0x000000000000060d      0x1ce build/DSP_TU/debug/_ext/471468475/plib_gpio.o
 .debug_abbrev  0x00000000000007db      0x1b8 build/DSP_TU/debug/_ext/471242515/plib_ocmp1.o
 .debug_abbrev  0x0000000000000993      0x223 build/DSP_TU/debug/_ext/2093406237/plib_tmr2.o
 .debug_abbrev  0x0000000000000bb6      0x49e build/DSP_TU/debug/_ext/471065532/plib_uart2.o
 .debug_abbrev  0x0000000000001054       0x9e build/DSP_TU/debug/_ext/2030120972/xc32_monitor.o
 .debug_abbrev  0x00000000000010f2      0x1bf build/DSP_TU/debug/_ext/1044038098/initialization.o
 .debug_abbrev  0x00000000000012b1      0x190 build/DSP_TU/debug/_ext/1044038098/interrupts.o
 .debug_abbrev  0x0000000000001441      0x1b6 build/DSP_TU/debug/_ext/1044038098/exceptions.o
 .debug_abbrev  0x00000000000015f7      0x29b build/DSP_TU/debug/_ext/1360937237/main.o
 .debug_abbrev  0x0000000000001892      0x1a4 build/DSP_TU/debug/_ext/1360937237/PwmAudioOut.o
 .debug_abbrev  0x0000000000001a36      0x1b3 build/DSP_TU/debug/_ext/1360937237/biquad.o
 .debug_abbrev  0x0000000000001be9       0xd7 build/DSP_TU/debug/_ext/1360937237/dds.o
 .debug_abbrev  0x0000000000001cc0      0x179 build/DSP_TU/debug/_ext/1360937237/DynamicThreshold.o
 .debug_abbrev  0x0000000000001e39      0x13e build/DSP_TU/debug/_ext/1360937237/agc.o
 .debug_abbrev  0x0000000000001f77       0x12 C:\Users\HAROLD~1\AppData\Local\Temp\ccKBed8x.o
 .debug_abbrev  0x0000000000001f89       0x2e c:/program files/microchip/xc32/v4.00/bin/bin/../../lib/gcc/pic32mx/8.3.1/../../../../pic32mx/lib/fpu64\libpic32.a(default-on-reset.o)
 .debug_abbrev  0x0000000000001fb7       0x2e c:/program files/microchip/xc32/v4.00/bin/bin/../../lib/gcc/pic32mx/8.3.1/../../../../pic32mx/lib/fpu64\libpic32.a(default-on-bootstrap.o)
 .debug_abbrev  0x0000000000001fe5       0x31 c:/program files/microchip/xc32/v4.00/bin/bin/../../lib/gcc/pic32mx/8.3.1/../../../../pic32mx/lib/fpu64\libpic32.a(defaultinterrupt.o)
 .debug_abbrev  0x0000000000002016      0x43a c:/program files/microchip/xc32/v4.00/bin/bin/../../lib/gcc/pic32mx/8.3.1/../../../../pic32mx/lib/fpu64\libc-musl.a(malloc.o)
 .debug_abbrev  0x0000000000002450      0x142 c:/program files/microchip/xc32/v4.00/bin/bin/../../lib/gcc/pic32mx/8.3.1/../../../../pic32mx/lib/fpu64\libc-musl.a(expand_heap.o)
 .debug_abbrev  0x0000000000002592       0xbb c:/program files/microchip/xc32/v4.00/bin/bin/../../lib/gcc/pic32mx/8.3.1/../../../../pic32mx/lib/fpu64\libc-musl.a(memcpy.o)
 .debug_abbrev  0x000000000000264d       0xe3 c:/program files/microchip/xc32/v4.00/bin/bin/../../lib/gcc/pic32mx/8.3.1/../../../../pic32mx/lib/fpu64\libc-musl.a(libc.o)
 .debug_abbrev  0x0000000000002730      0x133 c:/program files/microchip/xc32/v4.00/bin/bin/../../lib/gcc/pic32mx/8.3.1/../../../../pic32mx/lib/fpu64\libm-musl.a(cos.o)
 .debug_abbrev  0x0000000000002863      0x1fc c:/program files/microchip/xc32/v4.00/bin/bin/../../lib/gcc/pic32mx/8.3.1/../../../../pic32mx/lib/fpu64\libm-musl.a(pow.o)
 .debug_abbrev  0x0000000000002a5f       0xbf c:/program files/microchip/xc32/v4.00/bin/bin/../../lib/gcc/pic32mx/8.3.1/../../../../pic32mx/lib/fpu64\libm-musl.a(scalbn.o)
 .debug_abbrev  0x0000000000002b1e      0x13e c:/program files/microchip/xc32/v4.00/bin/bin/../../lib/gcc/pic32mx/8.3.1/../../../../pic32mx/lib/fpu64\libm-musl.a(sin.o)
 .debug_abbrev  0x0000000000002c5c      0x108 c:/program files/microchip/xc32/v4.00/bin/bin/../../lib/gcc/pic32mx/8.3.1/../../../../pic32mx/lib/fpu64\libm-musl.a(sqrt.o)
 .debug_abbrev  0x0000000000002d64       0xbb c:/program files/microchip/xc32/v4.00/bin/bin/../../lib/gcc/pic32mx/8.3.1/../../../../pic32mx/lib/fpu64\libm-musl.a(__cos.o)
 .debug_abbrev  0x0000000000002e1f      0x153 c:/program files/microchip/xc32/v4.00/bin/bin/../../lib/gcc/pic32mx/8.3.1/../../../../pic32mx/lib/fpu64\libm-musl.a(__rem_pio2.o)
 .debug_abbrev  0x0000000000002f72      0x16c c:/program files/microchip/xc32/v4.00/bin/bin/../../lib/gcc/pic32mx/8.3.1/../../../../pic32mx/lib/fpu64\libm-musl.a(__rem_pio2_large.o)
 .debug_abbrev  0x00000000000030de       0xbb c:/program files/microchip/xc32/v4.00/bin/bin/../../lib/gcc/pic32mx/8.3.1/../../../../pic32mx/lib/fpu64\libm-musl.a(__sin.o)
 .debug_abbrev  0x0000000000003199       0xad c:/program files/microchip/xc32/v4.00/bin/bin/../../lib/gcc/pic32mx/8.3.1/../../../../pic32mx/lib/fpu64\libm-musl.a(fabs.o)
 .debug_abbrev  0x0000000000003246      0x114 c:/program files/microchip/xc32/v4.00/bin/bin/../../lib/gcc/pic32mx/8.3.1/../../../../pic32mx/lib/fpu64\libm-musl.a(floor.o)
 .debug_abbrev  0x000000000000335a       0x90 c:/program files/microchip/xc32/v4.00/bin/bin/../../lib/gcc/pic32mx/8.3.1/../../../../pic32mx/lib/fpu64\libpic32.a(sbrk.o)
 .debug_abbrev  0x00000000000033ea      0x17e c:/program files/microchip/xc32/v4.00/bin/bin/../../lib/gcc/pic32mx/8.3.1/fpu64\libgcc.a(_lshrdi3.o)
 .debug_abbrev  0x0000000000003568      0x17e c:/program files/microchip/xc32/v4.00/bin/bin/../../lib/gcc/pic32mx/8.3.1/fpu64\libgcc.a(_ashldi3.o)

.debug_line     0x0000000000000000     0x7d09
 *.elf(.debug_line)
 *(.debug_line)
 .debug_line    0x0000000000000000       0xb1 c:/program files/microchip/xc32/v4.00/bin/bin/../../lib/gcc/pic32mx/8.3.1/../../../../pic32mx/lib/fpu64\software-debug-break.o
 .debug_line    0x00000000000000b1      0x4c9 build/DSP_TU/debug/_ext/1736525323/plib_adchs.o
 .debug_line    0x000000000000057a      0x22d build/DSP_TU/debug/_ext/2093422612/plib_clk.o
 .debug_line    0x00000000000007a7      0x387 build/DSP_TU/debug/_ext/471522303/plib_evic.o
 .debug_line    0x0000000000000b2e      0x36a build/DSP_TU/debug/_ext/471468475/plib_gpio.o
 .debug_line    0x0000000000000e98      0x26b build/DSP_TU/debug/_ext/471242515/plib_ocmp1.o
 .debug_line    0x0000000000001103      0x398 build/DSP_TU/debug/_ext/2093406237/plib_tmr2.o
 .debug_line    0x000000000000149b      0xb61 build/DSP_TU/debug/_ext/471065532/plib_uart2.o
 .debug_line    0x0000000000001ffc      0x107 build/DSP_TU/debug/_ext/2030120972/xc32_monitor.o
 .debug_line    0x0000000000002103      0x511 build/DSP_TU/debug/_ext/1044038098/initialization.o
 .debug_line    0x0000000000002614      0x218 build/DSP_TU/debug/_ext/1044038098/interrupts.o
 .debug_line    0x000000000000282c      0x28a build/DSP_TU/debug/_ext/1044038098/exceptions.o
 .debug_line    0x0000000000002ab6      0x6a9 build/DSP_TU/debug/_ext/1360937237/main.o
 .debug_line    0x000000000000315f      0x239 build/DSP_TU/debug/_ext/1360937237/PwmAudioOut.o
 .debug_line    0x0000000000003398      0x375 build/DSP_TU/debug/_ext/1360937237/biquad.o
 .debug_line    0x000000000000370d      0x105 build/DSP_TU/debug/_ext/1360937237/dds.o
 .debug_line    0x0000000000003812      0x17e build/DSP_TU/debug/_ext/1360937237/DynamicThreshold.o
 .debug_line    0x0000000000003990      0x12e build/DSP_TU/debug/_ext/1360937237/agc.o
 .debug_line    0x0000000000003abe      0x17c C:\Users\HAROLD~1\AppData\Local\Temp\ccKBed8x.o
 .debug_line    0x0000000000003c3a       0xa6 c:/program files/microchip/xc32/v4.00/bin/bin/../../lib/gcc/pic32mx/8.3.1/../../../../pic32mx/lib/fpu64\libpic32.a(default-on-reset.o)
 .debug_line    0x0000000000003ce0       0xaa c:/program files/microchip/xc32/v4.00/bin/bin/../../lib/gcc/pic32mx/8.3.1/../../../../pic32mx/lib/fpu64\libpic32.a(default-on-bootstrap.o)
 .debug_line    0x0000000000003d8a       0xc9 c:/program files/microchip/xc32/v4.00/bin/bin/../../lib/gcc/pic32mx/8.3.1/../../../../pic32mx/lib/fpu64\libpic32.a(defaultinterrupt.o)
 .debug_line    0x0000000000003e53      0xb58 c:/program files/microchip/xc32/v4.00/bin/bin/../../lib/gcc/pic32mx/8.3.1/../../../../pic32mx/lib/fpu64\libc-musl.a(malloc.o)
 .debug_line    0x00000000000049ab      0x244 c:/program files/microchip/xc32/v4.00/bin/bin/../../lib/gcc/pic32mx/8.3.1/../../../../pic32mx/lib/fpu64\libc-musl.a(expand_heap.o)
 .debug_line    0x0000000000004bef      0x140 c:/program files/microchip/xc32/v4.00/bin/bin/../../lib/gcc/pic32mx/8.3.1/../../../../pic32mx/lib/fpu64\libc-musl.a(memcpy.o)
 .debug_line    0x0000000000004d2f      0x189 c:/program files/microchip/xc32/v4.00/bin/bin/../../lib/gcc/pic32mx/8.3.1/../../../../pic32mx/lib/fpu64\libc-musl.a(libc.o)
 .debug_line    0x0000000000004eb8      0x2a3 c:/program files/microchip/xc32/v4.00/bin/bin/../../lib/gcc/pic32mx/8.3.1/../../../../pic32mx/lib/fpu64\libm-musl.a(cos.o)
 .debug_line    0x000000000000515b      0x89a c:/program files/microchip/xc32/v4.00/bin/bin/../../lib/gcc/pic32mx/8.3.1/../../../../pic32mx/lib/fpu64\libm-musl.a(pow.o)
 .debug_line    0x00000000000059f5      0x203 c:/program files/microchip/xc32/v4.00/bin/bin/../../lib/gcc/pic32mx/8.3.1/../../../../pic32mx/lib/fpu64\libm-musl.a(scalbn.o)
 .debug_line    0x0000000000005bf8      0x2ab c:/program files/microchip/xc32/v4.00/bin/bin/../../lib/gcc/pic32mx/8.3.1/../../../../pic32mx/lib/fpu64\libm-musl.a(sin.o)
 .debug_line    0x0000000000005ea3      0x3ea c:/program files/microchip/xc32/v4.00/bin/bin/../../lib/gcc/pic32mx/8.3.1/../../../../pic32mx/lib/fpu64\libm-musl.a(sqrt.o)
 .debug_line    0x000000000000628d      0x1f2 c:/program files/microchip/xc32/v4.00/bin/bin/../../lib/gcc/pic32mx/8.3.1/../../../../pic32mx/lib/fpu64\libm-musl.a(__cos.o)
 .debug_line    0x000000000000647f      0x595 c:/program files/microchip/xc32/v4.00/bin/bin/../../lib/gcc/pic32mx/8.3.1/../../../../pic32mx/lib/fpu64\libm-musl.a(__rem_pio2.o)
 .debug_line    0x0000000000006a14      0x691 c:/program files/microchip/xc32/v4.00/bin/bin/../../lib/gcc/pic32mx/8.3.1/../../../../pic32mx/lib/fpu64\libm-musl.a(__rem_pio2_large.o)
 .debug_line    0x00000000000070a5      0x1f2 c:/program files/microchip/xc32/v4.00/bin/bin/../../lib/gcc/pic32mx/8.3.1/../../../../pic32mx/lib/fpu64\libm-musl.a(__sin.o)
 .debug_line    0x0000000000007297      0x19f c:/program files/microchip/xc32/v4.00/bin/bin/../../lib/gcc/pic32mx/8.3.1/../../../../pic32mx/lib/fpu64\libm-musl.a(fabs.o)
 .debug_line    0x0000000000007436      0x203 c:/program files/microchip/xc32/v4.00/bin/bin/../../lib/gcc/pic32mx/8.3.1/../../../../pic32mx/lib/fpu64\libm-musl.a(floor.o)
 .debug_line    0x0000000000007639      0x1af c:/program files/microchip/xc32/v4.00/bin/bin/../../lib/gcc/pic32mx/8.3.1/../../../../pic32mx/lib/fpu64\libpic32.a(sbrk.o)
 .debug_line    0x00000000000077e8        0x0 c:/program files/microchip/xc32/v4.00/bin/bin/../../lib/gcc/pic32mx/8.3.1/../../../../pic32mx/lib/fpu64\libpic32.a(errno.o)
 .debug_line    0x00000000000077e8      0x290 c:/program files/microchip/xc32/v4.00/bin/bin/../../lib/gcc/pic32mx/8.3.1/fpu64\libgcc.a(_lshrdi3.o)
 .debug_line    0x0000000000007a78      0x291 c:/program files/microchip/xc32/v4.00/bin/bin/../../lib/gcc/pic32mx/8.3.1/fpu64\libgcc.a(_ashldi3.o)

.debug_frame    0x0000000000000000      0xf8c
 *.elf(.debug_frame)
 *(.debug_frame)
 .debug_frame   0x0000000000000000       0x20 c:/program files/microchip/xc32/v4.00/bin/bin/../../lib/gcc/pic32mx/8.3.1/../../../../pic32mx/lib/fpu64\software-debug-break.o
 .debug_frame   0x0000000000000020       0xf0 build/DSP_TU/debug/_ext/1736525323/plib_adchs.o
 .debug_frame   0x0000000000000110       0x20 build/DSP_TU/debug/_ext/2093422612/plib_clk.o
 .debug_frame   0x0000000000000130       0xd4 build/DSP_TU/debug/_ext/471522303/plib_evic.o
 .debug_frame   0x0000000000000204       0xa0 build/DSP_TU/debug/_ext/471468475/plib_gpio.o
 .debug_frame   0x00000000000002a4       0x70 build/DSP_TU/debug/_ext/471242515/plib_ocmp1.o
 .debug_frame   0x0000000000000314       0xcc build/DSP_TU/debug/_ext/2093406237/plib_tmr2.o
 .debug_frame   0x00000000000003e0      0x204 build/DSP_TU/debug/_ext/471065532/plib_uart2.o
 .debug_frame   0x00000000000005e4       0x30 build/DSP_TU/debug/_ext/2030120972/xc32_monitor.o
 .debug_frame   0x0000000000000614       0x2c build/DSP_TU/debug/_ext/1044038098/initialization.o
 .debug_frame   0x0000000000000640      0x260 build/DSP_TU/debug/_ext/1044038098/interrupts.o
 .debug_frame   0x00000000000008a0       0x70 build/DSP_TU/debug/_ext/1044038098/exceptions.o
 .debug_frame   0x0000000000000910       0x50 build/DSP_TU/debug/_ext/1360937237/main.o
 .debug_frame   0x0000000000000960       0x2c build/DSP_TU/debug/_ext/1360937237/PwmAudioOut.o
 .debug_frame   0x000000000000098c       0x54 build/DSP_TU/debug/_ext/1360937237/biquad.o
 .debug_frame   0x00000000000009e0       0x3c build/DSP_TU/debug/_ext/1360937237/dds.o
 .debug_frame   0x0000000000000a1c       0x48 build/DSP_TU/debug/_ext/1360937237/DynamicThreshold.o
 .debug_frame   0x0000000000000a64       0x4c build/DSP_TU/debug/_ext/1360937237/agc.o
 .debug_frame   0x0000000000000ab0       0x20 c:/program files/microchip/xc32/v4.00/bin/bin/../../lib/gcc/pic32mx/8.3.1/../../../../pic32mx/lib/fpu64\libpic32.a(default-on-reset.o)
 .debug_frame   0x0000000000000ad0       0x20 c:/program files/microchip/xc32/v4.00/bin/bin/../../lib/gcc/pic32mx/8.3.1/../../../../pic32mx/lib/fpu64\libpic32.a(default-on-bootstrap.o)
 .debug_frame   0x0000000000000af0       0x20 c:/program files/microchip/xc32/v4.00/bin/bin/../../lib/gcc/pic32mx/8.3.1/../../../../pic32mx/lib/fpu64\libpic32.a(defaultinterrupt.o)
 .debug_frame   0x0000000000000b10      0x168 c:/program files/microchip/xc32/v4.00/bin/bin/../../lib/gcc/pic32mx/8.3.1/../../../../pic32mx/lib/fpu64\libc-musl.a(malloc.o)
 .debug_frame   0x0000000000000c78       0x2c c:/program files/microchip/xc32/v4.00/bin/bin/../../lib/gcc/pic32mx/8.3.1/../../../../pic32mx/lib/fpu64\libc-musl.a(expand_heap.o)
 .debug_frame   0x0000000000000ca4       0x20 c:/program files/microchip/xc32/v4.00/bin/bin/../../lib/gcc/pic32mx/8.3.1/../../../../pic32mx/lib/fpu64\libc-musl.a(memcpy.o)
 .debug_frame   0x0000000000000cc4       0x2c c:/program files/microchip/xc32/v4.00/bin/bin/../../lib/gcc/pic32mx/8.3.1/../../../../pic32mx/lib/fpu64\libm-musl.a(cos.o)
 .debug_frame   0x0000000000000cf0       0x44 c:/program files/microchip/xc32/v4.00/bin/bin/../../lib/gcc/pic32mx/8.3.1/../../../../pic32mx/lib/fpu64\libm-musl.a(pow.o)
 .debug_frame   0x0000000000000d34       0x20 c:/program files/microchip/xc32/v4.00/bin/bin/../../lib/gcc/pic32mx/8.3.1/../../../../pic32mx/lib/fpu64\libm-musl.a(scalbn.o)
 .debug_frame   0x0000000000000d54       0x2c c:/program files/microchip/xc32/v4.00/bin/bin/../../lib/gcc/pic32mx/8.3.1/../../../../pic32mx/lib/fpu64\libm-musl.a(sin.o)
 .debug_frame   0x0000000000000d80       0x20 c:/program files/microchip/xc32/v4.00/bin/bin/../../lib/gcc/pic32mx/8.3.1/../../../../pic32mx/lib/fpu64\libm-musl.a(sqrt.o)
 .debug_frame   0x0000000000000da0       0x20 c:/program files/microchip/xc32/v4.00/bin/bin/../../lib/gcc/pic32mx/8.3.1/../../../../pic32mx/lib/fpu64\libm-musl.a(__cos.o)
 .debug_frame   0x0000000000000dc0       0x30 c:/program files/microchip/xc32/v4.00/bin/bin/../../lib/gcc/pic32mx/8.3.1/../../../../pic32mx/lib/fpu64\libm-musl.a(__rem_pio2.o)
 .debug_frame   0x0000000000000df0       0x58 c:/program files/microchip/xc32/v4.00/bin/bin/../../lib/gcc/pic32mx/8.3.1/../../../../pic32mx/lib/fpu64\libm-musl.a(__rem_pio2_large.o)
 .debug_frame   0x0000000000000e48       0x20 c:/program files/microchip/xc32/v4.00/bin/bin/../../lib/gcc/pic32mx/8.3.1/../../../../pic32mx/lib/fpu64\libm-musl.a(__sin.o)
 .debug_frame   0x0000000000000e68       0x20 c:/program files/microchip/xc32/v4.00/bin/bin/../../lib/gcc/pic32mx/8.3.1/../../../../pic32mx/lib/fpu64\libm-musl.a(fabs.o)
 .debug_frame   0x0000000000000e88       0x2c c:/program files/microchip/xc32/v4.00/bin/bin/../../lib/gcc/pic32mx/8.3.1/../../../../pic32mx/lib/fpu64\libm-musl.a(floor.o)
 .debug_frame   0x0000000000000eb4       0x98 c:/program files/microchip/xc32/v4.00/bin/bin/../../lib/gcc/pic32mx/8.3.1/../../../../pic32mx/lib/fpu64\libpic32.a(sbrk.o)
 .debug_frame   0x0000000000000f4c       0x20 c:/program files/microchip/xc32/v4.00/bin/bin/../../lib/gcc/pic32mx/8.3.1/fpu64\libgcc.a(_lshrdi3.o)
 .debug_frame   0x0000000000000f6c       0x20 c:/program files/microchip/xc32/v4.00/bin/bin/../../lib/gcc/pic32mx/8.3.1/fpu64\libgcc.a(_ashldi3.o)

.debug_str      0x0000000000000000   0x16508f
 *.elf(.debug_str)
 *(.debug_str)
 .debug_str     0x0000000000000000      0x3b0 c:/program files/microchip/xc32/v4.00/bin/bin/../../lib/gcc/pic32mx/8.3.1/../../../../pic32mx/lib/fpu64\software-debug-break.o
 .debug_str     0x00000000000003b0    0x1d377 build/DSP_TU/debug/_ext/1736525323/plib_adchs.o
 .debug_str     0x000000000001d727    0x1cfad build/DSP_TU/debug/_ext/2093422612/plib_clk.o
 .debug_str     0x000000000003a6d4    0x1e23d build/DSP_TU/debug/_ext/471522303/plib_evic.o
 .debug_str     0x0000000000058911    0x1d051 build/DSP_TU/debug/_ext/471468475/plib_gpio.o
 .debug_str     0x0000000000075962    0x1d030 build/DSP_TU/debug/_ext/471242515/plib_ocmp1.o
 .debug_str     0x0000000000092992    0x1d0ce build/DSP_TU/debug/_ext/2093406237/plib_tmr2.o
 .debug_str     0x00000000000afa60    0x1d6a6 build/DSP_TU/debug/_ext/471065532/plib_uart2.o
 .debug_str     0x00000000000cd106      0x325 build/DSP_TU/debug/_ext/2030120972/xc32_monitor.o
 .debug_str     0x00000000000cd42b    0x1d021 build/DSP_TU/debug/_ext/1044038098/initialization.o
 .debug_str     0x00000000000ea44c    0x1d047 build/DSP_TU/debug/_ext/1044038098/interrupts.o
 .debug_str     0x0000000000107493    0x1d0f2 build/DSP_TU/debug/_ext/1044038098/exceptions.o
 .debug_str     0x0000000000124585    0x1d269 build/DSP_TU/debug/_ext/1360937237/main.o
 .debug_str     0x00000000001417ee    0x1cfc3 build/DSP_TU/debug/_ext/1360937237/PwmAudioOut.o
 .debug_str     0x000000000015e7b1      0x3b9 build/DSP_TU/debug/_ext/1360937237/biquad.o
 .debug_str     0x000000000015eb6a      0x371 build/DSP_TU/debug/_ext/1360937237/dds.o
 .debug_str     0x000000000015eedb      0x40b build/DSP_TU/debug/_ext/1360937237/DynamicThreshold.o
 .debug_str     0x000000000015f2e6      0x3b1 build/DSP_TU/debug/_ext/1360937237/agc.o
 .debug_str     0x000000000015f697       0xbb C:\Users\HAROLD~1\AppData\Local\Temp\ccKBed8x.o
 .debug_str     0x000000000015f752      0x39a c:/program files/microchip/xc32/v4.00/bin/bin/../../lib/gcc/pic32mx/8.3.1/../../../../pic32mx/lib/fpu64\libpic32.a(default-on-reset.o)
 .debug_str     0x000000000015faec      0x3a2 c:/program files/microchip/xc32/v4.00/bin/bin/../../lib/gcc/pic32mx/8.3.1/../../../../pic32mx/lib/fpu64\libpic32.a(default-on-bootstrap.o)
 .debug_str     0x000000000015fe8e      0x3b4 c:/program files/microchip/xc32/v4.00/bin/bin/../../lib/gcc/pic32mx/8.3.1/../../../../pic32mx/lib/fpu64\libpic32.a(defaultinterrupt.o)
 .debug_str     0x0000000000160242      0x62c c:/program files/microchip/xc32/v4.00/bin/bin/../../lib/gcc/pic32mx/8.3.1/../../../../pic32mx/lib/fpu64\libc-musl.a(malloc.o)
 .debug_str     0x000000000016086e      0x4ed c:/program files/microchip/xc32/v4.00/bin/bin/../../lib/gcc/pic32mx/8.3.1/../../../../pic32mx/lib/fpu64\libc-musl.a(expand_heap.o)
 .debug_str     0x0000000000160d5b      0x356 c:/program files/microchip/xc32/v4.00/bin/bin/../../lib/gcc/pic32mx/8.3.1/../../../../pic32mx/lib/fpu64\libc-musl.a(memcpy.o)
 .debug_str     0x00000000001610b1      0x4a0 c:/program files/microchip/xc32/v4.00/bin/bin/../../lib/gcc/pic32mx/8.3.1/../../../../pic32mx/lib/fpu64\libc-musl.a(libc.o)
 .debug_str     0x0000000000161551      0x3c9 c:/program files/microchip/xc32/v4.00/bin/bin/../../lib/gcc/pic32mx/8.3.1/../../../../pic32mx/lib/fpu64\libm-musl.a(cos.o)
 .debug_str     0x000000000016191a      0x412 c:/program files/microchip/xc32/v4.00/bin/bin/../../lib/gcc/pic32mx/8.3.1/../../../../pic32mx/lib/fpu64\libm-musl.a(pow.o)
 .debug_str     0x0000000000161d2c      0x3b0 c:/program files/microchip/xc32/v4.00/bin/bin/../../lib/gcc/pic32mx/8.3.1/../../../../pic32mx/lib/fpu64\libm-musl.a(scalbn.o)
 .debug_str     0x00000000001620dc      0x3c9 c:/program files/microchip/xc32/v4.00/bin/bin/../../lib/gcc/pic32mx/8.3.1/../../../../pic32mx/lib/fpu64\libm-musl.a(sin.o)
 .debug_str     0x00000000001624a5      0x3c4 c:/program files/microchip/xc32/v4.00/bin/bin/../../lib/gcc/pic32mx/8.3.1/../../../../pic32mx/lib/fpu64\libm-musl.a(sqrt.o)
 .debug_str     0x0000000000162869      0x3a5 c:/program files/microchip/xc32/v4.00/bin/bin/../../lib/gcc/pic32mx/8.3.1/../../../../pic32mx/lib/fpu64\libm-musl.a(__cos.o)
 .debug_str     0x0000000000162c0e      0x421 c:/program files/microchip/xc32/v4.00/bin/bin/../../lib/gcc/pic32mx/8.3.1/../../../../pic32mx/lib/fpu64\libm-musl.a(__rem_pio2.o)
 .debug_str     0x000000000016302f      0x3ef c:/program files/microchip/xc32/v4.00/bin/bin/../../lib/gcc/pic32mx/8.3.1/../../../../pic32mx/lib/fpu64\libm-musl.a(__rem_pio2_large.o)
 .debug_str     0x000000000016341e      0x3a5 c:/program files/microchip/xc32/v4.00/bin/bin/../../lib/gcc/pic32mx/8.3.1/../../../../pic32mx/lib/fpu64\libm-musl.a(__sin.o)
 .debug_str     0x00000000001637c3      0x3a3 c:/program files/microchip/xc32/v4.00/bin/bin/../../lib/gcc/pic32mx/8.3.1/../../../../pic32mx/lib/fpu64\libm-musl.a(fabs.o)
 .debug_str     0x0000000000163b66      0x3c0 c:/program files/microchip/xc32/v4.00/bin/bin/../../lib/gcc/pic32mx/8.3.1/../../../../pic32mx/lib/fpu64\libm-musl.a(floor.o)
 .debug_str     0x0000000000163f26      0x3ba c:/program files/microchip/xc32/v4.00/bin/bin/../../lib/gcc/pic32mx/8.3.1/../../../../pic32mx/lib/fpu64\libpic32.a(sbrk.o)
 .debug_str     0x00000000001642e0      0x385 c:/program files/microchip/xc32/v4.00/bin/bin/../../lib/gcc/pic32mx/8.3.1/../../../../pic32mx/lib/fpu64\libpic32.a(errno.o)
 .debug_str     0x0000000000164665      0x515 c:/program files/microchip/xc32/v4.00/bin/bin/../../lib/gcc/pic32mx/8.3.1/fpu64\libgcc.a(_lshrdi3.o)
 .debug_str     0x0000000000164b7a      0x515 c:/program files/microchip/xc32/v4.00/bin/bin/../../lib/gcc/pic32mx/8.3.1/fpu64\libgcc.a(_ashldi3.o)

.debug_loc      0x0000000000000000     0x5a85
 *.elf(.debug_loc)
 *(.debug_loc)
 .debug_loc     0x0000000000000000       0xd2 build/DSP_TU/debug/_ext/1736525323/plib_adchs.o
 .debug_loc     0x00000000000000d2      0x149 build/DSP_TU/debug/_ext/471522303/plib_evic.o
 .debug_loc     0x000000000000021b      0x172 build/DSP_TU/debug/_ext/471468475/plib_gpio.o
 .debug_loc     0x000000000000038d       0x42 build/DSP_TU/debug/_ext/2093406237/plib_tmr2.o
 .debug_loc     0x00000000000003cf      0xb42 build/DSP_TU/debug/_ext/471065532/plib_uart2.o
 .debug_loc     0x0000000000000f11       0x51 build/DSP_TU/debug/_ext/1044038098/initialization.o
 .debug_loc     0x0000000000000f62       0xb4 build/DSP_TU/debug/_ext/1044038098/interrupts.o
 .debug_loc     0x0000000000001016       0x80 build/DSP_TU/debug/_ext/1044038098/exceptions.o
 .debug_loc     0x0000000000001096       0xf2 build/DSP_TU/debug/_ext/1360937237/main.o
 .debug_loc     0x0000000000001188       0x54 build/DSP_TU/debug/_ext/1360937237/PwmAudioOut.o
 .debug_loc     0x00000000000011dc      0x649 build/DSP_TU/debug/_ext/1360937237/biquad.o
 .debug_loc     0x0000000000001825       0x54 build/DSP_TU/debug/_ext/1360937237/dds.o
 .debug_loc     0x0000000000001879       0xb8 build/DSP_TU/debug/_ext/1360937237/DynamicThreshold.o
 .debug_loc     0x0000000000001931       0xa4 build/DSP_TU/debug/_ext/1360937237/agc.o
 .debug_loc     0x00000000000019d5      0xbd3 c:/program files/microchip/xc32/v4.00/bin/bin/../../lib/gcc/pic32mx/8.3.1/../../../../pic32mx/lib/fpu64\libc-musl.a(malloc.o)
 .debug_loc     0x00000000000025a8       0x4f c:/program files/microchip/xc32/v4.00/bin/bin/../../lib/gcc/pic32mx/8.3.1/../../../../pic32mx/lib/fpu64\libc-musl.a(expand_heap.o)
 .debug_loc     0x00000000000025f7      0x118 c:/program files/microchip/xc32/v4.00/bin/bin/../../lib/gcc/pic32mx/8.3.1/../../../../pic32mx/lib/fpu64\libc-musl.a(memcpy.o)
 .debug_loc     0x000000000000270f      0x11f c:/program files/microchip/xc32/v4.00/bin/bin/../../lib/gcc/pic32mx/8.3.1/../../../../pic32mx/lib/fpu64\libm-musl.a(cos.o)
 .debug_loc     0x000000000000282e     0x104f c:/program files/microchip/xc32/v4.00/bin/bin/../../lib/gcc/pic32mx/8.3.1/../../../../pic32mx/lib/fpu64\libm-musl.a(pow.o)
 .debug_loc     0x000000000000387d      0x16e c:/program files/microchip/xc32/v4.00/bin/bin/../../lib/gcc/pic32mx/8.3.1/../../../../pic32mx/lib/fpu64\libm-musl.a(scalbn.o)
 .debug_loc     0x00000000000039eb      0x164 c:/program files/microchip/xc32/v4.00/bin/bin/../../lib/gcc/pic32mx/8.3.1/../../../../pic32mx/lib/fpu64\libm-musl.a(sin.o)
 .debug_loc     0x0000000000003b4f      0x407 c:/program files/microchip/xc32/v4.00/bin/bin/../../lib/gcc/pic32mx/8.3.1/../../../../pic32mx/lib/fpu64\libm-musl.a(sqrt.o)
 .debug_loc     0x0000000000003f56      0x320 c:/program files/microchip/xc32/v4.00/bin/bin/../../lib/gcc/pic32mx/8.3.1/../../../../pic32mx/lib/fpu64\libm-musl.a(__cos.o)
 .debug_loc     0x0000000000004276      0x880 c:/program files/microchip/xc32/v4.00/bin/bin/../../lib/gcc/pic32mx/8.3.1/../../../../pic32mx/lib/fpu64\libm-musl.a(__rem_pio2.o)
 .debug_loc     0x0000000000004af6      0xb40 c:/program files/microchip/xc32/v4.00/bin/bin/../../lib/gcc/pic32mx/8.3.1/../../../../pic32mx/lib/fpu64\libm-musl.a(__rem_pio2_large.o)
 .debug_loc     0x0000000000005636      0x21f c:/program files/microchip/xc32/v4.00/bin/bin/../../lib/gcc/pic32mx/8.3.1/../../../../pic32mx/lib/fpu64\libm-musl.a(__sin.o)
 .debug_loc     0x0000000000005855       0x38 c:/program files/microchip/xc32/v4.00/bin/bin/../../lib/gcc/pic32mx/8.3.1/../../../../pic32mx/lib/fpu64\libm-musl.a(fabs.o)
 .debug_loc     0x000000000000588d       0x7e c:/program files/microchip/xc32/v4.00/bin/bin/../../lib/gcc/pic32mx/8.3.1/../../../../pic32mx/lib/fpu64\libm-musl.a(floor.o)
 .debug_loc     0x000000000000590b       0x6c c:/program files/microchip/xc32/v4.00/bin/bin/../../lib/gcc/pic32mx/8.3.1/../../../../pic32mx/lib/fpu64\libpic32.a(sbrk.o)
 .debug_loc     0x0000000000005977       0x99 c:/program files/microchip/xc32/v4.00/bin/bin/../../lib/gcc/pic32mx/8.3.1/fpu64\libgcc.a(_lshrdi3.o)
 .debug_loc     0x0000000000005a10       0x75 c:/program files/microchip/xc32/v4.00/bin/bin/../../lib/gcc/pic32mx/8.3.1/fpu64\libgcc.a(_ashldi3.o)

.debug_macinfo
 *.elf(.debug_macinfo)
 *(.debug_macinfo)

.debug_weaknames
 *.elf(.debug_weaknames)
 *(.debug_weaknames)

.debug_funcnames
 *.elf(.debug_funcnames)
 *(.debug_funcnames)

.debug_typenames
 *.elf(.debug_typenames)
 *(.debug_typenames)

.debug_varnames
 *.elf(.debug_varnames)
 *(.debug_varnames)

.debug_pubtypes
 *.elf(.debug_pubtypes)
 *(.debug_pubtypes)

.debug_ranges   0x0000000000000000      0xa40
 *.elf(.debug_ranges)
 *(.debug_ranges)
 .debug_ranges  0x0000000000000000       0x10 c:/program files/microchip/xc32/v4.00/bin/bin/../../lib/gcc/pic32mx/8.3.1/../../../../pic32mx/lib/fpu64\software-debug-break.o
 .debug_ranges  0x0000000000000010       0x78 build/DSP_TU/debug/_ext/1736525323/plib_adchs.o
 .debug_ranges  0x0000000000000088       0x10 build/DSP_TU/debug/_ext/2093422612/plib_clk.o
 .debug_ranges  0x0000000000000098       0x58 build/DSP_TU/debug/_ext/471522303/plib_evic.o
 .debug_ranges  0x00000000000000f0       0x50 build/DSP_TU/debug/_ext/471468475/plib_gpio.o
 .debug_ranges  0x0000000000000140       0x38 build/DSP_TU/debug/_ext/471242515/plib_ocmp1.o
 .debug_ranges  0x0000000000000178       0x60 build/DSP_TU/debug/_ext/2093406237/plib_tmr2.o
 .debug_ranges  0x00000000000001d8      0x198 build/DSP_TU/debug/_ext/471065532/plib_uart2.o
 .debug_ranges  0x0000000000000370       0x18 build/DSP_TU/debug/_ext/2030120972/xc32_monitor.o
 .debug_ranges  0x0000000000000388       0x10 build/DSP_TU/debug/_ext/1044038098/initialization.o
 .debug_ranges  0x0000000000000398       0x28 build/DSP_TU/debug/_ext/1044038098/interrupts.o
 .debug_ranges  0x00000000000003c0       0x28 build/DSP_TU/debug/_ext/1044038098/exceptions.o
 .debug_ranges  0x00000000000003e8       0x10 build/DSP_TU/debug/_ext/1360937237/main.o
 .debug_ranges  0x00000000000003f8       0x10 build/DSP_TU/debug/_ext/1360937237/PwmAudioOut.o
 .debug_ranges  0x0000000000000408       0x18 build/DSP_TU/debug/_ext/1360937237/biquad.o
 .debug_ranges  0x0000000000000420       0x18 build/DSP_TU/debug/_ext/1360937237/dds.o
 .debug_ranges  0x0000000000000438       0x18 build/DSP_TU/debug/_ext/1360937237/DynamicThreshold.o
 .debug_ranges  0x0000000000000450       0x18 build/DSP_TU/debug/_ext/1360937237/agc.o
 .debug_ranges  0x0000000000000468       0x48 C:\Users\HAROLD~1\AppData\Local\Temp\ccKBed8x.o
 .debug_ranges  0x00000000000004b0       0x10 c:/program files/microchip/xc32/v4.00/bin/bin/../../lib/gcc/pic32mx/8.3.1/../../../../pic32mx/lib/fpu64\libpic32.a(default-on-reset.o)
 .debug_ranges  0x00000000000004c0       0x10 c:/program files/microchip/xc32/v4.00/bin/bin/../../lib/gcc/pic32mx/8.3.1/../../../../pic32mx/lib/fpu64\libpic32.a(default-on-bootstrap.o)
 .debug_ranges  0x00000000000004d0       0x10 c:/program files/microchip/xc32/v4.00/bin/bin/../../lib/gcc/pic32mx/8.3.1/../../../../pic32mx/lib/fpu64\libpic32.a(defaultinterrupt.o)
 .debug_ranges  0x00000000000004e0      0x1e8 c:/program files/microchip/xc32/v4.00/bin/bin/../../lib/gcc/pic32mx/8.3.1/../../../../pic32mx/lib/fpu64\libc-musl.a(malloc.o)
 .debug_ranges  0x00000000000006c8       0x10 c:/program files/microchip/xc32/v4.00/bin/bin/../../lib/gcc/pic32mx/8.3.1/../../../../pic32mx/lib/fpu64\libc-musl.a(expand_heap.o)
 .debug_ranges  0x00000000000006d8       0x10 c:/program files/microchip/xc32/v4.00/bin/bin/../../lib/gcc/pic32mx/8.3.1/../../../../pic32mx/lib/fpu64\libc-musl.a(memcpy.o)
 .debug_ranges  0x00000000000006e8       0x48 c:/program files/microchip/xc32/v4.00/bin/bin/../../lib/gcc/pic32mx/8.3.1/../../../../pic32mx/lib/fpu64\libm-musl.a(cos.o)
 .debug_ranges  0x0000000000000730      0x1c0 c:/program files/microchip/xc32/v4.00/bin/bin/../../lib/gcc/pic32mx/8.3.1/../../../../pic32mx/lib/fpu64\libm-musl.a(pow.o)
 .debug_ranges  0x00000000000008f0       0x10 c:/program files/microchip/xc32/v4.00/bin/bin/../../lib/gcc/pic32mx/8.3.1/../../../../pic32mx/lib/fpu64\libm-musl.a(scalbn.o)
 .debug_ranges  0x0000000000000900       0x48 c:/program files/microchip/xc32/v4.00/bin/bin/../../lib/gcc/pic32mx/8.3.1/../../../../pic32mx/lib/fpu64\libm-musl.a(sin.o)
 .debug_ranges  0x0000000000000948       0x40 c:/program files/microchip/xc32/v4.00/bin/bin/../../lib/gcc/pic32mx/8.3.1/../../../../pic32mx/lib/fpu64\libm-musl.a(sqrt.o)
 .debug_ranges  0x0000000000000988       0x10 c:/program files/microchip/xc32/v4.00/bin/bin/../../lib/gcc/pic32mx/8.3.1/../../../../pic32mx/lib/fpu64\libm-musl.a(__cos.o)
 .debug_ranges  0x0000000000000998       0x10 c:/program files/microchip/xc32/v4.00/bin/bin/../../lib/gcc/pic32mx/8.3.1/../../../../pic32mx/lib/fpu64\libm-musl.a(__rem_pio2.o)
 .debug_ranges  0x00000000000009a8       0x10 c:/program files/microchip/xc32/v4.00/bin/bin/../../lib/gcc/pic32mx/8.3.1/../../../../pic32mx/lib/fpu64\libm-musl.a(__rem_pio2_large.o)
 .debug_ranges  0x00000000000009b8       0x10 c:/program files/microchip/xc32/v4.00/bin/bin/../../lib/gcc/pic32mx/8.3.1/../../../../pic32mx/lib/fpu64\libm-musl.a(__sin.o)
 .debug_ranges  0x00000000000009c8       0x10 c:/program files/microchip/xc32/v4.00/bin/bin/../../lib/gcc/pic32mx/8.3.1/../../../../pic32mx/lib/fpu64\libm-musl.a(fabs.o)
 .debug_ranges  0x00000000000009d8       0x10 c:/program files/microchip/xc32/v4.00/bin/bin/../../lib/gcc/pic32mx/8.3.1/../../../../pic32mx/lib/fpu64\libm-musl.a(floor.o)
 .debug_ranges  0x00000000000009e8       0x58 c:/program files/microchip/xc32/v4.00/bin/bin/../../lib/gcc/pic32mx/8.3.1/../../../../pic32mx/lib/fpu64\libpic32.a(sbrk.o)

.gnu.attributes
                0x0000000000000000       0x10
 *(.gnu.attributes)
 .gnu.attributes
                0x0000000000000000       0x10 c:/program files/microchip/xc32/v4.00/bin/bin/../../lib/gcc/pic32mx/8.3.1/../../../../pic32mx/lib/fpu64\software-debug-break.o
 .gnu.attributes
                0x0000000000000010       0x10 build/DSP_TU/debug/_ext/1736525323/plib_adchs.o
 .gnu.attributes
                0x0000000000000020       0x10 build/DSP_TU/debug/_ext/2093422612/plib_clk.o
 .gnu.attributes
                0x0000000000000030       0x10 build/DSP_TU/debug/_ext/471522303/plib_evic.o
 .gnu.attributes
                0x0000000000000040       0x10 build/DSP_TU/debug/_ext/471468475/plib_gpio.o
 .gnu.attributes
                0x0000000000000050       0x10 build/DSP_TU/debug/_ext/471242515/plib_ocmp1.o
 .gnu.attributes
                0x0000000000000060       0x10 build/DSP_TU/debug/_ext/2093406237/plib_tmr2.o
 .gnu.attributes
                0x0000000000000070       0x10 build/DSP_TU/debug/_ext/471065532/plib_uart2.o
 .gnu.attributes
                0x0000000000000080       0x10 build/DSP_TU/debug/_ext/2030120972/xc32_monitor.o
 .gnu.attributes
                0x0000000000000090       0x10 build/DSP_TU/debug/_ext/1044038098/initialization.o
 .gnu.attributes
                0x00000000000000a0       0x10 build/DSP_TU/debug/_ext/1044038098/interrupts.o
 .gnu.attributes
                0x00000000000000b0       0x10 build/DSP_TU/debug/_ext/1044038098/exceptions.o
 .gnu.attributes
                0x00000000000000c0       0x10 build/DSP_TU/debug/_ext/1360937237/main.o
 .gnu.attributes
                0x00000000000000d0       0x10 build/DSP_TU/debug/_ext/1360937237/PwmAudioOut.o
 .gnu.attributes
                0x00000000000000e0       0x10 build/DSP_TU/debug/_ext/1360937237/biquad.o
 .gnu.attributes
                0x00000000000000f0       0x10 build/DSP_TU/debug/_ext/1360937237/dds.o
 .gnu.attributes
                0x0000000000000100       0x10 build/DSP_TU/debug/_ext/1360937237/DynamicThreshold.o
 .gnu.attributes
                0x0000000000000110       0x10 build/DSP_TU/debug/_ext/1360937237/agc.o
 .gnu.attributes
                0x0000000000000120       0x10 C:\Users\HAROLD~1\AppData\Local\Temp\ccKBed8x.o
 .gnu.attributes
                0x0000000000000130       0x10 C:\Users\HAROLD~1\AppData\Local\Temp\ccsmQEBa.o
 .gnu.attributes
                0x0000000000000140       0x10 C:\Users\HAROLD~1\AppData\Local\Temp\ccbD2gxf.o
 .gnu.attributes
                0x0000000000000150       0x10 C:\Users\HAROLD~1\AppData\Local\Temp\cc4OfyKV.o
 .gnu.attributes
                0x0000000000000160       0x10 c:/program files/microchip/xc32/v4.00/bin/bin/../../lib/gcc/pic32mx/8.3.1/../../../../pic32mx/lib/fpu64\pic32_software_reset.o
 .gnu.attributes
                0x0000000000000170       0x10 c:/program files/microchip/xc32/v4.00/bin/bin/../../lib/gcc/pic32mx/8.3.1/../../../../pic32mx/lib/fpu64\libpic32.a(default-on-reset.o)
 .gnu.attributes
                0x0000000000000180       0x10 c:/program files/microchip/xc32/v4.00/bin/bin/../../lib/gcc/pic32mx/8.3.1/../../../../pic32mx/lib/fpu64\libpic32.a(default-on-bootstrap.o)
 .gnu.attributes
                0x0000000000000190       0x10 c:/program files/microchip/xc32/v4.00/bin/bin/../../lib/gcc/pic32mx/8.3.1/../../../../pic32mx/lib/fpu64\libpic32.a(default-nmi-handler.o)
 .gnu.attributes
                0x00000000000001a0       0x10 c:/program files/microchip/xc32/v4.00/bin/bin/../../lib/gcc/pic32mx/8.3.1/../../../../pic32mx/lib/fpu64\libpic32.a(pic32_data_init.o)
 .gnu.attributes
                0x00000000000001b0       0x10 c:/program files/microchip/xc32/v4.00/bin/bin/../../lib/gcc/pic32mx/8.3.1/../../../../pic32mx/lib/fpu64\libpic32.a(pic32_init_cache.o)
 .gnu.attributes
                0x00000000000001c0       0x10 c:/program files/microchip/xc32/v4.00/bin/bin/../../lib/gcc/pic32mx/8.3.1/../../../../pic32mx/lib/fpu64\libpic32.a(pic32_init_tlb_ebi_sqi.o)
 .gnu.attributes
                0x00000000000001d0       0x10 c:/program files/microchip/xc32/v4.00/bin/bin/../../lib/gcc/pic32mx/8.3.1/../../../../pic32mx/lib/fpu64\libpic32.a(general-exception.o)
 .gnu.attributes
                0x00000000000001e0       0x10 c:/program files/microchip/xc32/v4.00/bin/bin/../../lib/gcc/pic32mx/8.3.1/../../../../pic32mx/lib/fpu64\libpic32.a(cache-err-exception.o)
 .gnu.attributes
                0x00000000000001f0       0x10 c:/program files/microchip/xc32/v4.00/bin/bin/../../lib/gcc/pic32mx/8.3.1/../../../../pic32mx/lib/fpu64\libpic32.a(simple-tlb-refill-exception.o)
 .gnu.attributes
                0x0000000000000200       0x10 c:/program files/microchip/xc32/v4.00/bin/bin/../../lib/gcc/pic32mx/8.3.1/../../../../pic32mx/lib/fpu64\libpic32.a(defaultinterrupt.o)
 .gnu.attributes
                0x0000000000000210       0x10 c:/program files/microchip/xc32/v4.00/bin/bin/../../lib/gcc/pic32mx/8.3.1/../../../../pic32mx/lib/fpu64\libc-musl.a(malloc.o)
 .gnu.attributes
                0x0000000000000220       0x10 c:/program files/microchip/xc32/v4.00/bin/bin/../../lib/gcc/pic32mx/8.3.1/../../../../pic32mx/lib/fpu64\libc-musl.a(expand_heap.o)
 .gnu.attributes
                0x0000000000000230       0x10 c:/program files/microchip/xc32/v4.00/bin/bin/../../lib/gcc/pic32mx/8.3.1/../../../../pic32mx/lib/fpu64\libc-musl.a(memcpy.o)
 .gnu.attributes
                0x0000000000000240       0x10 c:/program files/microchip/xc32/v4.00/bin/bin/../../lib/gcc/pic32mx/8.3.1/../../../../pic32mx/lib/fpu64\libc-musl.a(libc.o)
 .gnu.attributes
                0x0000000000000250       0x10 c:/program files/microchip/xc32/v4.00/bin/bin/../../lib/gcc/pic32mx/8.3.1/../../../../pic32mx/lib/fpu64\libm-musl.a(cos.o)
 .gnu.attributes
                0x0000000000000260       0x10 c:/program files/microchip/xc32/v4.00/bin/bin/../../lib/gcc/pic32mx/8.3.1/../../../../pic32mx/lib/fpu64\libm-musl.a(pow.o)
 .gnu.attributes
                0x0000000000000270       0x10 c:/program files/microchip/xc32/v4.00/bin/bin/../../lib/gcc/pic32mx/8.3.1/../../../../pic32mx/lib/fpu64\libm-musl.a(scalbn.o)
 .gnu.attributes
                0x0000000000000280       0x10 c:/program files/microchip/xc32/v4.00/bin/bin/../../lib/gcc/pic32mx/8.3.1/../../../../pic32mx/lib/fpu64\libm-musl.a(sin.o)
 .gnu.attributes
                0x0000000000000290       0x10 c:/program files/microchip/xc32/v4.00/bin/bin/../../lib/gcc/pic32mx/8.3.1/../../../../pic32mx/lib/fpu64\libm-musl.a(sqrt.o)
 .gnu.attributes
                0x00000000000002a0       0x10 c:/program files/microchip/xc32/v4.00/bin/bin/../../lib/gcc/pic32mx/8.3.1/../../../../pic32mx/lib/fpu64\libm-musl.a(__cos.o)
 .gnu.attributes
                0x00000000000002b0       0x10 c:/program files/microchip/xc32/v4.00/bin/bin/../../lib/gcc/pic32mx/8.3.1/../../../../pic32mx/lib/fpu64\libm-musl.a(__rem_pio2.o)
 .gnu.attributes
                0x00000000000002c0       0x10 c:/program files/microchip/xc32/v4.00/bin/bin/../../lib/gcc/pic32mx/8.3.1/../../../../pic32mx/lib/fpu64\libm-musl.a(__rem_pio2_large.o)
 .gnu.attributes
                0x00000000000002d0       0x10 c:/program files/microchip/xc32/v4.00/bin/bin/../../lib/gcc/pic32mx/8.3.1/../../../../pic32mx/lib/fpu64\libm-musl.a(__sin.o)
 .gnu.attributes
                0x00000000000002e0       0x10 c:/program files/microchip/xc32/v4.00/bin/bin/../../lib/gcc/pic32mx/8.3.1/../../../../pic32mx/lib/fpu64\libm-musl.a(fabs.o)
 .gnu.attributes
                0x00000000000002f0       0x10 c:/program files/microchip/xc32/v4.00/bin/bin/../../lib/gcc/pic32mx/8.3.1/../../../../pic32mx/lib/fpu64\libm-musl.a(floor.o)
 .gnu.attributes
                0x0000000000000300       0x10 c:/program files/microchip/xc32/v4.00/bin/bin/../../lib/gcc/pic32mx/8.3.1/../../../../pic32mx/lib/fpu64\libpic32.a(sbrk.o)
 .gnu.attributes
                0x0000000000000310       0x10 c:/program files/microchip/xc32/v4.00/bin/bin/../../lib/gcc/pic32mx/8.3.1/../../../../pic32mx/lib/fpu64\libpic32.a(errno.o)
 .gnu.attributes
                0x0000000000000320       0x10 c:/program files/microchip/xc32/v4.00/bin/bin/../../lib/gcc/pic32mx/8.3.1/../../../../pic32mx/lib/fpu64\libpic32.a(memset.o)
 .gnu.attributes
                0x0000000000000330       0x10 c:/program files/microchip/xc32/v4.00/bin/bin/../../lib/gcc/pic32mx/8.3.1/fpu64\libgcc.a(_lshrdi3.o)
 .gnu.attributes
                0x0000000000000340       0x10 c:/program files/microchip/xc32/v4.00/bin/bin/../../lib/gcc/pic32mx/8.3.1/fpu64\libgcc.a(_ashldi3.o)
                0x000000009d000000                PROVIDE (__pic32_init_cache_program_base_addr = 0x9d000000)
                0x0000000080000000                PROVIDE (__pic32_init_cache_data_base_addr = 0x80000000)
                0x00000000d0000000                PROVIDE (__pic32_init_sqi_kseg2_virtual_base_addr = 0xd0000000)
                0x0000000030000000                PROVIDE (__pic32_init_sqi_kseg2_physical_base_addr = 0x30000000)
                0x000000000000001f                PROVIDE (__pic32_init_sqi_kseg2_entrylo0_bitset = 0x1f)
                0x00000000d0000000                __pic32_tlb_0_entryhi = __pic32_init_sqi_kseg2_virtual_base_addr
                0x0000000000c0001f                __pic32_tlb_0_entrylo0 = ((__pic32_init_sqi_kseg2_physical_base_addr >> 0x6) | __pic32_init_sqi_kseg2_entrylo0_bitset)
                0x0000000000c4001f                __pic32_tlb_0_entrylo1 = (__pic32_tlb_0_entrylo0 | ((__pic32_init_sqi_kseg2_physical_base_addr + 0x1000000) >> 0x6))
                0x00000000d2000000                __pic32_tlb_1_entryhi = (__pic32_init_sqi_kseg2_virtual_base_addr + 0x2000000)
                0x0000000000c8001f                __pic32_tlb_1_entrylo0 = (((__pic32_init_sqi_kseg2_physical_base_addr + 0x2000000) >> 0x6) | __pic32_init_sqi_kseg2_entrylo0_bitset)
                0x0000000000cc001f                __pic32_tlb_1_entrylo1 = (__pic32_tlb_1_entrylo0 | 0x40000)
                0x00000000f0000000                PROVIDE (__pic32_init_sqi_kseg3_virtual_base_addr = 0xf0000000)
                0x0000000030000000                PROVIDE (__pic32_init_sqi_kseg3_physical_base_addr = 0x30000000)
                0x0000000000000017                PROVIDE (__pic32_init_sqi_kseg3_entrylo0_bitset = 0x17)
                0x00000000f0000000                __pic32_tlb_2_entryhi = __pic32_init_sqi_kseg3_virtual_base_addr
                0x0000000000c00017                __pic32_tlb_2_entrylo0 = ((__pic32_init_sqi_kseg3_physical_base_addr >> 0x6) | __pic32_init_sqi_kseg3_entrylo0_bitset)
                0x0000000000c40017                __pic32_tlb_2_entrylo1 = (__pic32_tlb_2_entrylo0 | ((__pic32_init_sqi_kseg3_physical_base_addr + 0x1000000) >> 0x6))
                0x00000000f2000000                __pic32_tlb_3_entryhi = (__pic32_init_sqi_kseg3_virtual_base_addr + 0x2000000)
                0x0000000000c80017                __pic32_tlb_3_entrylo0 = (((__pic32_init_sqi_kseg3_physical_base_addr + 0x2000000) >> 0x6) | __pic32_init_sqi_kseg3_entrylo0_bitset)
                0x0000000000cc0017                __pic32_tlb_3_entrylo1 = (__pic32_tlb_3_entrylo0 | 0x40000)
                0x00000000c0000000                PROVIDE (__pic32_init_ebi_kseg2_virtual_base_addr = 0xc0000000)
                0x0000000020000000                PROVIDE (__pic32_init_ebi_kseg2_physical_base_addr = 0x20000000)
                0x000000000000001f                PROVIDE (__pic32_init_ebi_kseg2_entrylo0_bitset = 0x1f)
                0x00000000c0000000                __pic32_tlb_4_entryhi = __pic32_init_ebi_kseg2_virtual_base_addr
                0x000000000080001f                __pic32_tlb_4_entrylo0 = ((__pic32_init_ebi_kseg2_physical_base_addr >> 0x6) | __pic32_init_ebi_kseg2_entrylo0_bitset)
                0x000000000084001f                __pic32_tlb_4_entrylo1 = (__pic32_tlb_4_entrylo0 | ((__pic32_init_ebi_kseg2_physical_base_addr + 0x1000000) >> 0x6))
                0x00000000c2000000                __pic32_tlb_5_entryhi = (__pic32_init_ebi_kseg2_virtual_base_addr + 0x2000000)
                0x000000000088001f                __pic32_tlb_5_entrylo0 = (((__pic32_init_ebi_kseg2_physical_base_addr + 0x2000000) >> 0x6) | __pic32_init_ebi_kseg2_entrylo0_bitset)
                0x00000000008c001f                __pic32_tlb_5_entrylo1 = (__pic32_tlb_5_entrylo0 | 0x40000)
                0x00000000e0000000                PROVIDE (__pic32_init_ebi_kseg3_virtual_base_addr = 0xe0000000)
                0x0000000020000000                PROVIDE (__pic32_init_ebi_kseg3_physical_base_addr = 0x20000000)
                0x0000000000000017                PROVIDE (__pic32_init_ebi_kseg3_entrylo0_bitset = 0x17)
                0x00000000e0000000                __pic32_tlb_6_entryhi = __pic32_init_ebi_kseg3_virtual_base_addr
                0x0000000000800017                __pic32_tlb_6_entrylo0 = ((__pic32_init_ebi_kseg3_physical_base_addr >> 0x6) | __pic32_init_ebi_kseg3_entrylo0_bitset)
                0x0000000000840017                __pic32_tlb_6_entrylo1 = (__pic32_tlb_6_entrylo0 | ((__pic32_init_ebi_kseg3_physical_base_addr + 0x1000000) >> 0x6))
                0x00000000e2000000                __pic32_tlb_7_entryhi = (__pic32_init_ebi_kseg3_virtual_base_addr + 0x2000000)
                0x0000000000880017                __pic32_tlb_7_entrylo0 = (((__pic32_init_ebi_kseg3_physical_base_addr + 0x2000000) >> 0x6) | __pic32_init_ebi_kseg3_entrylo0_bitset)
                0x00000000008c0017                __pic32_tlb_7_entrylo1 = (__pic32_tlb_7_entrylo0 | 0x40000)

.tlb_init_values
                0x00000000bfc00670       0x60
                0x00000000bfc00670                . = ALIGN (0x4)
                0x00000000bfc00670                __pic32_tlb_init_values_begin = ABSOLUTE (.)
                0x00000000bfc00670        0x4 LONG 0xd0000000 __pic32_tlb_0_entryhi
                0x00000000bfc00674        0x4 LONG 0xc0001f __pic32_tlb_0_entrylo0
                0x00000000bfc00678        0x4 LONG 0xc4001f __pic32_tlb_0_entrylo1
                0x00000000bfc0067c        0x4 LONG 0xd2000000 __pic32_tlb_1_entryhi
                0x00000000bfc00680        0x4 LONG 0xc8001f __pic32_tlb_1_entrylo0
                0x00000000bfc00684        0x4 LONG 0xcc001f __pic32_tlb_1_entrylo1
                0x00000000bfc00688        0x4 LONG 0xf0000000 __pic32_tlb_2_entryhi
                0x00000000bfc0068c        0x4 LONG 0xc00017 __pic32_tlb_2_entrylo0
                0x00000000bfc00690        0x4 LONG 0xc40017 __pic32_tlb_2_entrylo1
                0x00000000bfc00694        0x4 LONG 0xf2000000 __pic32_tlb_3_entryhi
                0x00000000bfc00698        0x4 LONG 0xc80017 __pic32_tlb_3_entrylo0
                0x00000000bfc0069c        0x4 LONG 0xcc0017 __pic32_tlb_3_entrylo1
                0x00000000bfc006a0        0x4 LONG 0xc0000000 __pic32_tlb_4_entryhi
                0x00000000bfc006a4        0x4 LONG 0x80001f __pic32_tlb_4_entrylo0
                0x00000000bfc006a8        0x4 LONG 0x84001f __pic32_tlb_4_entrylo1
                0x00000000bfc006ac        0x4 LONG 0xc2000000 __pic32_tlb_5_entryhi
                0x00000000bfc006b0        0x4 LONG 0x88001f __pic32_tlb_5_entrylo0
                0x00000000bfc006b4        0x4 LONG 0x8c001f __pic32_tlb_5_entrylo1
                0x00000000bfc006b8        0x4 LONG 0xe0000000 __pic32_tlb_6_entryhi
                0x00000000bfc006bc        0x4 LONG 0x800017 __pic32_tlb_6_entrylo0
                0x00000000bfc006c0        0x4 LONG 0x840017 __pic32_tlb_6_entrylo1
                0x00000000bfc006c4        0x4 LONG 0xe2000000 __pic32_tlb_7_entryhi
                0x00000000bfc006c8        0x4 LONG 0x880017 __pic32_tlb_7_entrylo0
                0x00000000bfc006cc        0x4 LONG 0x8c0017 __pic32_tlb_7_entrylo1
                0x00000000bfc006d0                __pic32_tlb_init_values_end = ABSOLUTE (.)
                0x00000000bfc00678                __pic32_tlb_init_values_count = 0x8
                0x0000000000000001                __MPLAB_DEBUG = 0x1
                0x0000000000000001                __DEBUG = 0x1
                0x0000000000000001                __MPLAB_DEBUGGER_PK3 = 0x1
                0x0000000000000400                _min_heap_size = 0x400
LOAD C:\Users\HAROLD~1\AppData\Local\Temp\ccKBed8x.o
LOAD C:\Users\HAROLD~1\AppData\Local\Temp\ccsmQEBa.o
LOAD C:\Users\HAROLD~1\AppData\Local\Temp\ccbD2gxf.o
LOAD C:\Users\HAROLD~1\AppData\Local\Temp\cc4OfyKV.o
LOAD c:/program files/microchip/xc32/v4.00/bin/bin/../../lib/gcc/pic32mx/8.3.1/../../../../pic32mx/lib/fpu64\pic32_software_reset.o
LOAD c:/program files/microchip/xc32/v4.00/bin/bin/../../lib/gcc/pic32mx/8.3.1/fpu64\libgcc.a
START GROUP
LOAD c:/program files/microchip/xc32/v4.00/bin/bin/../../lib/gcc/pic32mx/8.3.1/../../../../pic32mx/lib/fpu64\libpic32.a
LOAD c:/program files/microchip/xc32/v4.00/bin/bin/../../lib/gcc/pic32mx/8.3.1/../../../../pic32mx/lib/fpu64\libdebug.a
LOAD c:/program files/microchip/xc32/v4.00/bin/bin/../../lib/gcc/pic32mx/8.3.1/../../../../pic32mx/lib/fpu64\libc-musl.a
LOAD c:/program files/microchip/xc32/v4.00/bin/bin/../../lib/gcc/pic32mx/8.3.1/../../../../pic32mx/lib/fpu64\libm-musl.a
LOAD c:/program files/microchip/xc32/v4.00/bin/bin/../../lib/gcc/pic32mx/8.3.1/../../../../pic32mx/lib/fpu64\libdspr2.a
LOAD c:/program files/microchip/xc32/v4.00/bin/bin/../../lib/gcc/pic32mx/8.3.1/../../../../pic32mx/lib/fpu64\libdsp.a
END GROUP
LOAD c:/program files/microchip/xc32/v4.00/bin/bin/../../lib/gcc/pic32mx/8.3.1/fpu64\libgcc.a
OUTPUT(dist/DSP_TU/debug/DSP_TU.X.debug.elf elf32-tradlittlemips)
LOAD stack
LOAD data_init

.reginfo        0x0000000000000000       0x18
 .reginfo       0x0000000000000000       0x18 c:/program files/microchip/xc32/v4.00/bin/bin/../../lib/gcc/pic32mx/8.3.1/../../../../pic32mx/lib/fpu64\software-debug-break.o

.stack          0x0000000080000e00      0x400
 .stack         0x0000000080000e00      0x400 stack

.__vector_offset_BF810540_data
                0x00000000bf810540      0x178
 .__vector_offset_BF810540_data
                0x00000000bf810540      0x178 C:\Users\HAROLD~1\AppData\Local\Temp\ccbD2gxf.o

.__vector_offset_BF810740_data
                0x00000000bf810740       0xfc
 .__vector_offset_BF810740_data
                0x00000000bf810740       0xfc C:\Users\HAROLD~1\AppData\Local\Temp\ccbD2gxf.o

.__vector_offset_BF8106F4_data
                0x00000000bf8106f4       0x40
 .__vector_offset_BF8106F4_data
                0x00000000bf8106f4       0x40 C:\Users\HAROLD~1\AppData\Local\Temp\ccbD2gxf.o

.__vector_offset_BF8106D8_data
                0x00000000bf8106d8       0x18
 .__vector_offset_BF8106D8_data
                0x00000000bf8106d8       0x18 C:\Users\HAROLD~1\AppData\Local\Temp\ccbD2gxf.o

.__vector_offset_BF810874_data
                0x00000000bf810874       0x18
 .__vector_offset_BF810874_data
                0x00000000bf810874       0x18 C:\Users\HAROLD~1\AppData\Local\Temp\ccbD2gxf.o

.__vector_offset_BF810858_data
                0x00000000bf810858       0x14
 .__vector_offset_BF810858_data
                0x00000000bf810858       0x14 C:\Users\HAROLD~1\AppData\Local\Temp\ccbD2gxf.o

.__vector_offset_BF810840_data
                0x00000000bf810840        0xc
 .__vector_offset_BF810840_data
                0x00000000bf810840        0xc C:\Users\HAROLD~1\AppData\Local\Temp\ccbD2gxf.o

.__vector_offset_BF810850_data
                0x00000000bf810850        0x4
 .__vector_offset_BF810850_data
                0x00000000bf810850        0x4 C:\Users\HAROLD~1\AppData\Local\Temp\ccbD2gxf.o

.__vector_offset_BF810894_data
                0x00000000bf810894        0x4
 .__vector_offset_BF810894_data
                0x00000000bf810894        0x4 C:\Users\HAROLD~1\AppData\Local\Temp\ccbD2gxf.o

.bss            0x00000000800004dc      0x280
 .bss           0x00000000800004dc      0x280 build/DSP_TU/debug/_ext/471065532/plib_uart2.o

.bss            0x0000000080000760      0x260
 .bss           0x0000000080000760      0x210 c:/program files/microchip/xc32/v4.00/bin/bin/../../lib/gcc/pic32mx/8.3.1/../../../../pic32mx/lib/fpu64\libc-musl.a(malloc.o)
 .bss           0x0000000080000970       0x50 c:/program files/microchip/xc32/v4.00/bin/bin/../../lib/gcc/pic32mx/8.3.1/../../../../pic32mx/lib/fpu64\libc-musl.a(libc.o)
                0x0000000080000970                __progname_full
                0x0000000080000970                program_invocation_name
                0x0000000080000974                program_invocation_short_name
                0x0000000080000974                __progname
                0x0000000080000978                __sysinfo
                0x000000008000097c                __hwcap
                0x0000000080000980                __libc

.bss            0x00000000800009c0       0x24
 .bss           0x00000000800009c0       0x24 c:/program files/microchip/xc32/v4.00/bin/bin/../../lib/gcc/pic32mx/8.3.1/../../../../pic32mx/lib/fpu64\libpic32.a(sbrk.o)
                0x00000000800009dc                _maxbrk
                0x00000000800009e0                _minbrk

.bss.errno      0x000000008000075c        0x4
 .bss.errno     0x000000008000075c        0x4 c:/program files/microchip/xc32/v4.00/bin/bin/../../lib/gcc/pic32mx/8.3.1/../../../../pic32mx/lib/fpu64\libpic32.a(errno.o)
                0x000000008000075c                errno

.text.pow       0x000000009d000268      0x8b0
 .text.pow      0x000000009d000268      0x8b0 c:/program files/microchip/xc32/v4.00/bin/bin/../../lib/gcc/pic32mx/8.3.1/../../../../pic32mx/lib/fpu64\libm-musl.a(pow.o)
                0x000000009d000268                pow

.text.__rem_pio2_large
                0x000000009d000b18      0x848
 .text.__rem_pio2_large
                0x000000009d000b18      0x848 c:/program files/microchip/xc32/v4.00/bin/bin/../../lib/gcc/pic32mx/8.3.1/../../../../pic32mx/lib/fpu64\libm-musl.a(__rem_pio2_large.o)
                0x000000009d000b18                __rem_pio2_large

.text.main      0x000000009d001360      0x4f4
 .text.main     0x000000009d001360      0x4f4 build/DSP_TU/debug/_ext/1360937237/main.o
                0x000000009d001360                main

.dinit          0x000000009d001854      0x4a0
 .dinit         0x000000009d001854      0x4a0 data_init

.text.__rem_pio2
                0x000000009d001cf4      0x42c
 .text.__rem_pio2
                0x000000009d001cf4      0x42c c:/program files/microchip/xc32/v4.00/bin/bin/../../lib/gcc/pic32mx/8.3.1/../../../../pic32mx/lib/fpu64\libm-musl.a(__rem_pio2.o)
                0x000000009d001cf4                __rem_pio2

.text.BiQuad_new
                0x000000009d002120      0x390
 .text.BiQuad_new
                0x000000009d002120      0x390 build/DSP_TU/debug/_ext/1360937237/biquad.o
                0x000000009d002120                BiQuad_new

.text.malloc    0x000000009d0024b0      0x29c
 .text.malloc   0x000000009d0024b0      0x29c c:/program files/microchip/xc32/v4.00/bin/bin/../../lib/gcc/pic32mx/8.3.1/../../../../pic32mx/lib/fpu64\libc-musl.a(malloc.o)
                0x000000009d0024b0                malloc

.text.sqrt      0x000000009d00274c      0x254
 .text.sqrt     0x000000009d00274c      0x254 c:/program files/microchip/xc32/v4.00/bin/bin/../../lib/gcc/pic32mx/8.3.1/../../../../pic32mx/lib/fpu64\libm-musl.a(sqrt.o)
                0x000000009d00274c                sqrt

.text.TIMER_2_Handler
                0x000000009d0029a0      0x1d0
 .text.TIMER_2_Handler
                0x000000009d0029a0      0x1d0 build/DSP_TU/debug/_ext/1044038098/interrupts.o
                0x000000009d0029a0                TIMER_2_Handler

.text.UART2_FAULT_Handler
                0x000000009d002b70      0x1d0
 .text.UART2_FAULT_Handler
                0x000000009d002b70      0x1d0 build/DSP_TU/debug/_ext/1044038098/interrupts.o
                0x000000009d002b70                UART2_FAULT_Handler

.text.UART2_RX_Handler
                0x000000009d002d40      0x1d0
 .text.UART2_RX_Handler
                0x000000009d002d40      0x1d0 build/DSP_TU/debug/_ext/1044038098/interrupts.o
                0x000000009d002d40                UART2_RX_Handler

.text.UART2_TX_Handler
                0x000000009d002f10      0x1d0
 .text.UART2_TX_Handler
                0x000000009d002f10      0x1d0 build/DSP_TU/debug/_ext/1044038098/interrupts.o
                0x000000009d002f10                UART2_TX_Handler

.text.free      0x000000009d0030e0      0x19c
 .text.free     0x000000009d0030e0      0x19c c:/program files/microchip/xc32/v4.00/bin/bin/../../lib/gcc/pic32mx/8.3.1/../../../../pic32mx/lib/fpu64\libc-musl.a(malloc.o)
                0x000000009d0030e0                free

.text.UART2_RX_InterruptHandler
                0x000000009d00327c      0x18c
 .text.UART2_RX_InterruptHandler
                0x000000009d00327c      0x18c build/DSP_TU/debug/_ext/471065532/plib_uart2.o
                0x000000009d00327c                UART2_RX_InterruptHandler

.text.UART2_TX_InterruptHandler
                0x000000009d003408      0x184
 .text.UART2_TX_InterruptHandler
                0x000000009d003408      0x184 build/DSP_TU/debug/_ext/471065532/plib_uart2.o
                0x000000009d003408                UART2_TX_InterruptHandler

.rodata         0x000000009d003590      0x158
 .rodata        0x000000009d003590      0x158 c:/program files/microchip/xc32/v4.00/bin/bin/../../lib/gcc/pic32mx/8.3.1/../../../../pic32mx/lib/fpu64\libm-musl.a(__rem_pio2_large.o)

.text._sbrk_init
                0x000000009d0036e8      0x154
 .text._sbrk_init
                0x000000009d0036e8      0x154 c:/program files/microchip/xc32/v4.00/bin/bin/../../lib/gcc/pic32mx/8.3.1/../../../../pic32mx/lib/fpu64\libpic32.a(sbrk.o)
                0x000000009d0036e8                _sbrk_init

.text.sin       0x000000009d00383c      0x120
 .text.sin      0x000000009d00383c      0x120 c:/program files/microchip/xc32/v4.00/bin/bin/../../lib/gcc/pic32mx/8.3.1/../../../../pic32mx/lib/fpu64\libm-musl.a(sin.o)
                0x000000009d00383c                sin

.text.ADCHS_Initialize
                0x000000009d00395c      0x110
 .text.ADCHS_Initialize
                0x000000009d00395c      0x110 build/DSP_TU/debug/_ext/1736525323/plib_adchs.o
                0x000000009d00395c                ADCHS_Initialize

.text.cos       0x000000009d003a6c      0x100
 .text.cos      0x000000009d003a6c      0x100 c:/program files/microchip/xc32/v4.00/bin/bin/../../lib/gcc/pic32mx/8.3.1/../../../../pic32mx/lib/fpu64\libm-musl.a(cos.o)
                0x000000009d003a6c                cos

.rodata.cst8    0x000000009d003b70       0xf8
 .rodata.cst8   0x000000009d003b70       0xf8 c:/program files/microchip/xc32/v4.00/bin/bin/../../lib/gcc/pic32mx/8.3.1/../../../../pic32mx/lib/fpu64\libm-musl.a(pow.o)

.text.UART2_Initialize
                0x000000009d000010       0xe4
 .text.UART2_Initialize
                0x000000009d000010       0xe4 build/DSP_TU/debug/_ext/471065532/plib_uart2.o
                0x000000009d000010                UART2_Initialize

.text.general_exception
                0x000000009d003c68       0xdc
 .text.general_exception
                0x000000009d003c68       0xdc c:/program files/microchip/xc32/v4.00/bin/bin/../../lib/gcc/pic32mx/8.3.1/../../../../pic32mx/lib/fpu64\libpic32.a(general-exception.o)
                0x000000009d003c68                _general_exception_context

.text._cache_err_exception_context
                0x000000009d003d44       0xd8
 .text._cache_err_exception_context
                0x000000009d003d44       0xd8 c:/program files/microchip/xc32/v4.00/bin/bin/../../lib/gcc/pic32mx/8.3.1/../../../../pic32mx/lib/fpu64\libpic32.a(cache-err-exception.o)
                0x000000009d003d44                _cache_err_exception_context

.text.simple_tlb_refill_context
                0x000000009d003e1c       0xd8
 .text.simple_tlb_refill_context
                0x000000009d003e1c       0xd8 c:/program files/microchip/xc32/v4.00/bin/bin/../../lib/gcc/pic32mx/8.3.1/../../../../pic32mx/lib/fpu64\libpic32.a(simple-tlb-refill-exception.o)
                0x000000009d003e1c                _simple_tlb_refill_exception_context

.text.GPIO_Initialize
                0x000000009d003ef4       0xc0
 .text.GPIO_Initialize
                0x000000009d003ef4       0xc0 build/DSP_TU/debug/_ext/471468475/plib_gpio.o
                0x000000009d003ef4                GPIO_Initialize

.text.UART2_FAULT_InterruptHandler
                0x000000009d003fb4       0xbc
 .text.UART2_FAULT_InterruptHandler
                0x000000009d003fb4       0xbc build/DSP_TU/debug/_ext/471065532/plib_uart2.o
                0x000000009d003fb4                UART2_FAULT_InterruptHandler

.tlb.__pic32_tlb_init_ebi_sqi
                0x000000009d004070       0xbc
 .tlb.__pic32_tlb_init_ebi_sqi
                0x000000009d004070       0xbc c:/program files/microchip/xc32/v4.00/bin/bin/../../lib/gcc/pic32mx/8.3.1/../../../../pic32mx/lib/fpu64\libpic32.a(pic32_init_tlb_ebi_sqi.o)
                0x000000009d004070                __pic32_tlb_init_ebi_sqi

.text.CLK_Initialize
                0x000000009d00412c       0xb4
 .text.CLK_Initialize
                0x000000009d00412c       0xb4 build/DSP_TU/debug/_ext/2093422612/plib_clk.o
                0x000000009d00412c                CLK_Initialize

.text.DynamicThresholdGet
                0x000000009d0041e0       0xb4
 .text.DynamicThresholdGet
                0x000000009d0041e0       0xb4 build/DSP_TU/debug/_ext/1360937237/DynamicThreshold.o
                0x000000009d0041e0                DynamicThresholdGet

.text.floor     0x000000009d004294       0xb4
 .text.floor    0x000000009d004294       0xb4 c:/program files/microchip/xc32/v4.00/bin/bin/../../lib/gcc/pic32mx/8.3.1/../../../../pic32mx/lib/fpu64\libm-musl.a(floor.o)
                0x000000009d004294                floor

.text._sbrk     0x000000009d004348       0xb0
 .text._sbrk    0x000000009d004348       0xb0 c:/program files/microchip/xc32/v4.00/bin/bin/../../lib/gcc/pic32mx/8.3.1/../../../../pic32mx/lib/fpu64\libpic32.a(sbrk.o)
                0x000000009d004348                _sbrk

.text.unbin     0x000000009d0043f8       0xac
 .text.unbin    0x000000009d0043f8       0xac c:/program files/microchip/xc32/v4.00/bin/bin/../../lib/gcc/pic32mx/8.3.1/../../../../pic32mx/lib/fpu64\libc-musl.a(malloc.o)

.text.__sin     0x000000009d0044a4       0x90
 .text.__sin    0x000000009d0044a4       0x90 c:/program files/microchip/xc32/v4.00/bin/bin/../../lib/gcc/pic32mx/8.3.1/../../../../pic32mx/lib/fpu64\libm-musl.a(__sin.o)
                0x000000009d0044a4                __sin

.text           0x000000009d004534       0x8c
 .text          0x000000009d004534       0x8c c:/program files/microchip/xc32/v4.00/bin/bin/../../lib/gcc/pic32mx/8.3.1/../../../../pic32mx/lib/fpu64\libpic32.a(pic32_data_init.o)
                0x000000009d004534                __pic32_data_init

.text.scalbn    0x000000009d0045c0       0x8c
 .text.scalbn   0x000000009d0045c0       0x8c c:/program files/microchip/xc32/v4.00/bin/bin/../../lib/gcc/pic32mx/8.3.1/../../../../pic32mx/lib/fpu64\libm-musl.a(scalbn.o)
                0x000000009d0045c0                scalbn

.text.SYS_Initialize
                0x000000009d00464c       0x88
 .text.SYS_Initialize
                0x000000009d00464c       0x88 build/DSP_TU/debug/_ext/1044038098/initialization.o
                0x000000009d00464c                SYS_Initialize

.text.__cos     0x000000009d0046d4       0x88
 .text.__cos    0x000000009d0046d4       0x88 c:/program files/microchip/xc32/v4.00/bin/bin/../../lib/gcc/pic32mx/8.3.1/../../../../pic32mx/lib/fpu64\libm-musl.a(__cos.o)
                0x000000009d0046d4                __cos

.text.agc       0x000000009d00475c       0x84
 .text.agc      0x000000009d00475c       0x84 build/DSP_TU/debug/_ext/1360937237/agc.o
                0x000000009d00475c                agc

.rodata.cst8    0x000000009d0047e0       0x78
 .rodata.cst8   0x000000009d0047e0       0x78 c:/program files/microchip/xc32/v4.00/bin/bin/../../lib/gcc/pic32mx/8.3.1/../../../../pic32mx/lib/fpu64\libm-musl.a(__rem_pio2.o)

.text.alloc_rev
                0x000000009d004858       0x74
 .text.alloc_rev
                0x000000009d004858       0x74 c:/program files/microchip/xc32/v4.00/bin/bin/../../lib/gcc/pic32mx/8.3.1/../../../../pic32mx/lib/fpu64\libc-musl.a(malloc.o)

.text.alloc_fwd
                0x000000009d000110       0x70
 .text.alloc_fwd
                0x000000009d000110       0x70 c:/program files/microchip/xc32/v4.00/bin/bin/../../lib/gcc/pic32mx/8.3.1/../../../../pic32mx/lib/fpu64\libc-musl.a(malloc.o)

.text.bin_index
                0x000000009d000190       0x64
 .text.bin_index
                0x000000009d000190       0x64 c:/program files/microchip/xc32/v4.00/bin/bin/../../lib/gcc/pic32mx/8.3.1/../../../../pic32mx/lib/fpu64\libc-musl.a(malloc.o)

.text.TIMER_2_InterruptHandler
                0x000000009d0048cc       0x60
 .text.TIMER_2_InterruptHandler
                0x000000009d0048cc       0x60 build/DSP_TU/debug/_ext/2093406237/plib_tmr2.o
                0x000000009d0048cc                TIMER_2_InterruptHandler

.text.EVIC_Initialize
                0x000000009d00492c       0x5c
 .text.EVIC_Initialize
                0x000000009d00492c       0x5c build/DSP_TU/debug/_ext/471522303/plib_evic.o
                0x000000009d00492c                EVIC_Initialize

.rodata         0x000000009d004988       0x5c
 .rodata        0x000000009d004988       0x5c c:/program files/microchip/xc32/v4.00/bin/bin/../../lib/gcc/pic32mx/8.3.1/../../../../pic32mx/lib/fpu64\libc-musl.a(malloc.o)

.text.AudioPwmSet
                0x000000009d0049e4       0x58
 .text.AudioPwmSet
                0x000000009d0049e4       0x58 build/DSP_TU/debug/_ext/1360937237/PwmAudioOut.o
                0x000000009d0049e4                AudioPwmSet

.text.adjust_size
                0x000000009d004a3c       0x58
 .text.adjust_size
                0x000000009d004a3c       0x58 c:/program files/microchip/xc32/v4.00/bin/bin/../../lib/gcc/pic32mx/8.3.1/../../../../pic32mx/lib/fpu64\libc-musl.a(malloc.o)

.text.trim      0x000000009d004a94       0x58
 .text.trim     0x000000009d004a94       0x58 c:/program files/microchip/xc32/v4.00/bin/bin/../../lib/gcc/pic32mx/8.3.1/../../../../pic32mx/lib/fpu64\libc-musl.a(malloc.o)

.text.BiQuad    0x000000009d004aec       0x54
 .text.BiQuad   0x000000009d004aec       0x54 build/DSP_TU/debug/_ext/1360937237/biquad.o
                0x000000009d004aec                BiQuad

.text.main_entry
                0x000000009d004b40       0x54
 .text.main_entry
                0x000000009d004b40       0x54 C:\Users\HAROLD~1\AppData\Local\Temp\ccKBed8x.o
                0x000000009d004b74                __crt0_exit

.text.DdsNextSample
                0x000000009d004b94       0x50
 .text.DdsNextSample
                0x000000009d004b94       0x50 build/DSP_TU/debug/_ext/1360937237/dds.o
                0x000000009d004b94                DdsNextSample

.text.DynamicThresholdInit
                0x000000009d004be4       0x4c
 .text.DynamicThresholdInit
                0x000000009d004be4       0x4c build/DSP_TU/debug/_ext/1360937237/DynamicThreshold.o
                0x000000009d004be4                DynamicThresholdInit

.rodata.cst8    0x000000009d004c30       0x48
 .rodata.cst8   0x000000009d004c30       0x48 build/DSP_TU/debug/_ext/1360937237/main.o

.text.AgcInit   0x000000009d004c78       0x48
 .text.AgcInit  0x000000009d004c78       0x48 build/DSP_TU/debug/_ext/1360937237/agc.o
                0x000000009d004c78                AgcInit

.text           0x000000009d004cc0       0x44
 .text          0x000000009d004cc0       0x44 c:/program files/microchip/xc32/v4.00/bin/bin/../../lib/gcc/pic32mx/8.3.1/../../../../pic32mx/lib/fpu64\pic32_software_reset.o
                0x000000009d004cc0                __pic32_software_reset

.rodata.cst8    0x000000009d004d08       0x80
 .rodata.cst8   0x000000009d004d08       0x40 c:/program files/microchip/xc32/v4.00/bin/bin/../../lib/gcc/pic32mx/8.3.1/../../../../pic32mx/lib/fpu64\libm-musl.a(__cos.o)
 .rodata.cst8   0x000000009d004d48       0x40 c:/program files/microchip/xc32/v4.00/bin/bin/../../lib/gcc/pic32mx/8.3.1/../../../../pic32mx/lib/fpu64\libm-musl.a(__sin.o)

.text.TMR2_Initialize
                0x000000009d004d88       0x3c
 .text.TMR2_Initialize
                0x000000009d004d88       0x3c build/DSP_TU/debug/_ext/2093406237/plib_tmr2.o
                0x000000009d004d88                TMR2_Initialize

.text.__expand_heap
                0x000000009d004dc4       0x3c
 .text.__expand_heap
                0x000000009d004dc4       0x3c c:/program files/microchip/xc32/v4.00/bin/bin/../../lib/gcc/pic32mx/8.3.1/../../../../pic32mx/lib/fpu64\libc-musl.a(expand_heap.o)
                0x000000009d004dc4                __expand_heap

.text           0x000000009d004e00       0x78
 .text          0x000000009d004e00       0x3c c:/program files/microchip/xc32/v4.00/bin/bin/../../lib/gcc/pic32mx/8.3.1/fpu64\libgcc.a(_lshrdi3.o)
                0x000000009d004e00                __lshrdi3
 .text          0x000000009d004e3c       0x3c c:/program files/microchip/xc32/v4.00/bin/bin/../../lib/gcc/pic32mx/8.3.1/fpu64\libgcc.a(_ashldi3.o)
                0x000000009d004e3c                __ashldi3

.text.UART2_WritePendingBytesGet
                0x000000009d004e78       0x34
 .text.UART2_WritePendingBytesGet
                0x000000009d004e78       0x34 build/DSP_TU/debug/_ext/471065532/plib_uart2.o

.text.UART2_ReadCountGet
                0x000000009d004eac       0x34
 .text.UART2_ReadCountGet
                0x000000009d004eac       0x34 build/DSP_TU/debug/_ext/471065532/plib_uart2.o
                0x000000009d004eac                UART2_ReadCountGet

.text.lock_bin  0x000000009d004ee0       0x34
 .text.lock_bin
                0x000000009d004ee0       0x34 c:/program files/microchip/xc32/v4.00/bin/bin/../../lib/gcc/pic32mx/8.3.1/../../../../pic32mx/lib/fpu64\libc-musl.a(malloc.o)

.text.ADCHS_ChannelResultIsReady
                0x000000009d004f14       0x30
 .text.ADCHS_ChannelResultIsReady
                0x000000009d004f14       0x30 build/DSP_TU/debug/_ext/1736525323/plib_adchs.o
                0x000000009d004f14                ADCHS_ChannelResultIsReady

.text.UART2_WriteFreeBufferCountGet
                0x000000009d004f44       0x30
 .text.UART2_WriteFreeBufferCountGet
                0x000000009d004f44       0x30 build/DSP_TU/debug/_ext/471065532/plib_uart2.o
                0x000000009d004f44                UART2_WriteFreeBufferCountGet

.rodata.cst8    0x000000009d004f78       0x30
 .rodata.cst8   0x000000009d004f78       0x30 build/DSP_TU/debug/_ext/1360937237/biquad.o

.rodata         0x000000009d004fa8       0x30
 .rodata        0x000000009d004fa8       0x30 c:/program files/microchip/xc32/v4.00/bin/bin/../../lib/gcc/pic32mx/8.3.1/../../../../pic32mx/lib/fpu64\libm-musl.a(pow.o)

.rodata.cst8    0x000000009d004fd8       0x30
 .rodata.cst8   0x000000009d004fd8       0x30 c:/program files/microchip/xc32/v4.00/bin/bin/../../lib/gcc/pic32mx/8.3.1/../../../../pic32mx/lib/fpu64\libm-musl.a(__rem_pio2_large.o)

.text._stub_sbd_memlayout
                0x000000009d005008       0x2c
 .text._stub_sbd_memlayout
                0x000000009d005008       0x2c c:/program files/microchip/xc32/v4.00/bin/bin/../../lib/gcc/pic32mx/8.3.1/../../../../pic32mx/lib/fpu64\libpic32.a(sbrk.o)
                0x000000009d005008                _sbd_memlayout
                0x000000009d005008                _stub_sbd_memlayout

.text.ADCHS_ChannelConversionStart
                0x000000009d005034       0x28
 .text.ADCHS_ChannelConversionStart
                0x000000009d005034       0x28 build/DSP_TU/debug/_ext/1736525323/plib_adchs.o
                0x000000009d005034                ADCHS_ChannelConversionStart

.text.OCMP1_Initialize
                0x000000009d00505c       0x28
 .text.OCMP1_Initialize
                0x000000009d00505c       0x28 build/DSP_TU/debug/_ext/471242515/plib_ocmp1.o
                0x000000009d00505c                OCMP1_Initialize

.text.DdsFreqSet
                0x000000009d005084       0x20
 .text.DdsFreqSet
                0x000000009d005084       0x20 build/DSP_TU/debug/_ext/1360937237/dds.o
                0x000000009d005084                DdsFreqSet

.rodata.cst8    0x000000009d0050a8       0x20
 .rodata.cst8   0x000000009d0050a8       0x20 build/DSP_TU/debug/_ext/1360937237/DynamicThreshold.o

.text._general_exception_handler
                0x000000009d0050c8       0x1c
 .text._general_exception_handler
                0x000000009d0050c8       0x1c build/DSP_TU/debug/_ext/1044038098/exceptions.o
                0x000000009d0050c8                _general_exception_handler

.text._bootstrap_exception_handler
                0x000000009d0050e4       0x1c
 .text._bootstrap_exception_handler
                0x000000009d0050e4       0x1c build/DSP_TU/debug/_ext/1044038098/exceptions.o
                0x000000009d0050e4                _bootstrap_exception_handler

.text._cache_err_exception_handler
                0x000000009d005100       0x1c
 .text._cache_err_exception_handler
                0x000000009d005100       0x1c build/DSP_TU/debug/_ext/1044038098/exceptions.o
                0x000000009d005100                _cache_err_exception_handler

.text._simple_tlb_refill_exception_handler
                0x000000009d00511c       0x1c
 .text._simple_tlb_refill_exception_handler
                0x000000009d00511c       0x1c build/DSP_TU/debug/_ext/1044038098/exceptions.o
                0x000000009d00511c                _simple_tlb_refill_exception_handler

.MIPS.abiflags  0x000000009d005138       0x18
 .MIPS.abiflags
                0x000000009d005138       0x18 c:/program files/microchip/xc32/v4.00/bin/bin/../../lib/gcc/pic32mx/8.3.1/../../../../pic32mx/lib/fpu64\software-debug-break.o

.text.ADCHS_ChannelResultGet
                0x000000009d005150       0x18
 .text.ADCHS_ChannelResultGet
                0x000000009d005150       0x18 build/DSP_TU/debug/_ext/1736525323/plib_adchs.o
                0x000000009d005150                ADCHS_ChannelResultGet

.text           0x000000009d005168       0x18
 .text          0x000000009d005168       0x18 c:/program files/microchip/xc32/v4.00/bin/bin/../../lib/gcc/pic32mx/8.3.1/../../../../pic32mx/lib/fpu64\libpic32.a(default-nmi-handler.o)
                0x000000009d005168                _nmi_handler

.text.fabs      0x000000009d005180       0x18
 .text.fabs     0x000000009d005180       0x18 c:/program files/microchip/xc32/v4.00/bin/bin/../../lib/gcc/pic32mx/8.3.1/../../../../pic32mx/lib/fpu64\libm-musl.a(fabs.o)
                0x000000009d005180                fabs

.rodata.cst8    0x000000009d005198       0x18
 .rodata.cst8   0x000000009d005198       0x18 c:/program files/microchip/xc32/v4.00/bin/bin/../../lib/gcc/pic32mx/8.3.1/../../../../pic32mx/lib/fpu64\libm-musl.a(floor.o)

.text.OCMP1_Enable
                0x000000009d0051b0       0x14
 .text.OCMP1_Enable
                0x000000009d0051b0       0x14 build/DSP_TU/debug/_ext/471242515/plib_ocmp1.o
                0x000000009d0051b0                OCMP1_Enable

.text.TMR2_Start
                0x000000009d0051c4       0x14
 .text.TMR2_Start
                0x000000009d0051c4       0x14 build/DSP_TU/debug/_ext/2093406237/plib_tmr2.o
                0x000000009d0051c4                TMR2_Start

.text.OCMP1_CompareSecondaryValueSet
                0x000000009d0051d8       0x10
 .text.OCMP1_CompareSecondaryValueSet
                0x000000009d0051d8       0x10 build/DSP_TU/debug/_ext/471242515/plib_ocmp1.o
                0x000000009d0051d8                OCMP1_CompareSecondaryValueSet

.rodata.cst8    0x000000009d0051e8       0x20
 .rodata.cst8   0x000000009d0051e8       0x10 build/DSP_TU/debug/_ext/1360937237/PwmAudioOut.o
 .rodata.cst8   0x000000009d0051f8       0x10 build/DSP_TU/debug/_ext/1360937237/dds.o

.rodata.cst8    0x000000009d005208       0x20
 .rodata.cst8   0x000000009d005208       0x10 build/DSP_TU/debug/_ext/1360937237/agc.o
 .rodata.cst8   0x000000009d005218       0x10 c:/program files/microchip/xc32/v4.00/bin/bin/../../lib/gcc/pic32mx/8.3.1/../../../../pic32mx/lib/fpu64\libm-musl.a(cos.o)

.rodata.cst8    0x000000009d005228       0x20
 .rodata.cst8   0x000000009d005228       0x10 c:/program files/microchip/xc32/v4.00/bin/bin/../../lib/gcc/pic32mx/8.3.1/../../../../pic32mx/lib/fpu64\libm-musl.a(scalbn.o)
 .rodata.cst8   0x000000009d005238       0x10 c:/program files/microchip/xc32/v4.00/bin/bin/../../lib/gcc/pic32mx/8.3.1/../../../../pic32mx/lib/fpu64\libm-musl.a(sin.o)

.rodata.cst8    0x000000009d005248       0x10
 .rodata.cst8   0x000000009d005248       0x10 c:/program files/microchip/xc32/v4.00/bin/bin/../../lib/gcc/pic32mx/8.3.1/../../../../pic32mx/lib/fpu64\libm-musl.a(sqrt.o)

.text.__exception_handler_break
                0x000000009d0000f4        0xc
 .text.__exception_handler_break
                0x000000009d0000f4        0xc c:/program files/microchip/xc32/v4.00/bin/bin/../../lib/gcc/pic32mx/8.3.1/../../../../pic32mx/lib/fpu64\software-debug-break.o
                0x000000009d0000f4                __exception_handler_break

.text._on_reset
                0x000000009d0001f4        0x8
 .text._on_reset
                0x000000009d0001f4        0x8 c:/program files/microchip/xc32/v4.00/bin/bin/../../lib/gcc/pic32mx/8.3.1/../../../../pic32mx/lib/fpu64\libpic32.a(default-on-reset.o)
                0x000000009d0001f4                _on_reset

.text._on_bootstrap
                0x000000009d005258        0x8
 .text._on_bootstrap
                0x000000009d005258        0x8 c:/program files/microchip/xc32/v4.00/bin/bin/../../lib/gcc/pic32mx/8.3.1/../../../../pic32mx/lib/fpu64\libpic32.a(default-on-bootstrap.o)
                0x000000009d005258                _on_bootstrap
