
Optional file vector_offset_init.o not found
Archive member included to satisfy reference by file (symbol)

c:/program files/microchip/xc32/v4.00/bin/bin/../../lib/gcc/pic32mx/8.3.1/../../../../pic32mx/lib/fpu64\libpic32.a(strlen.o)
                              build/DSP_TU2/debug/_ext/1360937237/PollEncoder.o (strlen)
c:/program files/microchip/xc32/v4.00/bin/bin/../../lib/gcc/pic32mx/8.3.1/../../../../pic32mx/lib/fpu64\libpic32.a(default-on-reset.o)
                              C:\Users\HAROLD~1\AppData\Local\Temp\ccOhslTW.o (_on_reset)
c:/program files/microchip/xc32/v4.00/bin/bin/../../lib/gcc/pic32mx/8.3.1/../../../../pic32mx/lib/fpu64\libpic32.a(default-on-bootstrap.o)
                              C:\Users\HAROLD~1\AppData\Local\Temp\ccOhslTW.o (_on_bootstrap)
c:/program files/microchip/xc32/v4.00/bin/bin/../../lib/gcc/pic32mx/8.3.1/../../../../pic32mx/lib/fpu64\libpic32.a(default-nmi-handler.o)
                              C:\Users\HAROLD~1\AppData\Local\Temp\ccOhslTW.o (_nmi_handler)
c:/program files/microchip/xc32/v4.00/bin/bin/../../lib/gcc/pic32mx/8.3.1/../../../../pic32mx/lib/fpu64\libpic32.a(pic32_data_init.o)
                              C:\Users\HAROLD~1\AppData\Local\Temp\ccOhslTW.o (__pic32_data_init)
c:/program files/microchip/xc32/v4.00/bin/bin/../../lib/gcc/pic32mx/8.3.1/../../../../pic32mx/lib/fpu64\libpic32.a(pic32_init_cache.o)
                              C:\Users\HAROLD~1\AppData\Local\Temp\ccOhslTW.o (__pic32_init_cache)
c:/program files/microchip/xc32/v4.00/bin/bin/../../lib/gcc/pic32mx/8.3.1/../../../../pic32mx/lib/fpu64\libpic32.a(pic32_init_tlb_ebi_sqi.o)
                              C:\Users\HAROLD~1\AppData\Local\Temp\ccOhslTW.o (__pic32_tlb_init_ebi_sqi)
c:/program files/microchip/xc32/v4.00/bin/bin/../../lib/gcc/pic32mx/8.3.1/../../../../pic32mx/lib/fpu64\libpic32.a(general-exception.o)
                              C:\Users\HAROLD~1\AppData\Local\Temp\ccOhslTW.o (_general_exception_context)
c:/program files/microchip/xc32/v4.00/bin/bin/../../lib/gcc/pic32mx/8.3.1/../../../../pic32mx/lib/fpu64\libpic32.a(cache-err-exception.o)
                              C:\Users\HAROLD~1\AppData\Local\Temp\ccOhslTW.o (_cache_err_exception_context)
c:/program files/microchip/xc32/v4.00/bin/bin/../../lib/gcc/pic32mx/8.3.1/../../../../pic32mx/lib/fpu64\libpic32.a(simple-tlb-refill-exception.o)
                              C:\Users\HAROLD~1\AppData\Local\Temp\ccOhslTW.o (_simple_tlb_refill_exception_context)
c:/program files/microchip/xc32/v4.00/bin/bin/../../lib/gcc/pic32mx/8.3.1/../../../../pic32mx/lib/fpu64\libpic32.a(defaultinterrupt.o)
                              C:\Users\HAROLD~1\AppData\Local\Temp\cc0zEMnh.o (_DefaultInterrupt)
c:/program files/microchip/xc32/v4.00/bin/bin/../../lib/gcc/pic32mx/8.3.1/../../../../pic32mx/lib/fpu64\libc-musl.a(malloc.o)
                              build/DSP_TU2/debug/_ext/1360937237/biquad.o (free)
c:/program files/microchip/xc32/v4.00/bin/bin/../../lib/gcc/pic32mx/8.3.1/../../../../pic32mx/lib/fpu64\libc-musl.a(expand_heap.o)
                              c:/program files/microchip/xc32/v4.00/bin/bin/../../lib/gcc/pic32mx/8.3.1/../../../../pic32mx/lib/fpu64\libc-musl.a(malloc.o) (__expand_heap)
c:/program files/microchip/xc32/v4.00/bin/bin/../../lib/gcc/pic32mx/8.3.1/../../../../pic32mx/lib/fpu64\libc-musl.a(__sio_sprintf_doux.o)
                              build/DSP_TU2/debug/_ext/1360937237/PollEncoder.o (_sprintf_cdnopuxX)
c:/program files/microchip/xc32/v4.00/bin/bin/../../lib/gcc/pic32mx/8.3.1/../../../../pic32mx/lib/fpu64\libc-musl.a(__fmt_d.o)
                              c:/program files/microchip/xc32/v4.00/bin/bin/../../lib/gcc/pic32mx/8.3.1/../../../../pic32mx/lib/fpu64\libc-musl.a(__sio_sprintf_doux.o) (__fmt_d_needed)
c:/program files/microchip/xc32/v4.00/bin/bin/../../lib/gcc/pic32mx/8.3.1/../../../../pic32mx/lib/fpu64\libc-musl.a(__fmt_o.o)
                              c:/program files/microchip/xc32/v4.00/bin/bin/../../lib/gcc/pic32mx/8.3.1/../../../../pic32mx/lib/fpu64\libc-musl.a(__sio_sprintf_doux.o) (__fmt_o_needed)
c:/program files/microchip/xc32/v4.00/bin/bin/../../lib/gcc/pic32mx/8.3.1/../../../../pic32mx/lib/fpu64\libc-musl.a(__fmt_s.o)
                              c:/program files/microchip/xc32/v4.00/bin/bin/../../lib/gcc/pic32mx/8.3.1/../../../../pic32mx/lib/fpu64\libc-musl.a(__sio_sprintf_doux.o) (__fmt_s_needed)
c:/program files/microchip/xc32/v4.00/bin/bin/../../lib/gcc/pic32mx/8.3.1/../../../../pic32mx/lib/fpu64\libc-musl.a(__fmt_u.o)
                              c:/program files/microchip/xc32/v4.00/bin/bin/../../lib/gcc/pic32mx/8.3.1/../../../../pic32mx/lib/fpu64\libc-musl.a(__fmt_d.o) (__cvt_u)
c:/program files/microchip/xc32/v4.00/bin/bin/../../lib/gcc/pic32mx/8.3.1/../../../../pic32mx/lib/fpu64\libc-musl.a(__fmt_x.o)
                              c:/program files/microchip/xc32/v4.00/bin/bin/../../lib/gcc/pic32mx/8.3.1/../../../../pic32mx/lib/fpu64\libc-musl.a(__sio_sprintf_doux.o) (__fmt_x_needed)
c:/program files/microchip/xc32/v4.00/bin/bin/../../lib/gcc/pic32mx/8.3.1/../../../../pic32mx/lib/fpu64\libc-musl.a(__printf_core.o)
                              c:/program files/microchip/xc32/v4.00/bin/bin/../../lib/gcc/pic32mx/8.3.1/../../../../pic32mx/lib/fpu64\libc-musl.a(__fmt_d.o) (__pad)
c:/program files/microchip/xc32/v4.00/bin/bin/../../lib/gcc/pic32mx/8.3.1/../../../../pic32mx/lib/fpu64\libc-musl.a(atoi.o)
                              c:/program files/microchip/xc32/v4.00/bin/bin/../../lib/gcc/pic32mx/8.3.1/../../../../pic32mx/lib/fpu64\libc-musl.a(__printf_core.o) (atoi)
c:/program files/microchip/xc32/v4.00/bin/bin/../../lib/gcc/pic32mx/8.3.1/../../../../pic32mx/lib/fpu64\libc-musl.a(memcpy.o)
                              c:/program files/microchip/xc32/v4.00/bin/bin/../../lib/gcc/pic32mx/8.3.1/../../../../pic32mx/lib/fpu64\libc-musl.a(malloc.o) (memcpy)
c:/program files/microchip/xc32/v4.00/bin/bin/../../lib/gcc/pic32mx/8.3.1/../../../../pic32mx/lib/fpu64\libc-musl.a(memset.o)
                              c:/program files/microchip/xc32/v4.00/bin/bin/../../lib/gcc/pic32mx/8.3.1/../../../../pic32mx/lib/fpu64\libc-musl.a(__printf_core.o) (memset)
c:/program files/microchip/xc32/v4.00/bin/bin/../../lib/gcc/pic32mx/8.3.1/../../../../pic32mx/lib/fpu64\libc-musl.a(tolower.o)
                              c:/program files/microchip/xc32/v4.00/bin/bin/../../lib/gcc/pic32mx/8.3.1/../../../../pic32mx/lib/fpu64\libc-musl.a(__printf_core.o) (tolower)
c:/program files/microchip/xc32/v4.00/bin/bin/../../lib/gcc/pic32mx/8.3.1/../../../../pic32mx/lib/fpu64\libc-musl.a(toupper.o)
                              c:/program files/microchip/xc32/v4.00/bin/bin/../../lib/gcc/pic32mx/8.3.1/../../../../pic32mx/lib/fpu64\libc-musl.a(__fmt_x.o) (toupper)
c:/program files/microchip/xc32/v4.00/bin/bin/../../lib/gcc/pic32mx/8.3.1/../../../../pic32mx/lib/fpu64\libc-musl.a(libc.o)
                              c:/program files/microchip/xc32/v4.00/bin/bin/../../lib/gcc/pic32mx/8.3.1/../../../../pic32mx/lib/fpu64\libc-musl.a(malloc.o) (__libc)
c:/program files/microchip/xc32/v4.00/bin/bin/../../lib/gcc/pic32mx/8.3.1/../../../../pic32mx/lib/fpu64\libc-musl.a(__int_vsprintf.o)
                              c:/program files/microchip/xc32/v4.00/bin/bin/../../lib/gcc/pic32mx/8.3.1/../../../../pic32mx/lib/fpu64\libc-musl.a(__sio_sprintf_doux.o) (__vsprintf)
c:/program files/microchip/xc32/v4.00/bin/bin/../../lib/gcc/pic32mx/8.3.1/../../../../pic32mx/lib/fpu64\libc-musl.a(__pop_float.o)
                              c:/program files/microchip/xc32/v4.00/bin/bin/../../lib/gcc/pic32mx/8.3.1/../../../../pic32mx/lib/fpu64\libc-musl.a(__printf_core.o) (__pop_float)
c:/program files/microchip/xc32/v4.00/bin/bin/../../lib/gcc/pic32mx/8.3.1/../../../../pic32mx/lib/fpu64\libc-musl.a(__pop_int.o)
                              c:/program files/microchip/xc32/v4.00/bin/bin/../../lib/gcc/pic32mx/8.3.1/../../../../pic32mx/lib/fpu64\libc-musl.a(__printf_core.o) (__pop_int)
c:/program files/microchip/xc32/v4.00/bin/bin/../../lib/gcc/pic32mx/8.3.1/../../../../pic32mx/lib/fpu64\libc-musl.a(__pop_ptr.o)
                              c:/program files/microchip/xc32/v4.00/bin/bin/../../lib/gcc/pic32mx/8.3.1/../../../../pic32mx/lib/fpu64\libc-musl.a(__printf_core.o) (__pop_ptr)
c:/program files/microchip/xc32/v4.00/bin/bin/../../lib/gcc/pic32mx/8.3.1/../../../../pic32mx/lib/fpu64\libc-musl.a(__int_vsnprintf.o)
                              c:/program files/microchip/xc32/v4.00/bin/bin/../../lib/gcc/pic32mx/8.3.1/../../../../pic32mx/lib/fpu64\libc-musl.a(__int_vsprintf.o) (__vsnprintf)
c:/program files/microchip/xc32/v4.00/bin/bin/../../lib/gcc/pic32mx/8.3.1/../../../../pic32mx/lib/fpu64\libc-musl.a(__int_vfprintf.o)
                              c:/program files/microchip/xc32/v4.00/bin/bin/../../lib/gcc/pic32mx/8.3.1/../../../../pic32mx/lib/fpu64\libc-musl.a(__int_vsnprintf.o) (__vfprintf)
c:/program files/microchip/xc32/v4.00/bin/bin/../../lib/gcc/pic32mx/8.3.1/../../../../pic32mx/lib/fpu64\libm-musl.a(cos.o)
                              build/DSP_TU2/debug/_ext/1360937237/biquad.o (cos)
c:/program files/microchip/xc32/v4.00/bin/bin/../../lib/gcc/pic32mx/8.3.1/../../../../pic32mx/lib/fpu64\libm-musl.a(pow.o)
                              build/DSP_TU2/debug/_ext/1360937237/biquad.o (pow)
c:/program files/microchip/xc32/v4.00/bin/bin/../../lib/gcc/pic32mx/8.3.1/../../../../pic32mx/lib/fpu64\libm-musl.a(scalbn.o)
                              c:/program files/microchip/xc32/v4.00/bin/bin/../../lib/gcc/pic32mx/8.3.1/../../../../pic32mx/lib/fpu64\libm-musl.a(pow.o) (scalbn)
c:/program files/microchip/xc32/v4.00/bin/bin/../../lib/gcc/pic32mx/8.3.1/../../../../pic32mx/lib/fpu64\libm-musl.a(sin.o)
                              build/DSP_TU2/debug/_ext/1360937237/biquad.o (sin)
c:/program files/microchip/xc32/v4.00/bin/bin/../../lib/gcc/pic32mx/8.3.1/../../../../pic32mx/lib/fpu64\libm-musl.a(sqrt.o)
                              c:/program files/microchip/xc32/v4.00/bin/bin/../../lib/gcc/pic32mx/8.3.1/../../../../pic32mx/lib/fpu64\libm-musl.a(pow.o) (sqrt)
c:/program files/microchip/xc32/v4.00/bin/bin/../../lib/gcc/pic32mx/8.3.1/../../../../pic32mx/lib/fpu64\libm-musl.a(__cos.o)
                              c:/program files/microchip/xc32/v4.00/bin/bin/../../lib/gcc/pic32mx/8.3.1/../../../../pic32mx/lib/fpu64\libm-musl.a(cos.o) (__cos)
c:/program files/microchip/xc32/v4.00/bin/bin/../../lib/gcc/pic32mx/8.3.1/../../../../pic32mx/lib/fpu64\libm-musl.a(__rem_pio2.o)
                              c:/program files/microchip/xc32/v4.00/bin/bin/../../lib/gcc/pic32mx/8.3.1/../../../../pic32mx/lib/fpu64\libm-musl.a(cos.o) (__rem_pio2)
c:/program files/microchip/xc32/v4.00/bin/bin/../../lib/gcc/pic32mx/8.3.1/../../../../pic32mx/lib/fpu64\libm-musl.a(__rem_pio2_large.o)
                              c:/program files/microchip/xc32/v4.00/bin/bin/../../lib/gcc/pic32mx/8.3.1/../../../../pic32mx/lib/fpu64\libm-musl.a(__rem_pio2.o) (__rem_pio2_large)
c:/program files/microchip/xc32/v4.00/bin/bin/../../lib/gcc/pic32mx/8.3.1/../../../../pic32mx/lib/fpu64\libm-musl.a(__sin.o)
                              c:/program files/microchip/xc32/v4.00/bin/bin/../../lib/gcc/pic32mx/8.3.1/../../../../pic32mx/lib/fpu64\libm-musl.a(cos.o) (__sin)
c:/program files/microchip/xc32/v4.00/bin/bin/../../lib/gcc/pic32mx/8.3.1/../../../../pic32mx/lib/fpu64\libm-musl.a(fabs.o)
                              c:/program files/microchip/xc32/v4.00/bin/bin/../../lib/gcc/pic32mx/8.3.1/../../../../pic32mx/lib/fpu64\libm-musl.a(pow.o) (fabs)
c:/program files/microchip/xc32/v4.00/bin/bin/../../lib/gcc/pic32mx/8.3.1/../../../../pic32mx/lib/fpu64\libm-musl.a(floor.o)
                              c:/program files/microchip/xc32/v4.00/bin/bin/../../lib/gcc/pic32mx/8.3.1/../../../../pic32mx/lib/fpu64\libm-musl.a(__rem_pio2_large.o) (floor)
c:/program files/microchip/xc32/v4.00/bin/bin/../../lib/gcc/pic32mx/8.3.1/../../../../pic32mx/lib/fpu64\libpic32.a(sbrk.o)
                              c:/program files/microchip/xc32/v4.00/bin/bin/../../lib/gcc/pic32mx/8.3.1/../../../../pic32mx/lib/fpu64\libc-musl.a(expand_heap.o) (_sbrk)
c:/program files/microchip/xc32/v4.00/bin/bin/../../lib/gcc/pic32mx/8.3.1/../../../../pic32mx/lib/fpu64\libpic32.a(errno.o)
                              c:/program files/microchip/xc32/v4.00/bin/bin/../../lib/gcc/pic32mx/8.3.1/../../../../pic32mx/lib/fpu64\libc-musl.a(malloc.o) (errno)
c:/program files/microchip/xc32/v4.00/bin/bin/../../lib/gcc/pic32mx/8.3.1/fpu64\libgcc.a(_lshrdi3.o)
                              c:/program files/microchip/xc32/v4.00/bin/bin/../../lib/gcc/pic32mx/8.3.1/../../../../pic32mx/lib/fpu64\libc-musl.a(malloc.o) (__lshrdi3)
c:/program files/microchip/xc32/v4.00/bin/bin/../../lib/gcc/pic32mx/8.3.1/fpu64\libgcc.a(_ashldi3.o)
                              c:/program files/microchip/xc32/v4.00/bin/bin/../../lib/gcc/pic32mx/8.3.1/../../../../pic32mx/lib/fpu64\libc-musl.a(malloc.o) (__ashldi3)
c:/program files/microchip/xc32/v4.00/bin/bin/../../lib/gcc/pic32mx/8.3.1/fpu64\libgcc.a(_udivdi3.o)
                              c:/program files/microchip/xc32/v4.00/bin/bin/../../lib/gcc/pic32mx/8.3.1/../../../../pic32mx/lib/fpu64\libc-musl.a(__fmt_u.o) (__udivdi3)
c:/program files/microchip/xc32/v4.00/bin/bin/../../lib/gcc/pic32mx/8.3.1/fpu64\libgcc.a(_umoddi3.o)
                              c:/program files/microchip/xc32/v4.00/bin/bin/../../lib/gcc/pic32mx/8.3.1/../../../../pic32mx/lib/fpu64\libc-musl.a(__fmt_u.o) (__umoddi3)

Allocating common symbols
Common symbol       size              file

samplef             0x8               build/DSP_TU2/debug/_ext/1360937237/main.o
StringBuf           0x64              build/DSP_TU2/debug/_ext/1360937237/main.o
Threshold           0x8               build/DSP_TU2/debug/_ext/1360937237/main.o
DiscrimOut          0x8               build/DSP_TU2/debug/_ext/1360937237/main.o
AgcLpf              0x4               build/DSP_TU2/debug/_ext/1360937237/agc.o
SpaceSample         0x8               build/DSP_TU2/debug/_ext/1360937237/main.o
SpaceDemodOut       0x8               build/DSP_TU2/debug/_ext/1360937237/main.o
Switches            0x1               build/DSP_TU2/debug/_ext/1360937237/PollSwitchesLeds.o
MarkSample          0x8               build/DSP_TU2/debug/_ext/1360937237/main.o
uart2Obj            0x44              build/DSP_TU2/debug/_ext/682395886/plib_uart2.o
DynamicThresholdLpf
                    0x4               build/DSP_TU2/debug/_ext/1360937237/DynamicThreshold.o
MarkDemodOut        0x8               build/DSP_TU2/debug/_ext/1360937237/main.o
AdcSample           0x2               build/DSP_TU2/debug/_ext/1360937237/main.o
DdsOut              0x8               build/DSP_TU2/debug/_ext/1360937237/main.o
TestSamplef         0x8               build/DSP_TU2/debug/_ext/1360937237/main.o

Microchip PIC32 Memory-Usage Report

kseg0 Program-Memory Usage
section                    address  length [bytes]      (dec)  Description
-------                 ----------  -------------------------  -----------
.simple_tlb_refill_excp 0x9d000000           0x10          16   
.text.UART2_Initialize  0x9d000010           0xe4         228   
.text.__exception_handl 0x9d0000f4            0xc          12   
.cache_err_excpt        0x9d000100           0x10          16   
.text.alloc_fwd         0x9d000110           0x70         112   
.app_excpt              0x9d000180           0x10          16  General-Exception 
.text.DisplaySetXY      0x9d000190           0x64         100   
.rodata.str1.4          0x9d0001f4            0xc          12   
.vectors                0x9d000200           0x68         104   
.text.pow               0x9d000268          0x8b0        2224   
.text.__rem_pio2_large  0x9d000b18          0x848        2120   
.text.main              0x9d001360          0x604        1540   
.text.__printf_core     0x9d001964          0x588        1416   
.dinit                  0x9d001eec          0x540        1344   
.text.__rem_pio2        0x9d00242c          0x42c        1068   
.text                   0x9d002858          0x7e4        2020  App's exec code 
.text.BiQuad_new        0x9d00303c          0x390         912   
.text.malloc            0x9d0033cc          0x29c         668   
.text.sqrt              0x9d003668          0x254         596   
.text.BaudotUartRx      0x9d0038bc          0x250         592   
.text.__fmt_x           0x9d003b0c          0x210         528   
.text.DisplayInit       0x9d003d1c          0x1e4         484   
.text.TIMER_2_Handler   0x9d003f00          0x1d0         464   
.text.UART2_FAULT_Handl 0x9d0040d0          0x1d0         464   
.text.UART2_RX_Handler  0x9d0042a0          0x1d0         464   
.text.UART2_TX_Handler  0x9d004470          0x1d0         464   
.text.PollSwitchesLeds  0x9d004640          0x1c8         456   
.text.GPIO_Initialize   0x9d004808          0x1a0         416   
.text.free              0x9d0049a8          0x19c         412   
.text.UART2_RX_Interrup 0x9d004b44          0x18c         396   
.text.__pop_int         0x9d004cd0          0x188         392   
.text.UART2_TX_Interrup 0x9d004e58          0x184         388   
.text                   0x9d004fdc          0x168         360  App's exec code 
.text.xyScope           0x9d005144          0x160         352   
.text.__fmt_d           0x9d0052a4          0x158         344   
.rodata                 0x9d005400          0x158         344  Read-only const 
.text._sbrk_init        0x9d005558          0x154         340   
.text.__cvt_u           0x9d0056ac          0x144         324   
.text.UART2_Write       0x9d0057f0          0x140         320   
.text.sin               0x9d005930          0x120         288   
.text.ADCHS_Initialize  0x9d005a50          0x110         272   
.text.__pad             0x9d005b60          0x104         260   
.text.cos               0x9d005c64          0x100         256   
.text.__fmt_o           0x9d005d64           0xfc         252   
.rodata.cst8            0x9d005e60           0xf8         248   
.text.__pop_ptr         0x9d005f58           0xe4         228   
.text.PollEncoder       0x9d00603c           0xdc         220   
.text.general_exception 0x9d006118           0xdc         220   
.text._cache_err_except 0x9d0061f4           0xd8         216   
.text.simple_tlb_refill 0x9d0062cc           0xd8         216   
.text.UART2_FAULT_Inter 0x9d0063a4           0xbc         188   
.tlb.__pic32_tlb_init_e 0x9d006460           0xbc         188   
.text.__fmt_u           0x9d00651c           0xbc         188   
.text.CLK_Initialize    0x9d0065d8           0xb4         180   
.text.DynamicThresholdG 0x9d00668c           0xb4         180   
.text.floor             0x9d006740           0xb4         180   
.text._sbrk             0x9d0067f4           0xb0         176   
.text.unbin             0x9d0068a4           0xac         172   
.text.DisplayPoll       0x9d006950           0xa8         168   
.text.__fmt_s           0x9d0069f8           0xa8         168   
.text.SYS_Initialize    0x9d006aa0           0xa0         160   
.text.__sin             0x9d006b40           0x90         144   
.text                   0x9d006bd0           0x8c         140  App's exec code 
.text.scalbn            0x9d006c5c           0x8c         140   
.text.__cos             0x9d006ce8           0x88         136   
.text.agc               0x9d006d70           0x84         132   
.text.atoi              0x9d006df4           0x80         128   
.text.__vsnprintf       0x9d006e74           0x80         128   
.text.SPI3_Initialize   0x9d006ef4           0x7c         124   
.text.SPI1_Initialize   0x9d006f70           0x78         120   
.rodata.cst8            0x9d006fe8           0x78         120   
.text.SPI2_Initialize   0x9d007060           0x74         116   
.text.alloc_rev         0x9d0070d4           0x74         116   
.text.bin_index         0x9d007148           0x64         100   
.text.EVIC_Initialize   0x9d0071ac           0x5c          92   
.rodata                 0x9d007208           0x5c          92  Read-only const 
.text.__string_out      0x9d007264           0x5c          92   
.text.__fmt_state       0x9d0072c0           0x5c          92   
.text.AudioPwmSet       0x9d00731c           0x58          88   
.text.DisplayFifoWrite  0x9d007374           0x58          88   
.text.Fifo16Put         0x9d0073cc           0x58          88   
.text.adjust_size       0x9d007424           0x58          88   
.text.trim              0x9d00747c           0x58          88   
.text.BiQuad            0x9d0074d4           0x54          84   
.text.Fifo16Get         0x9d007528           0x54          84   
.text.main_entry        0x9d00757c           0x54          84   
.text.DdsNextSample     0x9d0075d0           0x50          80   
.text.DisplayClear      0x9d007620           0x50          80   
.text.DynamicThresholdI 0x9d007670           0x4c          76   
.rodata.cst8            0x9d0076c0           0x48          72   
.text.AgcInit           0x9d007708           0x48          72   
.text.DisplayWriteNextP 0x9d007750           0x48          72   
.text.DisplayWritePixel 0x9d007798           0x48          72   
.text.Fifo16Create      0x9d0077e0           0x48          72   
.text.__pop_float       0x9d007828           0x48          72   
.text                   0x9d007870           0x44          68  App's exec code 
.text.TIMER_2_Interrupt 0x9d0078b4           0x40          64   
.text.ComWrite          0x9d0078f4           0x40          64   
.rodata.cst8            0x9d007938           0x80         128   
.text.TMR2_Initialize   0x9d0079b8           0x3c          60   
.text.__expand_heap     0x9d0079f4           0x3c          60   
.text.__vfprintf        0x9d007a30           0x3c          60   
.text                   0x9d007a6c           0x78         120  App's exec code 
.text.UART2_WritePendin 0x9d007ae4           0x34          52   
.text.UART2_ReadCountGe 0x9d007b18           0x34          52   
.text.lock_bin          0x9d007b4c           0x34          52   
.text.UART2_WriteFreeBu 0x9d007b80           0x30          48   
.text.AfskGen           0x9d007bb0           0x30          48   
.rodata.cst8            0x9d007be0           0x30          48   
.rodata                 0x9d007c10           0x30          48  Read-only const 
.rodata.cst8            0x9d007c40           0x30          48   
.text.memcpy            0x9d007c70           0x2c          44   
.text._stub_sbd_memlayo 0x9d007c9c           0x2c          44   
.text.ADCHS_ChannelConv 0x9d007cc8           0x28          40   
.text.OCMP1_Initialize  0x9d007cf0           0x28          40   
.text.__wrap_sprintf    0x9d007d18           0x28          40   
.text.__vsprintf        0x9d007d40           0x28          40   
.text.DataWrite         0x9d007d68           0x24          36   
.text.DisplayCSN        0x9d007d8c           0x24          36   
.text.memset            0x9d007db0           0x24          36   
.rodata.cst8            0x9d007dd8           0x20          32   
.text.DdsFreqSet        0x9d007df8           0x20          32   
.text._general_exceptio 0x9d007e18           0x1c          28   
.text._bootstrap_except 0x9d007e34           0x1c          28   
.text._cache_err_except 0x9d007e50           0x1c          28   
.text._simple_tlb_refil 0x9d007e6c           0x1c          28   
.text.AfskGenInit       0x9d007e88           0x1c          28   
.text.tolower           0x9d007ea4           0x1c          28   
.text.toupper           0x9d007ec0           0x1c          28   
.MIPS.abiflags          0x9d007ee0           0x18          24   
.text.ADCHS_ChannelResu 0x9d007ef8           0x18          24   
.text.MyTimer2Isr       0x9d007f10           0x18          24   
.text                   0x9d007f28           0x18          24  App's exec code 
.rodata                 0x9d007f40           0x18          24  Read-only const 
.text.fabs              0x9d007f58           0x18          24   
.rodata.cst8            0x9d007f70           0x18          24   
.text.OCMP1_Enable      0x9d007f88           0x14          20   
.text.SPI1_IsTransmitte 0x9d007f9c           0x14          20   
.text.TMR2_Start        0x9d007fb0           0x14          20   
.text.OCMP1_CompareSeco 0x9d007fc4           0x10          16   
.text.TMR2_CallbackRegi 0x9d007fd4           0x10          16   
.rodata.cst8            0x9d007fe8           0x20          32   
.rodata.cst8            0x9d008008           0x20          32   
.rodata.cst8            0x9d008028           0x20          32   
.rodata.cst8            0x9d008048           0x20          32   
.text.Fifo16Full        0x9d008068            0x8           8   
.text.Fifo16Free        0x9d008070            0x8           8   
.text._on_reset         0x9d008078            0x8           8   
.text._on_bootstrap     0x9d008080            0x8           8   
.text.__dummy_fmt4      0x9d008088            0x8           8   
.rodata.str1.4          0x9d008090            0x8           8   
      Total kseg0_program_mem used  :      0x8080       32896  6.3% of 0x80000

kseg0 Boot-Memory Usage
section                    address  length [bytes]      (dec)  Description
-------                 ----------  -------------------------  -----------
         Total kseg0_boot_mem used  :           0           0  

kseg1 Boot-Memory Usage
section                    address  length [bytes]      (dec)  Description
-------                 ----------  -------------------------  -----------
.reset                  0xbfc00000          0x1c4         452  Reset handler 
.bev_excpt              0xbfc00380           0x10          16  BEV-Exception 
         Total kseg1_boot_mem used  :       0x1d4         468  40.6% of 0x480
        --------------------------------------------------------------------------
         Total Program Memory used  :      0x8254       33364  6.3% of 0x80480
        --------------------------------------------------------------------------


kseg0 Data-Memory Usage
section                    address  length [bytes]      (dec)  Description
-------                 ----------  -------------------------  -----------
reserve_data_0_kseg0    0x80000000          0x380         896   
.sdata                  0x80000380           0x94         148  Small init data 
.sbss                   0x80000414           0xc8         200  Small uninit data 
.bss                    0x800004dc           0xa8         168  Uninitialized data 
.bss                    0x80000584          0xa80        2688  Uninitialized data 
.bss.errno              0x80001004            0x4           4   
.bss                    0x80001008          0x260         608  Uninitialized data 
.data                   0x80001268           0x45          69  Initialized data 
.bss                    0x800012b0           0x24          36  Uninitialized data 
         Total kseg0_data_mem used  :      0x12d1        4817  3.7% of 0x20000

kseg1 Data-Memory Usage
section                    address  length [bytes]      (dec)  Description
-------                 ----------  -------------------------  -----------
reserve_data_0_kseg1    0xa0000000          0x380         896   
         Total kseg1_data_mem used  :       0x380         896  100.0% of 0x380
        --------------------------------------------------------------------------
            Total Data Memory used  :      0x1651        5713  4.3% of 0x20380
        --------------------------------------------------------------------------


Dynamic Data-Memory Reservation
section                    address  length [bytes]      (dec)  Description
-------                 ----------  -------------------------  -----------
heap                    0x800012d8         0x2710       10000  Reserved for heap 
stack                   0x80003a00        0x1c5f0      116208  Reserved for stack 

        --------------------------------------------------------------------------

Discarded input sections

 .text          0x0000000000000000        0x0 c:/program files/microchip/xc32/v4.00/bin/bin/../../lib/gcc/pic32mx/8.3.1/../../../../pic32mx/lib/fpu64\software-debug-break.o
 .data          0x0000000000000000        0x0 c:/program files/microchip/xc32/v4.00/bin/bin/../../lib/gcc/pic32mx/8.3.1/../../../../pic32mx/lib/fpu64\software-debug-break.o
 .bss           0x0000000000000000        0x0 c:/program files/microchip/xc32/v4.00/bin/bin/../../lib/gcc/pic32mx/8.3.1/../../../../pic32mx/lib/fpu64\software-debug-break.o
 .xc_stack_usage
                0x0000000000000000       0x27 c:/program files/microchip/xc32/v4.00/bin/bin/../../lib/gcc/pic32mx/8.3.1/../../../../pic32mx/lib/fpu64\software-debug-break.o
 .xc_stack_usage.hdr
                0x0000000000000000        0xe c:/program files/microchip/xc32/v4.00/bin/bin/../../lib/gcc/pic32mx/8.3.1/../../../../pic32mx/lib/fpu64\software-debug-break.o
 .text          0x0000000000000000        0x0 build/DSP_TU2/debug/_ext/302168295/plib_adchs.o
 .data          0x0000000000000000        0x0 build/DSP_TU2/debug/_ext/302168295/plib_adchs.o
 .bss           0x0000000000000000        0x0 build/DSP_TU2/debug/_ext/302168295/plib_adchs.o
 .reginfo       0x0000000000000000       0x18 build/DSP_TU2/debug/_ext/302168295/plib_adchs.o
 .MIPS.abiflags
                0x0000000000000000       0x18 build/DSP_TU2/debug/_ext/302168295/plib_adchs.o
 .text.ADCHS_ModulesEnable
                0x0000000000000000       0x1c build/DSP_TU2/debug/_ext/302168295/plib_adchs.o
 .text.ADCHS_ModulesDisable
                0x0000000000000000       0x20 build/DSP_TU2/debug/_ext/302168295/plib_adchs.o
 .text.ADCHS_ChannelResultInterruptEnable
                0x0000000000000000       0x48 build/DSP_TU2/debug/_ext/302168295/plib_adchs.o
 .text.ADCHS_ChannelResultInterruptDisable
                0x0000000000000000       0x50 build/DSP_TU2/debug/_ext/302168295/plib_adchs.o
 .text.ADCHS_ChannelEarlyInterruptEnable
                0x0000000000000000       0x48 build/DSP_TU2/debug/_ext/302168295/plib_adchs.o
 .text.ADCHS_ChannelEarlyInterruptDisable
                0x0000000000000000       0x50 build/DSP_TU2/debug/_ext/302168295/plib_adchs.o
 .text.ADCHS_GlobalEdgeConversionStart
                0x0000000000000000       0x1c build/DSP_TU2/debug/_ext/302168295/plib_adchs.o
 .text.ADCHS_GlobalLevelConversionStart
                0x0000000000000000       0x1c build/DSP_TU2/debug/_ext/302168295/plib_adchs.o
 .text.ADCHS_GlobalLevelConversionStop
                0x0000000000000000       0x18 build/DSP_TU2/debug/_ext/302168295/plib_adchs.o
 .text.ADCHS_ChannelResultIsReady
                0x0000000000000000       0x30 build/DSP_TU2/debug/_ext/302168295/plib_adchs.o
 .text.ADCHS_EOSStatusGet
                0x0000000000000000       0x10 build/DSP_TU2/debug/_ext/302168295/plib_adchs.o
 .text          0x0000000000000000        0x0 build/DSP_TU2/debug/_ext/255064926/plib_clk.o
 .data          0x0000000000000000        0x0 build/DSP_TU2/debug/_ext/255064926/plib_clk.o
 .bss           0x0000000000000000        0x0 build/DSP_TU2/debug/_ext/255064926/plib_clk.o
 .reginfo       0x0000000000000000       0x18 build/DSP_TU2/debug/_ext/255064926/plib_clk.o
 .MIPS.abiflags
                0x0000000000000000       0x18 build/DSP_TU2/debug/_ext/255064926/plib_clk.o
 .text          0x0000000000000000        0x0 build/DSP_TU2/debug/_ext/682852657/plib_evic.o
 .data          0x0000000000000000        0x0 build/DSP_TU2/debug/_ext/682852657/plib_evic.o
 .bss           0x0000000000000000        0x0 build/DSP_TU2/debug/_ext/682852657/plib_evic.o
 .reginfo       0x0000000000000000       0x18 build/DSP_TU2/debug/_ext/682852657/plib_evic.o
 .MIPS.abiflags
                0x0000000000000000       0x18 build/DSP_TU2/debug/_ext/682852657/plib_evic.o
 .text.EVIC_SourceEnable
                0x0000000000000000       0x28 build/DSP_TU2/debug/_ext/682852657/plib_evic.o
 .text.EVIC_SourceDisable
                0x0000000000000000       0x28 build/DSP_TU2/debug/_ext/682852657/plib_evic.o
 .text.EVIC_SourceIsEnabled
                0x0000000000000000       0x20 build/DSP_TU2/debug/_ext/682852657/plib_evic.o
 .text.EVIC_SourceStatusGet
                0x0000000000000000       0x20 build/DSP_TU2/debug/_ext/682852657/plib_evic.o
 .text.EVIC_SourceStatusSet
                0x0000000000000000       0x28 build/DSP_TU2/debug/_ext/682852657/plib_evic.o
 .text.EVIC_SourceStatusClear
                0x0000000000000000       0x28 build/DSP_TU2/debug/_ext/682852657/plib_evic.o
 .text.EVIC_INT_Enable
                0x0000000000000000       0x18 build/DSP_TU2/debug/_ext/682852657/plib_evic.o
 .text.EVIC_INT_Disable
                0x0000000000000000       0x20 build/DSP_TU2/debug/_ext/682852657/plib_evic.o
 .text.EVIC_INT_Restore
                0x0000000000000000       0x28 build/DSP_TU2/debug/_ext/682852657/plib_evic.o
 .text          0x0000000000000000        0x0 build/DSP_TU2/debug/_ext/682798829/plib_gpio.o
 .data          0x0000000000000000        0x0 build/DSP_TU2/debug/_ext/682798829/plib_gpio.o
 .bss           0x0000000000000000        0x0 build/DSP_TU2/debug/_ext/682798829/plib_gpio.o
 .reginfo       0x0000000000000000       0x18 build/DSP_TU2/debug/_ext/682798829/plib_gpio.o
 .MIPS.abiflags
                0x0000000000000000       0x18 build/DSP_TU2/debug/_ext/682798829/plib_gpio.o
 .text.GPIO_PortRead
                0x0000000000000000       0x18 build/DSP_TU2/debug/_ext/682798829/plib_gpio.o
 .text.GPIO_PortWrite
                0x0000000000000000       0x2c build/DSP_TU2/debug/_ext/682798829/plib_gpio.o
 .text.GPIO_PortLatchRead
                0x0000000000000000       0x18 build/DSP_TU2/debug/_ext/682798829/plib_gpio.o
 .text.GPIO_PortSet
                0x0000000000000000       0x1c build/DSP_TU2/debug/_ext/682798829/plib_gpio.o
 .text.GPIO_PortClear
                0x0000000000000000       0x1c build/DSP_TU2/debug/_ext/682798829/plib_gpio.o
 .text.GPIO_PortToggle
                0x0000000000000000       0x1c build/DSP_TU2/debug/_ext/682798829/plib_gpio.o
 .text.GPIO_PortInputEnable
                0x0000000000000000       0x1c build/DSP_TU2/debug/_ext/682798829/plib_gpio.o
 .text.GPIO_PortOutputEnable
                0x0000000000000000       0x1c build/DSP_TU2/debug/_ext/682798829/plib_gpio.o
 .text          0x0000000000000000        0x0 build/DSP_TU2/debug/_ext/682572869/plib_ocmp1.o
 .data          0x0000000000000000        0x0 build/DSP_TU2/debug/_ext/682572869/plib_ocmp1.o
 .bss           0x0000000000000000        0x0 build/DSP_TU2/debug/_ext/682572869/plib_ocmp1.o
 .reginfo       0x0000000000000000       0x18 build/DSP_TU2/debug/_ext/682572869/plib_ocmp1.o
 .MIPS.abiflags
                0x0000000000000000       0x18 build/DSP_TU2/debug/_ext/682572869/plib_ocmp1.o
 .text.OCMP1_Disable
                0x0000000000000000       0x14 build/DSP_TU2/debug/_ext/682572869/plib_ocmp1.o
 .text.OCMP1_CompareValueGet
                0x0000000000000000       0x10 build/DSP_TU2/debug/_ext/682572869/plib_ocmp1.o
 .text.OCMP1_CompareSecondaryValueGet
                0x0000000000000000       0x10 build/DSP_TU2/debug/_ext/682572869/plib_ocmp1.o
 .text          0x0000000000000000        0x0 build/DSP_TU2/debug/_ext/957679836/plib_spi1_master.o
 .data          0x0000000000000000        0x0 build/DSP_TU2/debug/_ext/957679836/plib_spi1_master.o
 .bss           0x0000000000000000        0x0 build/DSP_TU2/debug/_ext/957679836/plib_spi1_master.o
 .reginfo       0x0000000000000000       0x18 build/DSP_TU2/debug/_ext/957679836/plib_spi1_master.o
 .MIPS.abiflags
                0x0000000000000000       0x18 build/DSP_TU2/debug/_ext/957679836/plib_spi1_master.o
 .text.SPI1_TransferSetup
                0x0000000000000000       0xcc build/DSP_TU2/debug/_ext/957679836/plib_spi1_master.o
 .text.SPI1_WriteRead
                0x0000000000000000      0x298 build/DSP_TU2/debug/_ext/957679836/plib_spi1_master.o
 .text.SPI1_Write
                0x0000000000000000       0x20 build/DSP_TU2/debug/_ext/957679836/plib_spi1_master.o
 .text.SPI1_Read
                0x0000000000000000       0x28 build/DSP_TU2/debug/_ext/957679836/plib_spi1_master.o
 .text          0x0000000000000000        0x0 build/DSP_TU2/debug/_ext/957679836/plib_spi3_master.o
 .data          0x0000000000000000        0x0 build/DSP_TU2/debug/_ext/957679836/plib_spi3_master.o
 .bss           0x0000000000000000        0x0 build/DSP_TU2/debug/_ext/957679836/plib_spi3_master.o
 .reginfo       0x0000000000000000       0x18 build/DSP_TU2/debug/_ext/957679836/plib_spi3_master.o
 .MIPS.abiflags
                0x0000000000000000       0x18 build/DSP_TU2/debug/_ext/957679836/plib_spi3_master.o
 .text.SPI3_TransferSetup
                0x0000000000000000       0xcc build/DSP_TU2/debug/_ext/957679836/plib_spi3_master.o
 .text.SPI3_IsTransmitterBusy
                0x0000000000000000       0x14 build/DSP_TU2/debug/_ext/957679836/plib_spi3_master.o
 .text.SPI3_WriteRead
                0x0000000000000000      0x298 build/DSP_TU2/debug/_ext/957679836/plib_spi3_master.o
 .text.SPI3_Write
                0x0000000000000000       0x20 build/DSP_TU2/debug/_ext/957679836/plib_spi3_master.o
 .text.SPI3_Read
                0x0000000000000000       0x28 build/DSP_TU2/debug/_ext/957679836/plib_spi3_master.o
 .text          0x0000000000000000        0x0 build/DSP_TU2/debug/_ext/957679836/plib_spi2_master.o
 .data          0x0000000000000000        0x0 build/DSP_TU2/debug/_ext/957679836/plib_spi2_master.o
 .bss           0x0000000000000000        0x0 build/DSP_TU2/debug/_ext/957679836/plib_spi2_master.o
 .reginfo       0x0000000000000000       0x18 build/DSP_TU2/debug/_ext/957679836/plib_spi2_master.o
 .MIPS.abiflags
                0x0000000000000000       0x18 build/DSP_TU2/debug/_ext/957679836/plib_spi2_master.o
 .text.SPI2_TransferSetup
                0x0000000000000000       0xcc build/DSP_TU2/debug/_ext/957679836/plib_spi2_master.o
 .text.SPI2_IsTransmitterBusy
                0x0000000000000000       0x14 build/DSP_TU2/debug/_ext/957679836/plib_spi2_master.o
 .text.SPI2_WriteRead
                0x0000000000000000      0x298 build/DSP_TU2/debug/_ext/957679836/plib_spi2_master.o
 .text.SPI2_Write
                0x0000000000000000       0x20 build/DSP_TU2/debug/_ext/957679836/plib_spi2_master.o
 .text.SPI2_Read
                0x0000000000000000       0x28 build/DSP_TU2/debug/_ext/957679836/plib_spi2_master.o
 .text          0x0000000000000000        0x0 build/DSP_TU2/debug/_ext/255081301/plib_tmr2.o
 .data          0x0000000000000000        0x0 build/DSP_TU2/debug/_ext/255081301/plib_tmr2.o
 .bss           0x0000000000000000        0x0 build/DSP_TU2/debug/_ext/255081301/plib_tmr2.o
 .reginfo       0x0000000000000000       0x18 build/DSP_TU2/debug/_ext/255081301/plib_tmr2.o
 .MIPS.abiflags
                0x0000000000000000       0x18 build/DSP_TU2/debug/_ext/255081301/plib_tmr2.o
 .text.TMR2_Stop
                0x0000000000000000       0x14 build/DSP_TU2/debug/_ext/255081301/plib_tmr2.o
 .text.TMR2_PeriodSet
                0x0000000000000000       0x10 build/DSP_TU2/debug/_ext/255081301/plib_tmr2.o
 .text.TMR2_PeriodGet
                0x0000000000000000       0x10 build/DSP_TU2/debug/_ext/255081301/plib_tmr2.o
 .text.TMR2_CounterGet
                0x0000000000000000       0x10 build/DSP_TU2/debug/_ext/255081301/plib_tmr2.o
 .text.TMR2_FrequencyGet
                0x0000000000000000        0xc build/DSP_TU2/debug/_ext/255081301/plib_tmr2.o
 .text.TMR2_InterruptEnable
                0x0000000000000000       0x14 build/DSP_TU2/debug/_ext/255081301/plib_tmr2.o
 .text.TMR2_InterruptDisable
                0x0000000000000000       0x14 build/DSP_TU2/debug/_ext/255081301/plib_tmr2.o
 .text          0x0000000000000000        0x0 build/DSP_TU2/debug/_ext/682395886/plib_uart2.o
 .data          0x0000000000000000        0x0 build/DSP_TU2/debug/_ext/682395886/plib_uart2.o
 .reginfo       0x0000000000000000       0x18 build/DSP_TU2/debug/_ext/682395886/plib_uart2.o
 .MIPS.abiflags
                0x0000000000000000       0x18 build/DSP_TU2/debug/_ext/682395886/plib_uart2.o
 .text.UART2_SerialSetup
                0x0000000000000000      0x154 build/DSP_TU2/debug/_ext/682395886/plib_uart2.o
 .text.UART2_Read
                0x0000000000000000       0xc0 build/DSP_TU2/debug/_ext/682395886/plib_uart2.o
 .text.UART2_ReadFreeBufferCountGet
                0x0000000000000000       0x30 build/DSP_TU2/debug/_ext/682395886/plib_uart2.o
 .text.UART2_ReadBufferSizeGet
                0x0000000000000000       0x10 build/DSP_TU2/debug/_ext/682395886/plib_uart2.o
 .text.UART2_ReadNotificationEnable
                0x0000000000000000       0x18 build/DSP_TU2/debug/_ext/682395886/plib_uart2.o
 .text.UART2_ReadThresholdSet
                0x0000000000000000       0x14 build/DSP_TU2/debug/_ext/682395886/plib_uart2.o
 .text.UART2_ReadCallbackRegister
                0x0000000000000000       0x14 build/DSP_TU2/debug/_ext/682395886/plib_uart2.o
 .text.UART2_WriteCountGet
                0x0000000000000000       0x1c build/DSP_TU2/debug/_ext/682395886/plib_uart2.o
 .text.UART2_WriteBufferSizeGet
                0x0000000000000000       0x10 build/DSP_TU2/debug/_ext/682395886/plib_uart2.o
 .text.UART2_TransmitComplete
                0x0000000000000000       0x10 build/DSP_TU2/debug/_ext/682395886/plib_uart2.o
 .text.UART2_WriteNotificationEnable
                0x0000000000000000       0x18 build/DSP_TU2/debug/_ext/682395886/plib_uart2.o
 .text.UART2_WriteThresholdSet
                0x0000000000000000       0x14 build/DSP_TU2/debug/_ext/682395886/plib_uart2.o
 .text.UART2_WriteCallbackRegister
                0x0000000000000000       0x14 build/DSP_TU2/debug/_ext/682395886/plib_uart2.o
 .text.UART2_ErrorGet
                0x0000000000000000       0x18 build/DSP_TU2/debug/_ext/682395886/plib_uart2.o
 .text.UART2_AutoBaudQuery
                0x0000000000000000       0x10 build/DSP_TU2/debug/_ext/682395886/plib_uart2.o
 .text.UART2_AutoBaudSet
                0x0000000000000000       0x18 build/DSP_TU2/debug/_ext/682395886/plib_uart2.o
 .text          0x0000000000000000        0x0 build/DSP_TU2/debug/_ext/775482278/xc32_monitor.o
 .data          0x0000000000000000        0x0 build/DSP_TU2/debug/_ext/775482278/xc32_monitor.o
 .bss           0x0000000000000000        0x0 build/DSP_TU2/debug/_ext/775482278/xc32_monitor.o
 .reginfo       0x0000000000000000       0x18 build/DSP_TU2/debug/_ext/775482278/xc32_monitor.o
 .MIPS.abiflags
                0x0000000000000000       0x18 build/DSP_TU2/debug/_ext/775482278/xc32_monitor.o
 .text.read     0x0000000000000000        0x8 build/DSP_TU2/debug/_ext/775482278/xc32_monitor.o
 .text.write    0x0000000000000000        0x8 build/DSP_TU2/debug/_ext/775482278/xc32_monitor.o
 .text          0x0000000000000000        0x0 build/DSP_TU2/debug/_ext/1994557280/initialization.o
 .data          0x0000000000000000        0x0 build/DSP_TU2/debug/_ext/1994557280/initialization.o
 .bss           0x0000000000000000        0x0 build/DSP_TU2/debug/_ext/1994557280/initialization.o
 .reginfo       0x0000000000000000       0x18 build/DSP_TU2/debug/_ext/1994557280/initialization.o
 .MIPS.abiflags
                0x0000000000000000       0x18 build/DSP_TU2/debug/_ext/1994557280/initialization.o
 .text          0x0000000000000000        0x0 build/DSP_TU2/debug/_ext/1994557280/interrupts.o
 .data          0x0000000000000000        0x0 build/DSP_TU2/debug/_ext/1994557280/interrupts.o
 .bss           0x0000000000000000        0x0 build/DSP_TU2/debug/_ext/1994557280/interrupts.o
 .reginfo       0x0000000000000000       0x18 build/DSP_TU2/debug/_ext/1994557280/interrupts.o
 .MIPS.abiflags
                0x0000000000000000       0x18 build/DSP_TU2/debug/_ext/1994557280/interrupts.o
 .text          0x0000000000000000        0x0 build/DSP_TU2/debug/_ext/1994557280/exceptions.o
 .data          0x0000000000000000        0x0 build/DSP_TU2/debug/_ext/1994557280/exceptions.o
 .bss           0x0000000000000000        0x0 build/DSP_TU2/debug/_ext/1994557280/exceptions.o
 .reginfo       0x0000000000000000       0x18 build/DSP_TU2/debug/_ext/1994557280/exceptions.o
 .MIPS.abiflags
                0x0000000000000000       0x18 build/DSP_TU2/debug/_ext/1994557280/exceptions.o
 .text          0x0000000000000000        0x0 build/DSP_TU2/debug/_ext/1360937237/main.o
 .data          0x0000000000000000        0x0 build/DSP_TU2/debug/_ext/1360937237/main.o
 .bss           0x0000000000000000        0x0 build/DSP_TU2/debug/_ext/1360937237/main.o
 .reginfo       0x0000000000000000       0x18 build/DSP_TU2/debug/_ext/1360937237/main.o
 .MIPS.abiflags
                0x0000000000000000       0x18 build/DSP_TU2/debug/_ext/1360937237/main.o
 .text          0x0000000000000000        0x0 build/DSP_TU2/debug/_ext/1360937237/AfskGen.o
 .data          0x0000000000000000        0x0 build/DSP_TU2/debug/_ext/1360937237/AfskGen.o
 .bss           0x0000000000000000        0x0 build/DSP_TU2/debug/_ext/1360937237/AfskGen.o
 .reginfo       0x0000000000000000       0x18 build/DSP_TU2/debug/_ext/1360937237/AfskGen.o
 .MIPS.abiflags
                0x0000000000000000       0x18 build/DSP_TU2/debug/_ext/1360937237/AfskGen.o
 .text          0x0000000000000000        0x0 build/DSP_TU2/debug/_ext/1360937237/BaudotUart.o
 .bss           0x0000000000000000        0x0 build/DSP_TU2/debug/_ext/1360937237/BaudotUart.o
 .reginfo       0x0000000000000000       0x18 build/DSP_TU2/debug/_ext/1360937237/BaudotUart.o
 .MIPS.abiflags
                0x0000000000000000       0x18 build/DSP_TU2/debug/_ext/1360937237/BaudotUart.o
 .text          0x0000000000000000        0x0 build/DSP_TU2/debug/_ext/1360937237/DynamicThreshold.o
 .data          0x0000000000000000        0x0 build/DSP_TU2/debug/_ext/1360937237/DynamicThreshold.o
 .bss           0x0000000000000000        0x0 build/DSP_TU2/debug/_ext/1360937237/DynamicThreshold.o
 .reginfo       0x0000000000000000       0x18 build/DSP_TU2/debug/_ext/1360937237/DynamicThreshold.o
 .MIPS.abiflags
                0x0000000000000000       0x18 build/DSP_TU2/debug/_ext/1360937237/DynamicThreshold.o
 .text          0x0000000000000000        0x0 build/DSP_TU2/debug/_ext/1360937237/PwmAudioOut.o
 .data          0x0000000000000000        0x0 build/DSP_TU2/debug/_ext/1360937237/PwmAudioOut.o
 .bss           0x0000000000000000        0x0 build/DSP_TU2/debug/_ext/1360937237/PwmAudioOut.o
 .reginfo       0x0000000000000000       0x18 build/DSP_TU2/debug/_ext/1360937237/PwmAudioOut.o
 .MIPS.abiflags
                0x0000000000000000       0x18 build/DSP_TU2/debug/_ext/1360937237/PwmAudioOut.o
 .text          0x0000000000000000        0x0 build/DSP_TU2/debug/_ext/1360937237/agc.o
 .data          0x0000000000000000        0x0 build/DSP_TU2/debug/_ext/1360937237/agc.o
 .bss           0x0000000000000000        0x0 build/DSP_TU2/debug/_ext/1360937237/agc.o
 .reginfo       0x0000000000000000       0x18 build/DSP_TU2/debug/_ext/1360937237/agc.o
 .MIPS.abiflags
                0x0000000000000000       0x18 build/DSP_TU2/debug/_ext/1360937237/agc.o
 .text          0x0000000000000000        0x0 build/DSP_TU2/debug/_ext/1360937237/biquad.o
 .data          0x0000000000000000        0x0 build/DSP_TU2/debug/_ext/1360937237/biquad.o
 .bss           0x0000000000000000        0x0 build/DSP_TU2/debug/_ext/1360937237/biquad.o
 .reginfo       0x0000000000000000       0x18 build/DSP_TU2/debug/_ext/1360937237/biquad.o
 .MIPS.abiflags
                0x0000000000000000       0x18 build/DSP_TU2/debug/_ext/1360937237/biquad.o
 .text          0x0000000000000000        0x0 build/DSP_TU2/debug/_ext/1360937237/dds.o
 .data          0x0000000000000000        0x0 build/DSP_TU2/debug/_ext/1360937237/dds.o
 .bss           0x0000000000000000        0x0 build/DSP_TU2/debug/_ext/1360937237/dds.o
 .reginfo       0x0000000000000000       0x18 build/DSP_TU2/debug/_ext/1360937237/dds.o
 .MIPS.abiflags
                0x0000000000000000       0x18 build/DSP_TU2/debug/_ext/1360937237/dds.o
 .rodata        0x0000000000000000        0x8 build/DSP_TU2/debug/_ext/1360937237/dds.o
 .text          0x0000000000000000        0x0 build/DSP_TU2/debug/_ext/1360937237/display.o
 .data          0x0000000000000000        0x0 build/DSP_TU2/debug/_ext/1360937237/display.o
 .bss           0x0000000000000000        0x0 build/DSP_TU2/debug/_ext/1360937237/display.o
 .reginfo       0x0000000000000000       0x18 build/DSP_TU2/debug/_ext/1360937237/display.o
 .MIPS.abiflags
                0x0000000000000000       0x18 build/DSP_TU2/debug/_ext/1360937237/display.o
 .text          0x0000000000000000        0x0 build/DSP_TU2/debug/_ext/1360937237/fifo16.o
 .data          0x0000000000000000        0x0 build/DSP_TU2/debug/_ext/1360937237/fifo16.o
 .bss           0x0000000000000000        0x0 build/DSP_TU2/debug/_ext/1360937237/fifo16.o
 .reginfo       0x0000000000000000       0x18 build/DSP_TU2/debug/_ext/1360937237/fifo16.o
 .MIPS.abiflags
                0x0000000000000000       0x18 build/DSP_TU2/debug/_ext/1360937237/fifo16.o
 .text.Fifo16Clear
                0x0000000000000000       0x18 build/DSP_TU2/debug/_ext/1360937237/fifo16.o
 .text          0x0000000000000000        0x0 build/DSP_TU2/debug/_ext/1360937237/xyScope.o
 .data          0x0000000000000000        0x0 build/DSP_TU2/debug/_ext/1360937237/xyScope.o
 .reginfo       0x0000000000000000       0x18 build/DSP_TU2/debug/_ext/1360937237/xyScope.o
 .MIPS.abiflags
                0x0000000000000000       0x18 build/DSP_TU2/debug/_ext/1360937237/xyScope.o
 .text          0x0000000000000000        0x0 build/DSP_TU2/debug/_ext/1360937237/PollSwitchesLeds.o
 .data          0x0000000000000000        0x0 build/DSP_TU2/debug/_ext/1360937237/PollSwitchesLeds.o
 .bss           0x0000000000000000        0x0 build/DSP_TU2/debug/_ext/1360937237/PollSwitchesLeds.o
 .reginfo       0x0000000000000000       0x18 build/DSP_TU2/debug/_ext/1360937237/PollSwitchesLeds.o
 .MIPS.abiflags
                0x0000000000000000       0x18 build/DSP_TU2/debug/_ext/1360937237/PollSwitchesLeds.o
 .text          0x0000000000000000        0x0 build/DSP_TU2/debug/_ext/1360937237/PollEncoder.o
 .data          0x0000000000000000        0x0 build/DSP_TU2/debug/_ext/1360937237/PollEncoder.o
 .bss           0x0000000000000000        0x0 build/DSP_TU2/debug/_ext/1360937237/PollEncoder.o
 .reginfo       0x0000000000000000       0x18 build/DSP_TU2/debug/_ext/1360937237/PollEncoder.o
 .MIPS.abiflags
                0x0000000000000000       0x18 build/DSP_TU2/debug/_ext/1360937237/PollEncoder.o
 .text          0x0000000000000000        0x0 C:\Users\HAROLD~1\AppData\Local\Temp\ccOhslTW.o
 .data          0x0000000000000000        0x0 C:\Users\HAROLD~1\AppData\Local\Temp\ccOhslTW.o
 .bss           0x0000000000000000        0x0 C:\Users\HAROLD~1\AppData\Local\Temp\ccOhslTW.o
 .reginfo       0x0000000000000000       0x18 C:\Users\HAROLD~1\AppData\Local\Temp\ccOhslTW.o
 .MIPS.abiflags
                0x0000000000000000       0x18 C:\Users\HAROLD~1\AppData\Local\Temp\ccOhslTW.o
 .text          0x0000000000000000        0x0 C:\Users\HAROLD~1\AppData\Local\Temp\ccjemF1d.o
 .data          0x0000000000000000        0x0 C:\Users\HAROLD~1\AppData\Local\Temp\ccjemF1d.o
 .bss           0x0000000000000000        0x0 C:\Users\HAROLD~1\AppData\Local\Temp\ccjemF1d.o
 .reginfo       0x0000000000000000       0x18 C:\Users\HAROLD~1\AppData\Local\Temp\ccjemF1d.o
 .MIPS.abiflags
                0x0000000000000000       0x18 C:\Users\HAROLD~1\AppData\Local\Temp\ccjemF1d.o
 .text          0x0000000000000000        0x0 C:\Users\HAROLD~1\AppData\Local\Temp\cc9ab2up.o
 .data          0x0000000000000000        0x0 C:\Users\HAROLD~1\AppData\Local\Temp\cc9ab2up.o
 .bss           0x0000000000000000        0x0 C:\Users\HAROLD~1\AppData\Local\Temp\cc9ab2up.o
 .reginfo       0x0000000000000000       0x18 C:\Users\HAROLD~1\AppData\Local\Temp\cc9ab2up.o
 .MIPS.abiflags
                0x0000000000000000       0x18 C:\Users\HAROLD~1\AppData\Local\Temp\cc9ab2up.o
 .text          0x0000000000000000        0x0 C:\Users\HAROLD~1\AppData\Local\Temp\cc0zEMnh.o
 .data          0x0000000000000000        0x0 C:\Users\HAROLD~1\AppData\Local\Temp\cc0zEMnh.o
 .bss           0x0000000000000000        0x0 C:\Users\HAROLD~1\AppData\Local\Temp\cc0zEMnh.o
 .reginfo       0x0000000000000000       0x18 C:\Users\HAROLD~1\AppData\Local\Temp\cc0zEMnh.o
 .MIPS.abiflags
                0x0000000000000000       0x18 C:\Users\HAROLD~1\AppData\Local\Temp\cc0zEMnh.o
 .discard       0x0000000000000000        0x4 C:\Users\HAROLD~1\AppData\Local\Temp\cc0zEMnh.o
 .data          0x0000000000000000        0x0 c:/program files/microchip/xc32/v4.00/bin/bin/../../lib/gcc/pic32mx/8.3.1/../../../../pic32mx/lib/fpu64\pic32_software_reset.o
 .bss           0x0000000000000000        0x0 c:/program files/microchip/xc32/v4.00/bin/bin/../../lib/gcc/pic32mx/8.3.1/../../../../pic32mx/lib/fpu64\pic32_software_reset.o
 .reginfo       0x0000000000000000       0x18 c:/program files/microchip/xc32/v4.00/bin/bin/../../lib/gcc/pic32mx/8.3.1/../../../../pic32mx/lib/fpu64\pic32_software_reset.o
 .MIPS.abiflags
                0x0000000000000000       0x18 c:/program files/microchip/xc32/v4.00/bin/bin/../../lib/gcc/pic32mx/8.3.1/../../../../pic32mx/lib/fpu64\pic32_software_reset.o
 .xc_stack_usage.hdr
                0x0000000000000000        0xe c:/program files/microchip/xc32/v4.00/bin/bin/../../lib/gcc/pic32mx/8.3.1/../../../../pic32mx/lib/fpu64\pic32_software_reset.o
 .xc_stack_usage
                0x0000000000000000       0x24 c:/program files/microchip/xc32/v4.00/bin/bin/../../lib/gcc/pic32mx/8.3.1/../../../../pic32mx/lib/fpu64\pic32_software_reset.o
 .data          0x0000000000000000        0x0 c:/program files/microchip/xc32/v4.00/bin/bin/../../lib/gcc/pic32mx/8.3.1/../../../../pic32mx/lib/fpu64\libpic32.a(strlen.o)
 .bss           0x0000000000000000        0x0 c:/program files/microchip/xc32/v4.00/bin/bin/../../lib/gcc/pic32mx/8.3.1/../../../../pic32mx/lib/fpu64\libpic32.a(strlen.o)
 .reginfo       0x0000000000000000       0x18 c:/program files/microchip/xc32/v4.00/bin/bin/../../lib/gcc/pic32mx/8.3.1/../../../../pic32mx/lib/fpu64\libpic32.a(strlen.o)
 .MIPS.abiflags
                0x0000000000000000       0x18 c:/program files/microchip/xc32/v4.00/bin/bin/../../lib/gcc/pic32mx/8.3.1/../../../../pic32mx/lib/fpu64\libpic32.a(strlen.o)
 .xc_stack_usage.hdr
                0x0000000000000000        0xe c:/program files/microchip/xc32/v4.00/bin/bin/../../lib/gcc/pic32mx/8.3.1/../../../../pic32mx/lib/fpu64\libpic32.a(strlen.o)
 .xc_stack_usage
                0x0000000000000000       0x14 c:/program files/microchip/xc32/v4.00/bin/bin/../../lib/gcc/pic32mx/8.3.1/../../../../pic32mx/lib/fpu64\libpic32.a(strlen.o)
 .text          0x0000000000000000        0x0 c:/program files/microchip/xc32/v4.00/bin/bin/../../lib/gcc/pic32mx/8.3.1/../../../../pic32mx/lib/fpu64\libpic32.a(default-on-reset.o)
 .data          0x0000000000000000        0x0 c:/program files/microchip/xc32/v4.00/bin/bin/../../lib/gcc/pic32mx/8.3.1/../../../../pic32mx/lib/fpu64\libpic32.a(default-on-reset.o)
 .bss           0x0000000000000000        0x0 c:/program files/microchip/xc32/v4.00/bin/bin/../../lib/gcc/pic32mx/8.3.1/../../../../pic32mx/lib/fpu64\libpic32.a(default-on-reset.o)
 .reginfo       0x0000000000000000       0x18 c:/program files/microchip/xc32/v4.00/bin/bin/../../lib/gcc/pic32mx/8.3.1/../../../../pic32mx/lib/fpu64\libpic32.a(default-on-reset.o)
 .MIPS.abiflags
                0x0000000000000000       0x18 c:/program files/microchip/xc32/v4.00/bin/bin/../../lib/gcc/pic32mx/8.3.1/../../../../pic32mx/lib/fpu64\libpic32.a(default-on-reset.o)
 .xc_stack_usage
                0x0000000000000000       0x17 c:/program files/microchip/xc32/v4.00/bin/bin/../../lib/gcc/pic32mx/8.3.1/../../../../pic32mx/lib/fpu64\libpic32.a(default-on-reset.o)
 .xc_stack_usage.hdr
                0x0000000000000000        0xe c:/program files/microchip/xc32/v4.00/bin/bin/../../lib/gcc/pic32mx/8.3.1/../../../../pic32mx/lib/fpu64\libpic32.a(default-on-reset.o)
 .text          0x0000000000000000        0x0 c:/program files/microchip/xc32/v4.00/bin/bin/../../lib/gcc/pic32mx/8.3.1/../../../../pic32mx/lib/fpu64\libpic32.a(default-on-bootstrap.o)
 .data          0x0000000000000000        0x0 c:/program files/microchip/xc32/v4.00/bin/bin/../../lib/gcc/pic32mx/8.3.1/../../../../pic32mx/lib/fpu64\libpic32.a(default-on-bootstrap.o)
 .bss           0x0000000000000000        0x0 c:/program files/microchip/xc32/v4.00/bin/bin/../../lib/gcc/pic32mx/8.3.1/../../../../pic32mx/lib/fpu64\libpic32.a(default-on-bootstrap.o)
 .reginfo       0x0000000000000000       0x18 c:/program files/microchip/xc32/v4.00/bin/bin/../../lib/gcc/pic32mx/8.3.1/../../../../pic32mx/lib/fpu64\libpic32.a(default-on-bootstrap.o)
 .MIPS.abiflags
                0x0000000000000000       0x18 c:/program files/microchip/xc32/v4.00/bin/bin/../../lib/gcc/pic32mx/8.3.1/../../../../pic32mx/lib/fpu64\libpic32.a(default-on-bootstrap.o)
 .xc_stack_usage
                0x0000000000000000       0x1b c:/program files/microchip/xc32/v4.00/bin/bin/../../lib/gcc/pic32mx/8.3.1/../../../../pic32mx/lib/fpu64\libpic32.a(default-on-bootstrap.o)
 .xc_stack_usage.hdr
                0x0000000000000000        0xe c:/program files/microchip/xc32/v4.00/bin/bin/../../lib/gcc/pic32mx/8.3.1/../../../../pic32mx/lib/fpu64\libpic32.a(default-on-bootstrap.o)
 .data          0x0000000000000000        0x0 c:/program files/microchip/xc32/v4.00/bin/bin/../../lib/gcc/pic32mx/8.3.1/../../../../pic32mx/lib/fpu64\libpic32.a(default-nmi-handler.o)
 .bss           0x0000000000000000        0x0 c:/program files/microchip/xc32/v4.00/bin/bin/../../lib/gcc/pic32mx/8.3.1/../../../../pic32mx/lib/fpu64\libpic32.a(default-nmi-handler.o)
 .reginfo       0x0000000000000000       0x18 c:/program files/microchip/xc32/v4.00/bin/bin/../../lib/gcc/pic32mx/8.3.1/../../../../pic32mx/lib/fpu64\libpic32.a(default-nmi-handler.o)
 .MIPS.abiflags
                0x0000000000000000       0x18 c:/program files/microchip/xc32/v4.00/bin/bin/../../lib/gcc/pic32mx/8.3.1/../../../../pic32mx/lib/fpu64\libpic32.a(default-nmi-handler.o)
 .xc_stack_usage.hdr
                0x0000000000000000        0xe c:/program files/microchip/xc32/v4.00/bin/bin/../../lib/gcc/pic32mx/8.3.1/../../../../pic32mx/lib/fpu64\libpic32.a(default-nmi-handler.o)
 .xc_stack_usage
                0x0000000000000000       0x1a c:/program files/microchip/xc32/v4.00/bin/bin/../../lib/gcc/pic32mx/8.3.1/../../../../pic32mx/lib/fpu64\libpic32.a(default-nmi-handler.o)
 .data          0x0000000000000000        0x0 c:/program files/microchip/xc32/v4.00/bin/bin/../../lib/gcc/pic32mx/8.3.1/../../../../pic32mx/lib/fpu64\libpic32.a(pic32_data_init.o)
 .bss           0x0000000000000000        0x0 c:/program files/microchip/xc32/v4.00/bin/bin/../../lib/gcc/pic32mx/8.3.1/../../../../pic32mx/lib/fpu64\libpic32.a(pic32_data_init.o)
 .reginfo       0x0000000000000000       0x18 c:/program files/microchip/xc32/v4.00/bin/bin/../../lib/gcc/pic32mx/8.3.1/../../../../pic32mx/lib/fpu64\libpic32.a(pic32_data_init.o)
 .MIPS.abiflags
                0x0000000000000000       0x18 c:/program files/microchip/xc32/v4.00/bin/bin/../../lib/gcc/pic32mx/8.3.1/../../../../pic32mx/lib/fpu64\libpic32.a(pic32_data_init.o)
 .xc_stack_usage.hdr
                0x0000000000000000        0xe c:/program files/microchip/xc32/v4.00/bin/bin/../../lib/gcc/pic32mx/8.3.1/../../../../pic32mx/lib/fpu64\libpic32.a(pic32_data_init.o)
 .xc_stack_usage
                0x0000000000000000       0x1f c:/program files/microchip/xc32/v4.00/bin/bin/../../lib/gcc/pic32mx/8.3.1/../../../../pic32mx/lib/fpu64\libpic32.a(pic32_data_init.o)
 .text          0x0000000000000000        0x0 c:/program files/microchip/xc32/v4.00/bin/bin/../../lib/gcc/pic32mx/8.3.1/../../../../pic32mx/lib/fpu64\libpic32.a(pic32_init_cache.o)
 .data          0x0000000000000000        0x0 c:/program files/microchip/xc32/v4.00/bin/bin/../../lib/gcc/pic32mx/8.3.1/../../../../pic32mx/lib/fpu64\libpic32.a(pic32_init_cache.o)
 .bss           0x0000000000000000        0x0 c:/program files/microchip/xc32/v4.00/bin/bin/../../lib/gcc/pic32mx/8.3.1/../../../../pic32mx/lib/fpu64\libpic32.a(pic32_init_cache.o)
 .reginfo       0x0000000000000000       0x18 c:/program files/microchip/xc32/v4.00/bin/bin/../../lib/gcc/pic32mx/8.3.1/../../../../pic32mx/lib/fpu64\libpic32.a(pic32_init_cache.o)
 .MIPS.abiflags
                0x0000000000000000       0x18 c:/program files/microchip/xc32/v4.00/bin/bin/../../lib/gcc/pic32mx/8.3.1/../../../../pic32mx/lib/fpu64\libpic32.a(pic32_init_cache.o)
 .cache_init.pic32_size_cache
                0x0000000000000000       0x58 c:/program files/microchip/xc32/v4.00/bin/bin/../../lib/gcc/pic32mx/8.3.1/../../../../pic32mx/lib/fpu64\libpic32.a(pic32_init_cache.o)
 .xc_stack_usage.hdr
                0x0000000000000000        0xe c:/program files/microchip/xc32/v4.00/bin/bin/../../lib/gcc/pic32mx/8.3.1/../../../../pic32mx/lib/fpu64\libpic32.a(pic32_init_cache.o)
 .xc_stack_usage
                0x0000000000000000       0x5a c:/program files/microchip/xc32/v4.00/bin/bin/../../lib/gcc/pic32mx/8.3.1/../../../../pic32mx/lib/fpu64\libpic32.a(pic32_init_cache.o)
 .text          0x0000000000000000        0x0 c:/program files/microchip/xc32/v4.00/bin/bin/../../lib/gcc/pic32mx/8.3.1/../../../../pic32mx/lib/fpu64\libpic32.a(pic32_init_tlb_ebi_sqi.o)
 .data          0x0000000000000000        0x0 c:/program files/microchip/xc32/v4.00/bin/bin/../../lib/gcc/pic32mx/8.3.1/../../../../pic32mx/lib/fpu64\libpic32.a(pic32_init_tlb_ebi_sqi.o)
 .bss           0x0000000000000000        0x0 c:/program files/microchip/xc32/v4.00/bin/bin/../../lib/gcc/pic32mx/8.3.1/../../../../pic32mx/lib/fpu64\libpic32.a(pic32_init_tlb_ebi_sqi.o)
 .reginfo       0x0000000000000000       0x18 c:/program files/microchip/xc32/v4.00/bin/bin/../../lib/gcc/pic32mx/8.3.1/../../../../pic32mx/lib/fpu64\libpic32.a(pic32_init_tlb_ebi_sqi.o)
 .MIPS.abiflags
                0x0000000000000000       0x18 c:/program files/microchip/xc32/v4.00/bin/bin/../../lib/gcc/pic32mx/8.3.1/../../../../pic32mx/lib/fpu64\libpic32.a(pic32_init_tlb_ebi_sqi.o)
 .xc_stack_usage.hdr
                0x0000000000000000        0xe c:/program files/microchip/xc32/v4.00/bin/bin/../../lib/gcc/pic32mx/8.3.1/../../../../pic32mx/lib/fpu64\libpic32.a(pic32_init_tlb_ebi_sqi.o)
 .xc_stack_usage
                0x0000000000000000       0x26 c:/program files/microchip/xc32/v4.00/bin/bin/../../lib/gcc/pic32mx/8.3.1/../../../../pic32mx/lib/fpu64\libpic32.a(pic32_init_tlb_ebi_sqi.o)
 .text          0x0000000000000000        0x0 c:/program files/microchip/xc32/v4.00/bin/bin/../../lib/gcc/pic32mx/8.3.1/../../../../pic32mx/lib/fpu64\libpic32.a(general-exception.o)
 .data          0x0000000000000000        0x0 c:/program files/microchip/xc32/v4.00/bin/bin/../../lib/gcc/pic32mx/8.3.1/../../../../pic32mx/lib/fpu64\libpic32.a(general-exception.o)
 .bss           0x0000000000000000        0x0 c:/program files/microchip/xc32/v4.00/bin/bin/../../lib/gcc/pic32mx/8.3.1/../../../../pic32mx/lib/fpu64\libpic32.a(general-exception.o)
 .reginfo       0x0000000000000000       0x18 c:/program files/microchip/xc32/v4.00/bin/bin/../../lib/gcc/pic32mx/8.3.1/../../../../pic32mx/lib/fpu64\libpic32.a(general-exception.o)
 .MIPS.abiflags
                0x0000000000000000       0x18 c:/program files/microchip/xc32/v4.00/bin/bin/../../lib/gcc/pic32mx/8.3.1/../../../../pic32mx/lib/fpu64\libpic32.a(general-exception.o)
 .xc_stack_usage.hdr
                0x0000000000000000        0xe c:/program files/microchip/xc32/v4.00/bin/bin/../../lib/gcc/pic32mx/8.3.1/../../../../pic32mx/lib/fpu64\libpic32.a(general-exception.o)
 .xc_stack_usage
                0x0000000000000000       0x28 c:/program files/microchip/xc32/v4.00/bin/bin/../../lib/gcc/pic32mx/8.3.1/../../../../pic32mx/lib/fpu64\libpic32.a(general-exception.o)
 .text          0x0000000000000000        0x0 c:/program files/microchip/xc32/v4.00/bin/bin/../../lib/gcc/pic32mx/8.3.1/../../../../pic32mx/lib/fpu64\libpic32.a(cache-err-exception.o)
 .data          0x0000000000000000        0x0 c:/program files/microchip/xc32/v4.00/bin/bin/../../lib/gcc/pic32mx/8.3.1/../../../../pic32mx/lib/fpu64\libpic32.a(cache-err-exception.o)
 .bss           0x0000000000000000        0x0 c:/program files/microchip/xc32/v4.00/bin/bin/../../lib/gcc/pic32mx/8.3.1/../../../../pic32mx/lib/fpu64\libpic32.a(cache-err-exception.o)
 .reginfo       0x0000000000000000       0x18 c:/program files/microchip/xc32/v4.00/bin/bin/../../lib/gcc/pic32mx/8.3.1/../../../../pic32mx/lib/fpu64\libpic32.a(cache-err-exception.o)
 .MIPS.abiflags
                0x0000000000000000       0x18 c:/program files/microchip/xc32/v4.00/bin/bin/../../lib/gcc/pic32mx/8.3.1/../../../../pic32mx/lib/fpu64\libpic32.a(cache-err-exception.o)
 .xc_stack_usage.hdr
                0x0000000000000000        0xe c:/program files/microchip/xc32/v4.00/bin/bin/../../lib/gcc/pic32mx/8.3.1/../../../../pic32mx/lib/fpu64\libpic32.a(cache-err-exception.o)
 .xc_stack_usage
                0x0000000000000000       0x2a c:/program files/microchip/xc32/v4.00/bin/bin/../../lib/gcc/pic32mx/8.3.1/../../../../pic32mx/lib/fpu64\libpic32.a(cache-err-exception.o)
 .text          0x0000000000000000        0x0 c:/program files/microchip/xc32/v4.00/bin/bin/../../lib/gcc/pic32mx/8.3.1/../../../../pic32mx/lib/fpu64\libpic32.a(simple-tlb-refill-exception.o)
 .data          0x0000000000000000        0x0 c:/program files/microchip/xc32/v4.00/bin/bin/../../lib/gcc/pic32mx/8.3.1/../../../../pic32mx/lib/fpu64\libpic32.a(simple-tlb-refill-exception.o)
 .bss           0x0000000000000000        0x0 c:/program files/microchip/xc32/v4.00/bin/bin/../../lib/gcc/pic32mx/8.3.1/../../../../pic32mx/lib/fpu64\libpic32.a(simple-tlb-refill-exception.o)
 .reginfo       0x0000000000000000       0x18 c:/program files/microchip/xc32/v4.00/bin/bin/../../lib/gcc/pic32mx/8.3.1/../../../../pic32mx/lib/fpu64\libpic32.a(simple-tlb-refill-exception.o)
 .MIPS.abiflags
                0x0000000000000000       0x18 c:/program files/microchip/xc32/v4.00/bin/bin/../../lib/gcc/pic32mx/8.3.1/../../../../pic32mx/lib/fpu64\libpic32.a(simple-tlb-refill-exception.o)
 .xc_stack_usage.hdr
                0x0000000000000000        0xe c:/program files/microchip/xc32/v4.00/bin/bin/../../lib/gcc/pic32mx/8.3.1/../../../../pic32mx/lib/fpu64\libpic32.a(simple-tlb-refill-exception.o)
 .xc_stack_usage
                0x0000000000000000       0x32 c:/program files/microchip/xc32/v4.00/bin/bin/../../lib/gcc/pic32mx/8.3.1/../../../../pic32mx/lib/fpu64\libpic32.a(simple-tlb-refill-exception.o)
 .text          0x0000000000000000        0x0 c:/program files/microchip/xc32/v4.00/bin/bin/../../lib/gcc/pic32mx/8.3.1/../../../../pic32mx/lib/fpu64\libpic32.a(defaultinterrupt.o)
 .data          0x0000000000000000        0x0 c:/program files/microchip/xc32/v4.00/bin/bin/../../lib/gcc/pic32mx/8.3.1/../../../../pic32mx/lib/fpu64\libpic32.a(defaultinterrupt.o)
 .bss           0x0000000000000000        0x0 c:/program files/microchip/xc32/v4.00/bin/bin/../../lib/gcc/pic32mx/8.3.1/../../../../pic32mx/lib/fpu64\libpic32.a(defaultinterrupt.o)
 .reginfo       0x0000000000000000       0x18 c:/program files/microchip/xc32/v4.00/bin/bin/../../lib/gcc/pic32mx/8.3.1/../../../../pic32mx/lib/fpu64\libpic32.a(defaultinterrupt.o)
 .MIPS.abiflags
                0x0000000000000000       0x18 c:/program files/microchip/xc32/v4.00/bin/bin/../../lib/gcc/pic32mx/8.3.1/../../../../pic32mx/lib/fpu64\libpic32.a(defaultinterrupt.o)
 .xc_stack_usage
                0x0000000000000000       0x1f c:/program files/microchip/xc32/v4.00/bin/bin/../../lib/gcc/pic32mx/8.3.1/../../../../pic32mx/lib/fpu64\libpic32.a(defaultinterrupt.o)
 .xc_stack_usage.hdr
                0x0000000000000000        0xe c:/program files/microchip/xc32/v4.00/bin/bin/../../lib/gcc/pic32mx/8.3.1/../../../../pic32mx/lib/fpu64\libpic32.a(defaultinterrupt.o)
 .text          0x0000000000000000        0x0 c:/program files/microchip/xc32/v4.00/bin/bin/../../lib/gcc/pic32mx/8.3.1/../../../../pic32mx/lib/fpu64\libc-musl.a(malloc.o)
 .data          0x0000000000000000        0x0 c:/program files/microchip/xc32/v4.00/bin/bin/../../lib/gcc/pic32mx/8.3.1/../../../../pic32mx/lib/fpu64\libc-musl.a(malloc.o)
 .reginfo       0x0000000000000000       0x18 c:/program files/microchip/xc32/v4.00/bin/bin/../../lib/gcc/pic32mx/8.3.1/../../../../pic32mx/lib/fpu64\libc-musl.a(malloc.o)
 .MIPS.abiflags
                0x0000000000000000       0x18 c:/program files/microchip/xc32/v4.00/bin/bin/../../lib/gcc/pic32mx/8.3.1/../../../../pic32mx/lib/fpu64\libc-musl.a(malloc.o)
 .xc_stack_usage
                0x0000000000000000       0xeb c:/program files/microchip/xc32/v4.00/bin/bin/../../lib/gcc/pic32mx/8.3.1/../../../../pic32mx/lib/fpu64\libc-musl.a(malloc.o)
 .text.__malloc0
                0x0000000000000000       0x50 c:/program files/microchip/xc32/v4.00/bin/bin/../../lib/gcc/pic32mx/8.3.1/../../../../pic32mx/lib/fpu64\libc-musl.a(malloc.o)
 .text.realloc  0x0000000000000000      0x118 c:/program files/microchip/xc32/v4.00/bin/bin/../../lib/gcc/pic32mx/8.3.1/../../../../pic32mx/lib/fpu64\libc-musl.a(malloc.o)
 .xc_stack_usage.hdr
                0x0000000000000000        0xe c:/program files/microchip/xc32/v4.00/bin/bin/../../lib/gcc/pic32mx/8.3.1/../../../../pic32mx/lib/fpu64\libc-musl.a(malloc.o)
 .note.GNU-stack
                0x0000000000000000        0x0 c:/program files/microchip/xc32/v4.00/bin/bin/../../lib/gcc/pic32mx/8.3.1/../../../../pic32mx/lib/fpu64\libc-musl.a(malloc.o)
 .text          0x0000000000000000        0x0 c:/program files/microchip/xc32/v4.00/bin/bin/../../lib/gcc/pic32mx/8.3.1/../../../../pic32mx/lib/fpu64\libc-musl.a(expand_heap.o)
 .data          0x0000000000000000        0x0 c:/program files/microchip/xc32/v4.00/bin/bin/../../lib/gcc/pic32mx/8.3.1/../../../../pic32mx/lib/fpu64\libc-musl.a(expand_heap.o)
 .bss           0x0000000000000000        0x0 c:/program files/microchip/xc32/v4.00/bin/bin/../../lib/gcc/pic32mx/8.3.1/../../../../pic32mx/lib/fpu64\libc-musl.a(expand_heap.o)
 .reginfo       0x0000000000000000       0x18 c:/program files/microchip/xc32/v4.00/bin/bin/../../lib/gcc/pic32mx/8.3.1/../../../../pic32mx/lib/fpu64\libc-musl.a(expand_heap.o)
 .MIPS.abiflags
                0x0000000000000000       0x18 c:/program files/microchip/xc32/v4.00/bin/bin/../../lib/gcc/pic32mx/8.3.1/../../../../pic32mx/lib/fpu64\libc-musl.a(expand_heap.o)
 .xc_stack_usage
                0x0000000000000000       0x1b c:/program files/microchip/xc32/v4.00/bin/bin/../../lib/gcc/pic32mx/8.3.1/../../../../pic32mx/lib/fpu64\libc-musl.a(expand_heap.o)
 .xc_stack_usage.hdr
                0x0000000000000000        0xe c:/program files/microchip/xc32/v4.00/bin/bin/../../lib/gcc/pic32mx/8.3.1/../../../../pic32mx/lib/fpu64\libc-musl.a(expand_heap.o)
 .note.GNU-stack
                0x0000000000000000        0x0 c:/program files/microchip/xc32/v4.00/bin/bin/../../lib/gcc/pic32mx/8.3.1/../../../../pic32mx/lib/fpu64\libc-musl.a(expand_heap.o)
 .text          0x0000000000000000        0x0 c:/program files/microchip/xc32/v4.00/bin/bin/../../lib/gcc/pic32mx/8.3.1/../../../../pic32mx/lib/fpu64\libc-musl.a(__sio_sprintf_doux.o)
 .data          0x0000000000000000        0x0 c:/program files/microchip/xc32/v4.00/bin/bin/../../lib/gcc/pic32mx/8.3.1/../../../../pic32mx/lib/fpu64\libc-musl.a(__sio_sprintf_doux.o)
 .bss           0x0000000000000000        0x0 c:/program files/microchip/xc32/v4.00/bin/bin/../../lib/gcc/pic32mx/8.3.1/../../../../pic32mx/lib/fpu64\libc-musl.a(__sio_sprintf_doux.o)
 .reginfo       0x0000000000000000       0x18 c:/program files/microchip/xc32/v4.00/bin/bin/../../lib/gcc/pic32mx/8.3.1/../../../../pic32mx/lib/fpu64\libc-musl.a(__sio_sprintf_doux.o)
 .MIPS.abiflags
                0x0000000000000000       0x18 c:/program files/microchip/xc32/v4.00/bin/bin/../../lib/gcc/pic32mx/8.3.1/../../../../pic32mx/lib/fpu64\libc-musl.a(__sio_sprintf_doux.o)
 .xc_stack_usage
                0x0000000000000000       0x3c c:/program files/microchip/xc32/v4.00/bin/bin/../../lib/gcc/pic32mx/8.3.1/../../../../pic32mx/lib/fpu64\libc-musl.a(__sio_sprintf_doux.o)
 .text.__sio_sprintf_doux
                0x0000000000000000       0x3c c:/program files/microchip/xc32/v4.00/bin/bin/../../lib/gcc/pic32mx/8.3.1/../../../../pic32mx/lib/fpu64\libc-musl.a(__sio_sprintf_doux.o)
 .xc_stack_usage.hdr
                0x0000000000000000        0xe c:/program files/microchip/xc32/v4.00/bin/bin/../../lib/gcc/pic32mx/8.3.1/../../../../pic32mx/lib/fpu64\libc-musl.a(__sio_sprintf_doux.o)
 .note.GNU-stack
                0x0000000000000000        0x0 c:/program files/microchip/xc32/v4.00/bin/bin/../../lib/gcc/pic32mx/8.3.1/../../../../pic32mx/lib/fpu64\libc-musl.a(__sio_sprintf_doux.o)
 .text          0x0000000000000000        0x0 c:/program files/microchip/xc32/v4.00/bin/bin/../../lib/gcc/pic32mx/8.3.1/../../../../pic32mx/lib/fpu64\libc-musl.a(__fmt_d.o)
 .data          0x0000000000000000        0x0 c:/program files/microchip/xc32/v4.00/bin/bin/../../lib/gcc/pic32mx/8.3.1/../../../../pic32mx/lib/fpu64\libc-musl.a(__fmt_d.o)
 .bss           0x0000000000000000        0x0 c:/program files/microchip/xc32/v4.00/bin/bin/../../lib/gcc/pic32mx/8.3.1/../../../../pic32mx/lib/fpu64\libc-musl.a(__fmt_d.o)
 .reginfo       0x0000000000000000       0x18 c:/program files/microchip/xc32/v4.00/bin/bin/../../lib/gcc/pic32mx/8.3.1/../../../../pic32mx/lib/fpu64\libc-musl.a(__fmt_d.o)
 .MIPS.abiflags
                0x0000000000000000       0x18 c:/program files/microchip/xc32/v4.00/bin/bin/../../lib/gcc/pic32mx/8.3.1/../../../../pic32mx/lib/fpu64\libc-musl.a(__fmt_d.o)
 .xc_stack_usage
                0x0000000000000000       0x15 c:/program files/microchip/xc32/v4.00/bin/bin/../../lib/gcc/pic32mx/8.3.1/../../../../pic32mx/lib/fpu64\libc-musl.a(__fmt_d.o)
 .xc_stack_usage.hdr
                0x0000000000000000        0xe c:/program files/microchip/xc32/v4.00/bin/bin/../../lib/gcc/pic32mx/8.3.1/../../../../pic32mx/lib/fpu64\libc-musl.a(__fmt_d.o)
 .note.GNU-stack
                0x0000000000000000        0x0 c:/program files/microchip/xc32/v4.00/bin/bin/../../lib/gcc/pic32mx/8.3.1/../../../../pic32mx/lib/fpu64\libc-musl.a(__fmt_d.o)
 .text          0x0000000000000000        0x0 c:/program files/microchip/xc32/v4.00/bin/bin/../../lib/gcc/pic32mx/8.3.1/../../../../pic32mx/lib/fpu64\libc-musl.a(__fmt_o.o)
 .data          0x0000000000000000        0x0 c:/program files/microchip/xc32/v4.00/bin/bin/../../lib/gcc/pic32mx/8.3.1/../../../../pic32mx/lib/fpu64\libc-musl.a(__fmt_o.o)
 .bss           0x0000000000000000        0x0 c:/program files/microchip/xc32/v4.00/bin/bin/../../lib/gcc/pic32mx/8.3.1/../../../../pic32mx/lib/fpu64\libc-musl.a(__fmt_o.o)
 .reginfo       0x0000000000000000       0x18 c:/program files/microchip/xc32/v4.00/bin/bin/../../lib/gcc/pic32mx/8.3.1/../../../../pic32mx/lib/fpu64\libc-musl.a(__fmt_o.o)
 .MIPS.abiflags
                0x0000000000000000       0x18 c:/program files/microchip/xc32/v4.00/bin/bin/../../lib/gcc/pic32mx/8.3.1/../../../../pic32mx/lib/fpu64\libc-musl.a(__fmt_o.o)
 .xc_stack_usage
                0x0000000000000000       0x15 c:/program files/microchip/xc32/v4.00/bin/bin/../../lib/gcc/pic32mx/8.3.1/../../../../pic32mx/lib/fpu64\libc-musl.a(__fmt_o.o)
 .xc_stack_usage.hdr
                0x0000000000000000        0xe c:/program files/microchip/xc32/v4.00/bin/bin/../../lib/gcc/pic32mx/8.3.1/../../../../pic32mx/lib/fpu64\libc-musl.a(__fmt_o.o)
 .note.GNU-stack
                0x0000000000000000        0x0 c:/program files/microchip/xc32/v4.00/bin/bin/../../lib/gcc/pic32mx/8.3.1/../../../../pic32mx/lib/fpu64\libc-musl.a(__fmt_o.o)
 .text          0x0000000000000000        0x0 c:/program files/microchip/xc32/v4.00/bin/bin/../../lib/gcc/pic32mx/8.3.1/../../../../pic32mx/lib/fpu64\libc-musl.a(__fmt_s.o)
 .data          0x0000000000000000        0x0 c:/program files/microchip/xc32/v4.00/bin/bin/../../lib/gcc/pic32mx/8.3.1/../../../../pic32mx/lib/fpu64\libc-musl.a(__fmt_s.o)
 .bss           0x0000000000000000        0x0 c:/program files/microchip/xc32/v4.00/bin/bin/../../lib/gcc/pic32mx/8.3.1/../../../../pic32mx/lib/fpu64\libc-musl.a(__fmt_s.o)
 .reginfo       0x0000000000000000       0x18 c:/program files/microchip/xc32/v4.00/bin/bin/../../lib/gcc/pic32mx/8.3.1/../../../../pic32mx/lib/fpu64\libc-musl.a(__fmt_s.o)
 .MIPS.abiflags
                0x0000000000000000       0x18 c:/program files/microchip/xc32/v4.00/bin/bin/../../lib/gcc/pic32mx/8.3.1/../../../../pic32mx/lib/fpu64\libc-musl.a(__fmt_s.o)
 .xc_stack_usage
                0x0000000000000000       0x15 c:/program files/microchip/xc32/v4.00/bin/bin/../../lib/gcc/pic32mx/8.3.1/../../../../pic32mx/lib/fpu64\libc-musl.a(__fmt_s.o)
 .xc_stack_usage.hdr
                0x0000000000000000        0xe c:/program files/microchip/xc32/v4.00/bin/bin/../../lib/gcc/pic32mx/8.3.1/../../../../pic32mx/lib/fpu64\libc-musl.a(__fmt_s.o)
 .note.GNU-stack
                0x0000000000000000        0x0 c:/program files/microchip/xc32/v4.00/bin/bin/../../lib/gcc/pic32mx/8.3.1/../../../../pic32mx/lib/fpu64\libc-musl.a(__fmt_s.o)
 .text          0x0000000000000000        0x0 c:/program files/microchip/xc32/v4.00/bin/bin/../../lib/gcc/pic32mx/8.3.1/../../../../pic32mx/lib/fpu64\libc-musl.a(__fmt_u.o)
 .data          0x0000000000000000        0x0 c:/program files/microchip/xc32/v4.00/bin/bin/../../lib/gcc/pic32mx/8.3.1/../../../../pic32mx/lib/fpu64\libc-musl.a(__fmt_u.o)
 .bss           0x0000000000000000        0x0 c:/program files/microchip/xc32/v4.00/bin/bin/../../lib/gcc/pic32mx/8.3.1/../../../../pic32mx/lib/fpu64\libc-musl.a(__fmt_u.o)
 .reginfo       0x0000000000000000       0x18 c:/program files/microchip/xc32/v4.00/bin/bin/../../lib/gcc/pic32mx/8.3.1/../../../../pic32mx/lib/fpu64\libc-musl.a(__fmt_u.o)
 .MIPS.abiflags
                0x0000000000000000       0x18 c:/program files/microchip/xc32/v4.00/bin/bin/../../lib/gcc/pic32mx/8.3.1/../../../../pic32mx/lib/fpu64\libc-musl.a(__fmt_u.o)
 .xc_stack_usage
                0x0000000000000000       0x2a c:/program files/microchip/xc32/v4.00/bin/bin/../../lib/gcc/pic32mx/8.3.1/../../../../pic32mx/lib/fpu64\libc-musl.a(__fmt_u.o)
 .xc_stack_usage.hdr
                0x0000000000000000        0xe c:/program files/microchip/xc32/v4.00/bin/bin/../../lib/gcc/pic32mx/8.3.1/../../../../pic32mx/lib/fpu64\libc-musl.a(__fmt_u.o)
 .note.GNU-stack
                0x0000000000000000        0x0 c:/program files/microchip/xc32/v4.00/bin/bin/../../lib/gcc/pic32mx/8.3.1/../../../../pic32mx/lib/fpu64\libc-musl.a(__fmt_u.o)
 .text          0x0000000000000000        0x0 c:/program files/microchip/xc32/v4.00/bin/bin/../../lib/gcc/pic32mx/8.3.1/../../../../pic32mx/lib/fpu64\libc-musl.a(__fmt_x.o)
 .data          0x0000000000000000        0x0 c:/program files/microchip/xc32/v4.00/bin/bin/../../lib/gcc/pic32mx/8.3.1/../../../../pic32mx/lib/fpu64\libc-musl.a(__fmt_x.o)
 .bss           0x0000000000000000        0x0 c:/program files/microchip/xc32/v4.00/bin/bin/../../lib/gcc/pic32mx/8.3.1/../../../../pic32mx/lib/fpu64\libc-musl.a(__fmt_x.o)
 .reginfo       0x0000000000000000       0x18 c:/program files/microchip/xc32/v4.00/bin/bin/../../lib/gcc/pic32mx/8.3.1/../../../../pic32mx/lib/fpu64\libc-musl.a(__fmt_x.o)
 .MIPS.abiflags
                0x0000000000000000       0x18 c:/program files/microchip/xc32/v4.00/bin/bin/../../lib/gcc/pic32mx/8.3.1/../../../../pic32mx/lib/fpu64\libc-musl.a(__fmt_x.o)
 .xc_stack_usage
                0x0000000000000000       0x15 c:/program files/microchip/xc32/v4.00/bin/bin/../../lib/gcc/pic32mx/8.3.1/../../../../pic32mx/lib/fpu64\libc-musl.a(__fmt_x.o)
 .xc_stack_usage.hdr
                0x0000000000000000        0xe c:/program files/microchip/xc32/v4.00/bin/bin/../../lib/gcc/pic32mx/8.3.1/../../../../pic32mx/lib/fpu64\libc-musl.a(__fmt_x.o)
 .note.GNU-stack
                0x0000000000000000        0x0 c:/program files/microchip/xc32/v4.00/bin/bin/../../lib/gcc/pic32mx/8.3.1/../../../../pic32mx/lib/fpu64\libc-musl.a(__fmt_x.o)
 .text          0x0000000000000000        0x0 c:/program files/microchip/xc32/v4.00/bin/bin/../../lib/gcc/pic32mx/8.3.1/../../../../pic32mx/lib/fpu64\libc-musl.a(__printf_core.o)
 .data          0x0000000000000000        0x0 c:/program files/microchip/xc32/v4.00/bin/bin/../../lib/gcc/pic32mx/8.3.1/../../../../pic32mx/lib/fpu64\libc-musl.a(__printf_core.o)
 .bss           0x0000000000000000        0x0 c:/program files/microchip/xc32/v4.00/bin/bin/../../lib/gcc/pic32mx/8.3.1/../../../../pic32mx/lib/fpu64\libc-musl.a(__printf_core.o)
 .reginfo       0x0000000000000000       0x18 c:/program files/microchip/xc32/v4.00/bin/bin/../../lib/gcc/pic32mx/8.3.1/../../../../pic32mx/lib/fpu64\libc-musl.a(__printf_core.o)
 .MIPS.abiflags
                0x0000000000000000       0x18 c:/program files/microchip/xc32/v4.00/bin/bin/../../lib/gcc/pic32mx/8.3.1/../../../../pic32mx/lib/fpu64\libc-musl.a(__printf_core.o)
 .xc_stack_usage
                0x0000000000000000       0xaf c:/program files/microchip/xc32/v4.00/bin/bin/../../lib/gcc/pic32mx/8.3.1/../../../../pic32mx/lib/fpu64\libc-musl.a(__printf_core.o)
 .text.__dummy_fmt3
                0x0000000000000000        0x8 c:/program files/microchip/xc32/v4.00/bin/bin/../../lib/gcc/pic32mx/8.3.1/../../../../pic32mx/lib/fpu64\libc-musl.a(__printf_core.o)
 .text.__dummy_fmts
                0x0000000000000000        0x8 c:/program files/microchip/xc32/v4.00/bin/bin/../../lib/gcc/pic32mx/8.3.1/../../../../pic32mx/lib/fpu64\libc-musl.a(__printf_core.o)
 .xc_stack_usage.hdr
                0x0000000000000000        0xe c:/program files/microchip/xc32/v4.00/bin/bin/../../lib/gcc/pic32mx/8.3.1/../../../../pic32mx/lib/fpu64\libc-musl.a(__printf_core.o)
 .note.GNU-stack
                0x0000000000000000        0x0 c:/program files/microchip/xc32/v4.00/bin/bin/../../lib/gcc/pic32mx/8.3.1/../../../../pic32mx/lib/fpu64\libc-musl.a(__printf_core.o)
 .text          0x0000000000000000        0x0 c:/program files/microchip/xc32/v4.00/bin/bin/../../lib/gcc/pic32mx/8.3.1/../../../../pic32mx/lib/fpu64\libc-musl.a(atoi.o)
 .data          0x0000000000000000        0x0 c:/program files/microchip/xc32/v4.00/bin/bin/../../lib/gcc/pic32mx/8.3.1/../../../../pic32mx/lib/fpu64\libc-musl.a(atoi.o)
 .bss           0x0000000000000000        0x0 c:/program files/microchip/xc32/v4.00/bin/bin/../../lib/gcc/pic32mx/8.3.1/../../../../pic32mx/lib/fpu64\libc-musl.a(atoi.o)
 .reginfo       0x0000000000000000       0x18 c:/program files/microchip/xc32/v4.00/bin/bin/../../lib/gcc/pic32mx/8.3.1/../../../../pic32mx/lib/fpu64\libc-musl.a(atoi.o)
 .MIPS.abiflags
                0x0000000000000000       0x18 c:/program files/microchip/xc32/v4.00/bin/bin/../../lib/gcc/pic32mx/8.3.1/../../../../pic32mx/lib/fpu64\libc-musl.a(atoi.o)
 .xc_stack_usage
                0x0000000000000000       0x12 c:/program files/microchip/xc32/v4.00/bin/bin/../../lib/gcc/pic32mx/8.3.1/../../../../pic32mx/lib/fpu64\libc-musl.a(atoi.o)
 .xc_stack_usage.hdr
                0x0000000000000000        0xe c:/program files/microchip/xc32/v4.00/bin/bin/../../lib/gcc/pic32mx/8.3.1/../../../../pic32mx/lib/fpu64\libc-musl.a(atoi.o)
 .note.GNU-stack
                0x0000000000000000        0x0 c:/program files/microchip/xc32/v4.00/bin/bin/../../lib/gcc/pic32mx/8.3.1/../../../../pic32mx/lib/fpu64\libc-musl.a(atoi.o)
 .text          0x0000000000000000        0x0 c:/program files/microchip/xc32/v4.00/bin/bin/../../lib/gcc/pic32mx/8.3.1/../../../../pic32mx/lib/fpu64\libc-musl.a(memcpy.o)
 .data          0x0000000000000000        0x0 c:/program files/microchip/xc32/v4.00/bin/bin/../../lib/gcc/pic32mx/8.3.1/../../../../pic32mx/lib/fpu64\libc-musl.a(memcpy.o)
 .bss           0x0000000000000000        0x0 c:/program files/microchip/xc32/v4.00/bin/bin/../../lib/gcc/pic32mx/8.3.1/../../../../pic32mx/lib/fpu64\libc-musl.a(memcpy.o)
 .reginfo       0x0000000000000000       0x18 c:/program files/microchip/xc32/v4.00/bin/bin/../../lib/gcc/pic32mx/8.3.1/../../../../pic32mx/lib/fpu64\libc-musl.a(memcpy.o)
 .MIPS.abiflags
                0x0000000000000000       0x18 c:/program files/microchip/xc32/v4.00/bin/bin/../../lib/gcc/pic32mx/8.3.1/../../../../pic32mx/lib/fpu64\libc-musl.a(memcpy.o)
 .xc_stack_usage
                0x0000000000000000       0x14 c:/program files/microchip/xc32/v4.00/bin/bin/../../lib/gcc/pic32mx/8.3.1/../../../../pic32mx/lib/fpu64\libc-musl.a(memcpy.o)
 .xc_stack_usage.hdr
                0x0000000000000000        0xe c:/program files/microchip/xc32/v4.00/bin/bin/../../lib/gcc/pic32mx/8.3.1/../../../../pic32mx/lib/fpu64\libc-musl.a(memcpy.o)
 .note.GNU-stack
                0x0000000000000000        0x0 c:/program files/microchip/xc32/v4.00/bin/bin/../../lib/gcc/pic32mx/8.3.1/../../../../pic32mx/lib/fpu64\libc-musl.a(memcpy.o)
 .text          0x0000000000000000        0x0 c:/program files/microchip/xc32/v4.00/bin/bin/../../lib/gcc/pic32mx/8.3.1/../../../../pic32mx/lib/fpu64\libc-musl.a(memset.o)
 .data          0x0000000000000000        0x0 c:/program files/microchip/xc32/v4.00/bin/bin/../../lib/gcc/pic32mx/8.3.1/../../../../pic32mx/lib/fpu64\libc-musl.a(memset.o)
 .bss           0x0000000000000000        0x0 c:/program files/microchip/xc32/v4.00/bin/bin/../../lib/gcc/pic32mx/8.3.1/../../../../pic32mx/lib/fpu64\libc-musl.a(memset.o)
 .reginfo       0x0000000000000000       0x18 c:/program files/microchip/xc32/v4.00/bin/bin/../../lib/gcc/pic32mx/8.3.1/../../../../pic32mx/lib/fpu64\libc-musl.a(memset.o)
 .MIPS.abiflags
                0x0000000000000000       0x18 c:/program files/microchip/xc32/v4.00/bin/bin/../../lib/gcc/pic32mx/8.3.1/../../../../pic32mx/lib/fpu64\libc-musl.a(memset.o)
 .xc_stack_usage
                0x0000000000000000       0x14 c:/program files/microchip/xc32/v4.00/bin/bin/../../lib/gcc/pic32mx/8.3.1/../../../../pic32mx/lib/fpu64\libc-musl.a(memset.o)
 .xc_stack_usage.hdr
                0x0000000000000000        0xe c:/program files/microchip/xc32/v4.00/bin/bin/../../lib/gcc/pic32mx/8.3.1/../../../../pic32mx/lib/fpu64\libc-musl.a(memset.o)
 .note.GNU-stack
                0x0000000000000000        0x0 c:/program files/microchip/xc32/v4.00/bin/bin/../../lib/gcc/pic32mx/8.3.1/../../../../pic32mx/lib/fpu64\libc-musl.a(memset.o)
 .text          0x0000000000000000        0x0 c:/program files/microchip/xc32/v4.00/bin/bin/../../lib/gcc/pic32mx/8.3.1/../../../../pic32mx/lib/fpu64\libc-musl.a(tolower.o)
 .data          0x0000000000000000        0x0 c:/program files/microchip/xc32/v4.00/bin/bin/../../lib/gcc/pic32mx/8.3.1/../../../../pic32mx/lib/fpu64\libc-musl.a(tolower.o)
 .bss           0x0000000000000000        0x0 c:/program files/microchip/xc32/v4.00/bin/bin/../../lib/gcc/pic32mx/8.3.1/../../../../pic32mx/lib/fpu64\libc-musl.a(tolower.o)
 .reginfo       0x0000000000000000       0x18 c:/program files/microchip/xc32/v4.00/bin/bin/../../lib/gcc/pic32mx/8.3.1/../../../../pic32mx/lib/fpu64\libc-musl.a(tolower.o)
 .MIPS.abiflags
                0x0000000000000000       0x18 c:/program files/microchip/xc32/v4.00/bin/bin/../../lib/gcc/pic32mx/8.3.1/../../../../pic32mx/lib/fpu64\libc-musl.a(tolower.o)
 .xc_stack_usage
                0x0000000000000000       0x2e c:/program files/microchip/xc32/v4.00/bin/bin/../../lib/gcc/pic32mx/8.3.1/../../../../pic32mx/lib/fpu64\libc-musl.a(tolower.o)
 .text.__tolower_l
                0x0000000000000000       0x1c c:/program files/microchip/xc32/v4.00/bin/bin/../../lib/gcc/pic32mx/8.3.1/../../../../pic32mx/lib/fpu64\libc-musl.a(tolower.o)
 .xc_stack_usage.hdr
                0x0000000000000000        0xe c:/program files/microchip/xc32/v4.00/bin/bin/../../lib/gcc/pic32mx/8.3.1/../../../../pic32mx/lib/fpu64\libc-musl.a(tolower.o)
 .note.GNU-stack
                0x0000000000000000        0x0 c:/program files/microchip/xc32/v4.00/bin/bin/../../lib/gcc/pic32mx/8.3.1/../../../../pic32mx/lib/fpu64\libc-musl.a(tolower.o)
 .text          0x0000000000000000        0x0 c:/program files/microchip/xc32/v4.00/bin/bin/../../lib/gcc/pic32mx/8.3.1/../../../../pic32mx/lib/fpu64\libc-musl.a(toupper.o)
 .data          0x0000000000000000        0x0 c:/program files/microchip/xc32/v4.00/bin/bin/../../lib/gcc/pic32mx/8.3.1/../../../../pic32mx/lib/fpu64\libc-musl.a(toupper.o)
 .bss           0x0000000000000000        0x0 c:/program files/microchip/xc32/v4.00/bin/bin/../../lib/gcc/pic32mx/8.3.1/../../../../pic32mx/lib/fpu64\libc-musl.a(toupper.o)
 .reginfo       0x0000000000000000       0x18 c:/program files/microchip/xc32/v4.00/bin/bin/../../lib/gcc/pic32mx/8.3.1/../../../../pic32mx/lib/fpu64\libc-musl.a(toupper.o)
 .MIPS.abiflags
                0x0000000000000000       0x18 c:/program files/microchip/xc32/v4.00/bin/bin/../../lib/gcc/pic32mx/8.3.1/../../../../pic32mx/lib/fpu64\libc-musl.a(toupper.o)
 .xc_stack_usage
                0x0000000000000000       0x2e c:/program files/microchip/xc32/v4.00/bin/bin/../../lib/gcc/pic32mx/8.3.1/../../../../pic32mx/lib/fpu64\libc-musl.a(toupper.o)
 .text.__toupper_l
                0x0000000000000000       0x1c c:/program files/microchip/xc32/v4.00/bin/bin/../../lib/gcc/pic32mx/8.3.1/../../../../pic32mx/lib/fpu64\libc-musl.a(toupper.o)
 .xc_stack_usage.hdr
                0x0000000000000000        0xe c:/program files/microchip/xc32/v4.00/bin/bin/../../lib/gcc/pic32mx/8.3.1/../../../../pic32mx/lib/fpu64\libc-musl.a(toupper.o)
 .note.GNU-stack
                0x0000000000000000        0x0 c:/program files/microchip/xc32/v4.00/bin/bin/../../lib/gcc/pic32mx/8.3.1/../../../../pic32mx/lib/fpu64\libc-musl.a(toupper.o)
 .text          0x0000000000000000        0x0 c:/program files/microchip/xc32/v4.00/bin/bin/../../lib/gcc/pic32mx/8.3.1/../../../../pic32mx/lib/fpu64\libc-musl.a(libc.o)
 .data          0x0000000000000000        0x0 c:/program files/microchip/xc32/v4.00/bin/bin/../../lib/gcc/pic32mx/8.3.1/../../../../pic32mx/lib/fpu64\libc-musl.a(libc.o)
 .reginfo       0x0000000000000000       0x18 c:/program files/microchip/xc32/v4.00/bin/bin/../../lib/gcc/pic32mx/8.3.1/../../../../pic32mx/lib/fpu64\libc-musl.a(libc.o)
 .MIPS.abiflags
                0x0000000000000000       0x18 c:/program files/microchip/xc32/v4.00/bin/bin/../../lib/gcc/pic32mx/8.3.1/../../../../pic32mx/lib/fpu64\libc-musl.a(libc.o)
 .xc_stack_usage.hdr
                0x0000000000000000        0xe c:/program files/microchip/xc32/v4.00/bin/bin/../../lib/gcc/pic32mx/8.3.1/../../../../pic32mx/lib/fpu64\libc-musl.a(libc.o)
 .note.GNU-stack
                0x0000000000000000        0x0 c:/program files/microchip/xc32/v4.00/bin/bin/../../lib/gcc/pic32mx/8.3.1/../../../../pic32mx/lib/fpu64\libc-musl.a(libc.o)
 .text          0x0000000000000000        0x0 c:/program files/microchip/xc32/v4.00/bin/bin/../../lib/gcc/pic32mx/8.3.1/../../../../pic32mx/lib/fpu64\libc-musl.a(__int_vsprintf.o)
 .data          0x0000000000000000        0x0 c:/program files/microchip/xc32/v4.00/bin/bin/../../lib/gcc/pic32mx/8.3.1/../../../../pic32mx/lib/fpu64\libc-musl.a(__int_vsprintf.o)
 .bss           0x0000000000000000        0x0 c:/program files/microchip/xc32/v4.00/bin/bin/../../lib/gcc/pic32mx/8.3.1/../../../../pic32mx/lib/fpu64\libc-musl.a(__int_vsprintf.o)
 .reginfo       0x0000000000000000       0x18 c:/program files/microchip/xc32/v4.00/bin/bin/../../lib/gcc/pic32mx/8.3.1/../../../../pic32mx/lib/fpu64\libc-musl.a(__int_vsprintf.o)
 .MIPS.abiflags
                0x0000000000000000       0x18 c:/program files/microchip/xc32/v4.00/bin/bin/../../lib/gcc/pic32mx/8.3.1/../../../../pic32mx/lib/fpu64\libc-musl.a(__int_vsprintf.o)
 .xc_stack_usage
                0x0000000000000000       0x18 c:/program files/microchip/xc32/v4.00/bin/bin/../../lib/gcc/pic32mx/8.3.1/../../../../pic32mx/lib/fpu64\libc-musl.a(__int_vsprintf.o)
 .xc_stack_usage.hdr
                0x0000000000000000        0xe c:/program files/microchip/xc32/v4.00/bin/bin/../../lib/gcc/pic32mx/8.3.1/../../../../pic32mx/lib/fpu64\libc-musl.a(__int_vsprintf.o)
 .note.GNU-stack
                0x0000000000000000        0x0 c:/program files/microchip/xc32/v4.00/bin/bin/../../lib/gcc/pic32mx/8.3.1/../../../../pic32mx/lib/fpu64\libc-musl.a(__int_vsprintf.o)
 .text          0x0000000000000000        0x0 c:/program files/microchip/xc32/v4.00/bin/bin/../../lib/gcc/pic32mx/8.3.1/../../../../pic32mx/lib/fpu64\libc-musl.a(__pop_float.o)
 .data          0x0000000000000000        0x0 c:/program files/microchip/xc32/v4.00/bin/bin/../../lib/gcc/pic32mx/8.3.1/../../../../pic32mx/lib/fpu64\libc-musl.a(__pop_float.o)
 .bss           0x0000000000000000        0x0 c:/program files/microchip/xc32/v4.00/bin/bin/../../lib/gcc/pic32mx/8.3.1/../../../../pic32mx/lib/fpu64\libc-musl.a(__pop_float.o)
 .reginfo       0x0000000000000000       0x18 c:/program files/microchip/xc32/v4.00/bin/bin/../../lib/gcc/pic32mx/8.3.1/../../../../pic32mx/lib/fpu64\libc-musl.a(__pop_float.o)
 .MIPS.abiflags
                0x0000000000000000       0x18 c:/program files/microchip/xc32/v4.00/bin/bin/../../lib/gcc/pic32mx/8.3.1/../../../../pic32mx/lib/fpu64\libc-musl.a(__pop_float.o)
 .xc_stack_usage
                0x0000000000000000       0x19 c:/program files/microchip/xc32/v4.00/bin/bin/../../lib/gcc/pic32mx/8.3.1/../../../../pic32mx/lib/fpu64\libc-musl.a(__pop_float.o)
 .xc_stack_usage.hdr
                0x0000000000000000        0xe c:/program files/microchip/xc32/v4.00/bin/bin/../../lib/gcc/pic32mx/8.3.1/../../../../pic32mx/lib/fpu64\libc-musl.a(__pop_float.o)
 .note.GNU-stack
                0x0000000000000000        0x0 c:/program files/microchip/xc32/v4.00/bin/bin/../../lib/gcc/pic32mx/8.3.1/../../../../pic32mx/lib/fpu64\libc-musl.a(__pop_float.o)
 .text          0x0000000000000000        0x0 c:/program files/microchip/xc32/v4.00/bin/bin/../../lib/gcc/pic32mx/8.3.1/../../../../pic32mx/lib/fpu64\libc-musl.a(__pop_int.o)
 .data          0x0000000000000000        0x0 c:/program files/microchip/xc32/v4.00/bin/bin/../../lib/gcc/pic32mx/8.3.1/../../../../pic32mx/lib/fpu64\libc-musl.a(__pop_int.o)
 .bss           0x0000000000000000        0x0 c:/program files/microchip/xc32/v4.00/bin/bin/../../lib/gcc/pic32mx/8.3.1/../../../../pic32mx/lib/fpu64\libc-musl.a(__pop_int.o)
 .reginfo       0x0000000000000000       0x18 c:/program files/microchip/xc32/v4.00/bin/bin/../../lib/gcc/pic32mx/8.3.1/../../../../pic32mx/lib/fpu64\libc-musl.a(__pop_int.o)
 .MIPS.abiflags
                0x0000000000000000       0x18 c:/program files/microchip/xc32/v4.00/bin/bin/../../lib/gcc/pic32mx/8.3.1/../../../../pic32mx/lib/fpu64\libc-musl.a(__pop_int.o)
 .xc_stack_usage
                0x0000000000000000       0x17 c:/program files/microchip/xc32/v4.00/bin/bin/../../lib/gcc/pic32mx/8.3.1/../../../../pic32mx/lib/fpu64\libc-musl.a(__pop_int.o)
 .xc_stack_usage.hdr
                0x0000000000000000        0xe c:/program files/microchip/xc32/v4.00/bin/bin/../../lib/gcc/pic32mx/8.3.1/../../../../pic32mx/lib/fpu64\libc-musl.a(__pop_int.o)
 .note.GNU-stack
                0x0000000000000000        0x0 c:/program files/microchip/xc32/v4.00/bin/bin/../../lib/gcc/pic32mx/8.3.1/../../../../pic32mx/lib/fpu64\libc-musl.a(__pop_int.o)
 .text          0x0000000000000000        0x0 c:/program files/microchip/xc32/v4.00/bin/bin/../../lib/gcc/pic32mx/8.3.1/../../../../pic32mx/lib/fpu64\libc-musl.a(__pop_ptr.o)
 .data          0x0000000000000000        0x0 c:/program files/microchip/xc32/v4.00/bin/bin/../../lib/gcc/pic32mx/8.3.1/../../../../pic32mx/lib/fpu64\libc-musl.a(__pop_ptr.o)
 .bss           0x0000000000000000        0x0 c:/program files/microchip/xc32/v4.00/bin/bin/../../lib/gcc/pic32mx/8.3.1/../../../../pic32mx/lib/fpu64\libc-musl.a(__pop_ptr.o)
 .reginfo       0x0000000000000000       0x18 c:/program files/microchip/xc32/v4.00/bin/bin/../../lib/gcc/pic32mx/8.3.1/../../../../pic32mx/lib/fpu64\libc-musl.a(__pop_ptr.o)
 .MIPS.abiflags
                0x0000000000000000       0x18 c:/program files/microchip/xc32/v4.00/bin/bin/../../lib/gcc/pic32mx/8.3.1/../../../../pic32mx/lib/fpu64\libc-musl.a(__pop_ptr.o)
 .xc_stack_usage
                0x0000000000000000       0x17 c:/program files/microchip/xc32/v4.00/bin/bin/../../lib/gcc/pic32mx/8.3.1/../../../../pic32mx/lib/fpu64\libc-musl.a(__pop_ptr.o)
 .xc_stack_usage.hdr
                0x0000000000000000        0xe c:/program files/microchip/xc32/v4.00/bin/bin/../../lib/gcc/pic32mx/8.3.1/../../../../pic32mx/lib/fpu64\libc-musl.a(__pop_ptr.o)
 .note.GNU-stack
                0x0000000000000000        0x0 c:/program files/microchip/xc32/v4.00/bin/bin/../../lib/gcc/pic32mx/8.3.1/../../../../pic32mx/lib/fpu64\libc-musl.a(__pop_ptr.o)
 .text          0x0000000000000000        0x0 c:/program files/microchip/xc32/v4.00/bin/bin/../../lib/gcc/pic32mx/8.3.1/../../../../pic32mx/lib/fpu64\libc-musl.a(__int_vsnprintf.o)
 .data          0x0000000000000000        0x0 c:/program files/microchip/xc32/v4.00/bin/bin/../../lib/gcc/pic32mx/8.3.1/../../../../pic32mx/lib/fpu64\libc-musl.a(__int_vsnprintf.o)
 .bss           0x0000000000000000        0x0 c:/program files/microchip/xc32/v4.00/bin/bin/../../lib/gcc/pic32mx/8.3.1/../../../../pic32mx/lib/fpu64\libc-musl.a(__int_vsnprintf.o)
 .reginfo       0x0000000000000000       0x18 c:/program files/microchip/xc32/v4.00/bin/bin/../../lib/gcc/pic32mx/8.3.1/../../../../pic32mx/lib/fpu64\libc-musl.a(__int_vsnprintf.o)
 .MIPS.abiflags
                0x0000000000000000       0x18 c:/program files/microchip/xc32/v4.00/bin/bin/../../lib/gcc/pic32mx/8.3.1/../../../../pic32mx/lib/fpu64\libc-musl.a(__int_vsnprintf.o)
 .xc_stack_usage
                0x0000000000000000       0x19 c:/program files/microchip/xc32/v4.00/bin/bin/../../lib/gcc/pic32mx/8.3.1/../../../../pic32mx/lib/fpu64\libc-musl.a(__int_vsnprintf.o)
 .xc_stack_usage.hdr
                0x0000000000000000        0xe c:/program files/microchip/xc32/v4.00/bin/bin/../../lib/gcc/pic32mx/8.3.1/../../../../pic32mx/lib/fpu64\libc-musl.a(__int_vsnprintf.o)
 .note.GNU-stack
                0x0000000000000000        0x0 c:/program files/microchip/xc32/v4.00/bin/bin/../../lib/gcc/pic32mx/8.3.1/../../../../pic32mx/lib/fpu64\libc-musl.a(__int_vsnprintf.o)
 .text          0x0000000000000000        0x0 c:/program files/microchip/xc32/v4.00/bin/bin/../../lib/gcc/pic32mx/8.3.1/../../../../pic32mx/lib/fpu64\libc-musl.a(__int_vfprintf.o)
 .data          0x0000000000000000        0x0 c:/program files/microchip/xc32/v4.00/bin/bin/../../lib/gcc/pic32mx/8.3.1/../../../../pic32mx/lib/fpu64\libc-musl.a(__int_vfprintf.o)
 .bss           0x0000000000000000        0x0 c:/program files/microchip/xc32/v4.00/bin/bin/../../lib/gcc/pic32mx/8.3.1/../../../../pic32mx/lib/fpu64\libc-musl.a(__int_vfprintf.o)
 .reginfo       0x0000000000000000       0x18 c:/program files/microchip/xc32/v4.00/bin/bin/../../lib/gcc/pic32mx/8.3.1/../../../../pic32mx/lib/fpu64\libc-musl.a(__int_vfprintf.o)
 .MIPS.abiflags
                0x0000000000000000       0x18 c:/program files/microchip/xc32/v4.00/bin/bin/../../lib/gcc/pic32mx/8.3.1/../../../../pic32mx/lib/fpu64\libc-musl.a(__int_vfprintf.o)
 .xc_stack_usage
                0x0000000000000000       0x18 c:/program files/microchip/xc32/v4.00/bin/bin/../../lib/gcc/pic32mx/8.3.1/../../../../pic32mx/lib/fpu64\libc-musl.a(__int_vfprintf.o)
 .xc_stack_usage.hdr
                0x0000000000000000        0xe c:/program files/microchip/xc32/v4.00/bin/bin/../../lib/gcc/pic32mx/8.3.1/../../../../pic32mx/lib/fpu64\libc-musl.a(__int_vfprintf.o)
 .note.GNU-stack
                0x0000000000000000        0x0 c:/program files/microchip/xc32/v4.00/bin/bin/../../lib/gcc/pic32mx/8.3.1/../../../../pic32mx/lib/fpu64\libc-musl.a(__int_vfprintf.o)
 .text          0x0000000000000000        0x0 c:/program files/microchip/xc32/v4.00/bin/bin/../../lib/gcc/pic32mx/8.3.1/../../../../pic32mx/lib/fpu64\libm-musl.a(cos.o)
 .data          0x0000000000000000        0x0 c:/program files/microchip/xc32/v4.00/bin/bin/../../lib/gcc/pic32mx/8.3.1/../../../../pic32mx/lib/fpu64\libm-musl.a(cos.o)
 .bss           0x0000000000000000        0x0 c:/program files/microchip/xc32/v4.00/bin/bin/../../lib/gcc/pic32mx/8.3.1/../../../../pic32mx/lib/fpu64\libm-musl.a(cos.o)
 .reginfo       0x0000000000000000       0x18 c:/program files/microchip/xc32/v4.00/bin/bin/../../lib/gcc/pic32mx/8.3.1/../../../../pic32mx/lib/fpu64\libm-musl.a(cos.o)
 .MIPS.abiflags
                0x0000000000000000       0x18 c:/program files/microchip/xc32/v4.00/bin/bin/../../lib/gcc/pic32mx/8.3.1/../../../../pic32mx/lib/fpu64\libm-musl.a(cos.o)
 .xc_stack_usage
                0x0000000000000000       0x11 c:/program files/microchip/xc32/v4.00/bin/bin/../../lib/gcc/pic32mx/8.3.1/../../../../pic32mx/lib/fpu64\libm-musl.a(cos.o)
 .xc_stack_usage.hdr
                0x0000000000000000        0xe c:/program files/microchip/xc32/v4.00/bin/bin/../../lib/gcc/pic32mx/8.3.1/../../../../pic32mx/lib/fpu64\libm-musl.a(cos.o)
 .note.GNU-stack
                0x0000000000000000        0x0 c:/program files/microchip/xc32/v4.00/bin/bin/../../lib/gcc/pic32mx/8.3.1/../../../../pic32mx/lib/fpu64\libm-musl.a(cos.o)
 .text          0x0000000000000000        0x0 c:/program files/microchip/xc32/v4.00/bin/bin/../../lib/gcc/pic32mx/8.3.1/../../../../pic32mx/lib/fpu64\libm-musl.a(pow.o)
 .data          0x0000000000000000        0x0 c:/program files/microchip/xc32/v4.00/bin/bin/../../lib/gcc/pic32mx/8.3.1/../../../../pic32mx/lib/fpu64\libm-musl.a(pow.o)
 .bss           0x0000000000000000        0x0 c:/program files/microchip/xc32/v4.00/bin/bin/../../lib/gcc/pic32mx/8.3.1/../../../../pic32mx/lib/fpu64\libm-musl.a(pow.o)
 .reginfo       0x0000000000000000       0x18 c:/program files/microchip/xc32/v4.00/bin/bin/../../lib/gcc/pic32mx/8.3.1/../../../../pic32mx/lib/fpu64\libm-musl.a(pow.o)
 .MIPS.abiflags
                0x0000000000000000       0x18 c:/program files/microchip/xc32/v4.00/bin/bin/../../lib/gcc/pic32mx/8.3.1/../../../../pic32mx/lib/fpu64\libm-musl.a(pow.o)
 .xc_stack_usage
                0x0000000000000000       0x11 c:/program files/microchip/xc32/v4.00/bin/bin/../../lib/gcc/pic32mx/8.3.1/../../../../pic32mx/lib/fpu64\libm-musl.a(pow.o)
 .xc_stack_usage.hdr
                0x0000000000000000        0xe c:/program files/microchip/xc32/v4.00/bin/bin/../../lib/gcc/pic32mx/8.3.1/../../../../pic32mx/lib/fpu64\libm-musl.a(pow.o)
 .note.GNU-stack
                0x0000000000000000        0x0 c:/program files/microchip/xc32/v4.00/bin/bin/../../lib/gcc/pic32mx/8.3.1/../../../../pic32mx/lib/fpu64\libm-musl.a(pow.o)
 .text          0x0000000000000000        0x0 c:/program files/microchip/xc32/v4.00/bin/bin/../../lib/gcc/pic32mx/8.3.1/../../../../pic32mx/lib/fpu64\libm-musl.a(scalbn.o)
 .data          0x0000000000000000        0x0 c:/program files/microchip/xc32/v4.00/bin/bin/../../lib/gcc/pic32mx/8.3.1/../../../../pic32mx/lib/fpu64\libm-musl.a(scalbn.o)
 .bss           0x0000000000000000        0x0 c:/program files/microchip/xc32/v4.00/bin/bin/../../lib/gcc/pic32mx/8.3.1/../../../../pic32mx/lib/fpu64\libm-musl.a(scalbn.o)
 .reginfo       0x0000000000000000       0x18 c:/program files/microchip/xc32/v4.00/bin/bin/../../lib/gcc/pic32mx/8.3.1/../../../../pic32mx/lib/fpu64\libm-musl.a(scalbn.o)
 .MIPS.abiflags
                0x0000000000000000       0x18 c:/program files/microchip/xc32/v4.00/bin/bin/../../lib/gcc/pic32mx/8.3.1/../../../../pic32mx/lib/fpu64\libm-musl.a(scalbn.o)
 .xc_stack_usage
                0x0000000000000000       0x14 c:/program files/microchip/xc32/v4.00/bin/bin/../../lib/gcc/pic32mx/8.3.1/../../../../pic32mx/lib/fpu64\libm-musl.a(scalbn.o)
 .xc_stack_usage.hdr
                0x0000000000000000        0xe c:/program files/microchip/xc32/v4.00/bin/bin/../../lib/gcc/pic32mx/8.3.1/../../../../pic32mx/lib/fpu64\libm-musl.a(scalbn.o)
 .note.GNU-stack
                0x0000000000000000        0x0 c:/program files/microchip/xc32/v4.00/bin/bin/../../lib/gcc/pic32mx/8.3.1/../../../../pic32mx/lib/fpu64\libm-musl.a(scalbn.o)
 .text          0x0000000000000000        0x0 c:/program files/microchip/xc32/v4.00/bin/bin/../../lib/gcc/pic32mx/8.3.1/../../../../pic32mx/lib/fpu64\libm-musl.a(sin.o)
 .data          0x0000000000000000        0x0 c:/program files/microchip/xc32/v4.00/bin/bin/../../lib/gcc/pic32mx/8.3.1/../../../../pic32mx/lib/fpu64\libm-musl.a(sin.o)
 .bss           0x0000000000000000        0x0 c:/program files/microchip/xc32/v4.00/bin/bin/../../lib/gcc/pic32mx/8.3.1/../../../../pic32mx/lib/fpu64\libm-musl.a(sin.o)
 .reginfo       0x0000000000000000       0x18 c:/program files/microchip/xc32/v4.00/bin/bin/../../lib/gcc/pic32mx/8.3.1/../../../../pic32mx/lib/fpu64\libm-musl.a(sin.o)
 .MIPS.abiflags
                0x0000000000000000       0x18 c:/program files/microchip/xc32/v4.00/bin/bin/../../lib/gcc/pic32mx/8.3.1/../../../../pic32mx/lib/fpu64\libm-musl.a(sin.o)
 .xc_stack_usage
                0x0000000000000000       0x11 c:/program files/microchip/xc32/v4.00/bin/bin/../../lib/gcc/pic32mx/8.3.1/../../../../pic32mx/lib/fpu64\libm-musl.a(sin.o)
 .xc_stack_usage.hdr
                0x0000000000000000        0xe c:/program files/microchip/xc32/v4.00/bin/bin/../../lib/gcc/pic32mx/8.3.1/../../../../pic32mx/lib/fpu64\libm-musl.a(sin.o)
 .note.GNU-stack
                0x0000000000000000        0x0 c:/program files/microchip/xc32/v4.00/bin/bin/../../lib/gcc/pic32mx/8.3.1/../../../../pic32mx/lib/fpu64\libm-musl.a(sin.o)
 .text          0x0000000000000000        0x0 c:/program files/microchip/xc32/v4.00/bin/bin/../../lib/gcc/pic32mx/8.3.1/../../../../pic32mx/lib/fpu64\libm-musl.a(sqrt.o)
 .data          0x0000000000000000        0x0 c:/program files/microchip/xc32/v4.00/bin/bin/../../lib/gcc/pic32mx/8.3.1/../../../../pic32mx/lib/fpu64\libm-musl.a(sqrt.o)
 .bss           0x0000000000000000        0x0 c:/program files/microchip/xc32/v4.00/bin/bin/../../lib/gcc/pic32mx/8.3.1/../../../../pic32mx/lib/fpu64\libm-musl.a(sqrt.o)
 .reginfo       0x0000000000000000       0x18 c:/program files/microchip/xc32/v4.00/bin/bin/../../lib/gcc/pic32mx/8.3.1/../../../../pic32mx/lib/fpu64\libm-musl.a(sqrt.o)
 .MIPS.abiflags
                0x0000000000000000       0x18 c:/program files/microchip/xc32/v4.00/bin/bin/../../lib/gcc/pic32mx/8.3.1/../../../../pic32mx/lib/fpu64\libm-musl.a(sqrt.o)
 .xc_stack_usage
                0x0000000000000000       0x12 c:/program files/microchip/xc32/v4.00/bin/bin/../../lib/gcc/pic32mx/8.3.1/../../../../pic32mx/lib/fpu64\libm-musl.a(sqrt.o)
 .xc_stack_usage.hdr
                0x0000000000000000        0xe c:/program files/microchip/xc32/v4.00/bin/bin/../../lib/gcc/pic32mx/8.3.1/../../../../pic32mx/lib/fpu64\libm-musl.a(sqrt.o)
 .note.GNU-stack
                0x0000000000000000        0x0 c:/program files/microchip/xc32/v4.00/bin/bin/../../lib/gcc/pic32mx/8.3.1/../../../../pic32mx/lib/fpu64\libm-musl.a(sqrt.o)
 .text          0x0000000000000000        0x0 c:/program files/microchip/xc32/v4.00/bin/bin/../../lib/gcc/pic32mx/8.3.1/../../../../pic32mx/lib/fpu64\libm-musl.a(__cos.o)
 .data          0x0000000000000000        0x0 c:/program files/microchip/xc32/v4.00/bin/bin/../../lib/gcc/pic32mx/8.3.1/../../../../pic32mx/lib/fpu64\libm-musl.a(__cos.o)
 .bss           0x0000000000000000        0x0 c:/program files/microchip/xc32/v4.00/bin/bin/../../lib/gcc/pic32mx/8.3.1/../../../../pic32mx/lib/fpu64\libm-musl.a(__cos.o)
 .reginfo       0x0000000000000000       0x18 c:/program files/microchip/xc32/v4.00/bin/bin/../../lib/gcc/pic32mx/8.3.1/../../../../pic32mx/lib/fpu64\libm-musl.a(__cos.o)
 .MIPS.abiflags
                0x0000000000000000       0x18 c:/program files/microchip/xc32/v4.00/bin/bin/../../lib/gcc/pic32mx/8.3.1/../../../../pic32mx/lib/fpu64\libm-musl.a(__cos.o)
 .xc_stack_usage
                0x0000000000000000       0x13 c:/program files/microchip/xc32/v4.00/bin/bin/../../lib/gcc/pic32mx/8.3.1/../../../../pic32mx/lib/fpu64\libm-musl.a(__cos.o)
 .xc_stack_usage.hdr
                0x0000000000000000        0xe c:/program files/microchip/xc32/v4.00/bin/bin/../../lib/gcc/pic32mx/8.3.1/../../../../pic32mx/lib/fpu64\libm-musl.a(__cos.o)
 .note.GNU-stack
                0x0000000000000000        0x0 c:/program files/microchip/xc32/v4.00/bin/bin/../../lib/gcc/pic32mx/8.3.1/../../../../pic32mx/lib/fpu64\libm-musl.a(__cos.o)
 .text          0x0000000000000000        0x0 c:/program files/microchip/xc32/v4.00/bin/bin/../../lib/gcc/pic32mx/8.3.1/../../../../pic32mx/lib/fpu64\libm-musl.a(__rem_pio2.o)
 .data          0x0000000000000000        0x0 c:/program files/microchip/xc32/v4.00/bin/bin/../../lib/gcc/pic32mx/8.3.1/../../../../pic32mx/lib/fpu64\libm-musl.a(__rem_pio2.o)
 .bss           0x0000000000000000        0x0 c:/program files/microchip/xc32/v4.00/bin/bin/../../lib/gcc/pic32mx/8.3.1/../../../../pic32mx/lib/fpu64\libm-musl.a(__rem_pio2.o)
 .reginfo       0x0000000000000000       0x18 c:/program files/microchip/xc32/v4.00/bin/bin/../../lib/gcc/pic32mx/8.3.1/../../../../pic32mx/lib/fpu64\libm-musl.a(__rem_pio2.o)
 .MIPS.abiflags
                0x0000000000000000       0x18 c:/program files/microchip/xc32/v4.00/bin/bin/../../lib/gcc/pic32mx/8.3.1/../../../../pic32mx/lib/fpu64\libm-musl.a(__rem_pio2.o)
 .xc_stack_usage
                0x0000000000000000       0x18 c:/program files/microchip/xc32/v4.00/bin/bin/../../lib/gcc/pic32mx/8.3.1/../../../../pic32mx/lib/fpu64\libm-musl.a(__rem_pio2.o)
 .xc_stack_usage.hdr
                0x0000000000000000        0xe c:/program files/microchip/xc32/v4.00/bin/bin/../../lib/gcc/pic32mx/8.3.1/../../../../pic32mx/lib/fpu64\libm-musl.a(__rem_pio2.o)
 .note.GNU-stack
                0x0000000000000000        0x0 c:/program files/microchip/xc32/v4.00/bin/bin/../../lib/gcc/pic32mx/8.3.1/../../../../pic32mx/lib/fpu64\libm-musl.a(__rem_pio2.o)
 .text          0x0000000000000000        0x0 c:/program files/microchip/xc32/v4.00/bin/bin/../../lib/gcc/pic32mx/8.3.1/../../../../pic32mx/lib/fpu64\libm-musl.a(__rem_pio2_large.o)
 .data          0x0000000000000000        0x0 c:/program files/microchip/xc32/v4.00/bin/bin/../../lib/gcc/pic32mx/8.3.1/../../../../pic32mx/lib/fpu64\libm-musl.a(__rem_pio2_large.o)
 .bss           0x0000000000000000        0x0 c:/program files/microchip/xc32/v4.00/bin/bin/../../lib/gcc/pic32mx/8.3.1/../../../../pic32mx/lib/fpu64\libm-musl.a(__rem_pio2_large.o)
 .reginfo       0x0000000000000000       0x18 c:/program files/microchip/xc32/v4.00/bin/bin/../../lib/gcc/pic32mx/8.3.1/../../../../pic32mx/lib/fpu64\libm-musl.a(__rem_pio2_large.o)
 .MIPS.abiflags
                0x0000000000000000       0x18 c:/program files/microchip/xc32/v4.00/bin/bin/../../lib/gcc/pic32mx/8.3.1/../../../../pic32mx/lib/fpu64\libm-musl.a(__rem_pio2_large.o)
 .xc_stack_usage
                0x0000000000000000       0x1e c:/program files/microchip/xc32/v4.00/bin/bin/../../lib/gcc/pic32mx/8.3.1/../../../../pic32mx/lib/fpu64\libm-musl.a(__rem_pio2_large.o)
 .xc_stack_usage.hdr
                0x0000000000000000        0xe c:/program files/microchip/xc32/v4.00/bin/bin/../../lib/gcc/pic32mx/8.3.1/../../../../pic32mx/lib/fpu64\libm-musl.a(__rem_pio2_large.o)
 .note.GNU-stack
                0x0000000000000000        0x0 c:/program files/microchip/xc32/v4.00/bin/bin/../../lib/gcc/pic32mx/8.3.1/../../../../pic32mx/lib/fpu64\libm-musl.a(__rem_pio2_large.o)
 .text          0x0000000000000000        0x0 c:/program files/microchip/xc32/v4.00/bin/bin/../../lib/gcc/pic32mx/8.3.1/../../../../pic32mx/lib/fpu64\libm-musl.a(__sin.o)
 .data          0x0000000000000000        0x0 c:/program files/microchip/xc32/v4.00/bin/bin/../../lib/gcc/pic32mx/8.3.1/../../../../pic32mx/lib/fpu64\libm-musl.a(__sin.o)
 .bss           0x0000000000000000        0x0 c:/program files/microchip/xc32/v4.00/bin/bin/../../lib/gcc/pic32mx/8.3.1/../../../../pic32mx/lib/fpu64\libm-musl.a(__sin.o)
 .reginfo       0x0000000000000000       0x18 c:/program files/microchip/xc32/v4.00/bin/bin/../../lib/gcc/pic32mx/8.3.1/../../../../pic32mx/lib/fpu64\libm-musl.a(__sin.o)
 .MIPS.abiflags
                0x0000000000000000       0x18 c:/program files/microchip/xc32/v4.00/bin/bin/../../lib/gcc/pic32mx/8.3.1/../../../../pic32mx/lib/fpu64\libm-musl.a(__sin.o)
 .xc_stack_usage
                0x0000000000000000       0x13 c:/program files/microchip/xc32/v4.00/bin/bin/../../lib/gcc/pic32mx/8.3.1/../../../../pic32mx/lib/fpu64\libm-musl.a(__sin.o)
 .xc_stack_usage.hdr
                0x0000000000000000        0xe c:/program files/microchip/xc32/v4.00/bin/bin/../../lib/gcc/pic32mx/8.3.1/../../../../pic32mx/lib/fpu64\libm-musl.a(__sin.o)
 .note.GNU-stack
                0x0000000000000000        0x0 c:/program files/microchip/xc32/v4.00/bin/bin/../../lib/gcc/pic32mx/8.3.1/../../../../pic32mx/lib/fpu64\libm-musl.a(__sin.o)
 .text          0x0000000000000000        0x0 c:/program files/microchip/xc32/v4.00/bin/bin/../../lib/gcc/pic32mx/8.3.1/../../../../pic32mx/lib/fpu64\libm-musl.a(fabs.o)
 .data          0x0000000000000000        0x0 c:/program files/microchip/xc32/v4.00/bin/bin/../../lib/gcc/pic32mx/8.3.1/../../../../pic32mx/lib/fpu64\libm-musl.a(fabs.o)
 .bss           0x0000000000000000        0x0 c:/program files/microchip/xc32/v4.00/bin/bin/../../lib/gcc/pic32mx/8.3.1/../../../../pic32mx/lib/fpu64\libm-musl.a(fabs.o)
 .reginfo       0x0000000000000000       0x18 c:/program files/microchip/xc32/v4.00/bin/bin/../../lib/gcc/pic32mx/8.3.1/../../../../pic32mx/lib/fpu64\libm-musl.a(fabs.o)
 .MIPS.abiflags
                0x0000000000000000       0x18 c:/program files/microchip/xc32/v4.00/bin/bin/../../lib/gcc/pic32mx/8.3.1/../../../../pic32mx/lib/fpu64\libm-musl.a(fabs.o)
 .xc_stack_usage
                0x0000000000000000       0x12 c:/program files/microchip/xc32/v4.00/bin/bin/../../lib/gcc/pic32mx/8.3.1/../../../../pic32mx/lib/fpu64\libm-musl.a(fabs.o)
 .xc_stack_usage.hdr
                0x0000000000000000        0xe c:/program files/microchip/xc32/v4.00/bin/bin/../../lib/gcc/pic32mx/8.3.1/../../../../pic32mx/lib/fpu64\libm-musl.a(fabs.o)
 .note.GNU-stack
                0x0000000000000000        0x0 c:/program files/microchip/xc32/v4.00/bin/bin/../../lib/gcc/pic32mx/8.3.1/../../../../pic32mx/lib/fpu64\libm-musl.a(fabs.o)
 .text          0x0000000000000000        0x0 c:/program files/microchip/xc32/v4.00/bin/bin/../../lib/gcc/pic32mx/8.3.1/../../../../pic32mx/lib/fpu64\libm-musl.a(floor.o)
 .data          0x0000000000000000        0x0 c:/program files/microchip/xc32/v4.00/bin/bin/../../lib/gcc/pic32mx/8.3.1/../../../../pic32mx/lib/fpu64\libm-musl.a(floor.o)
 .bss           0x0000000000000000        0x0 c:/program files/microchip/xc32/v4.00/bin/bin/../../lib/gcc/pic32mx/8.3.1/../../../../pic32mx/lib/fpu64\libm-musl.a(floor.o)
 .reginfo       0x0000000000000000       0x18 c:/program files/microchip/xc32/v4.00/bin/bin/../../lib/gcc/pic32mx/8.3.1/../../../../pic32mx/lib/fpu64\libm-musl.a(floor.o)
 .MIPS.abiflags
                0x0000000000000000       0x18 c:/program files/microchip/xc32/v4.00/bin/bin/../../lib/gcc/pic32mx/8.3.1/../../../../pic32mx/lib/fpu64\libm-musl.a(floor.o)
 .xc_stack_usage
                0x0000000000000000       0x13 c:/program files/microchip/xc32/v4.00/bin/bin/../../lib/gcc/pic32mx/8.3.1/../../../../pic32mx/lib/fpu64\libm-musl.a(floor.o)
 .xc_stack_usage.hdr
                0x0000000000000000        0xe c:/program files/microchip/xc32/v4.00/bin/bin/../../lib/gcc/pic32mx/8.3.1/../../../../pic32mx/lib/fpu64\libm-musl.a(floor.o)
 .note.GNU-stack
                0x0000000000000000        0x0 c:/program files/microchip/xc32/v4.00/bin/bin/../../lib/gcc/pic32mx/8.3.1/../../../../pic32mx/lib/fpu64\libm-musl.a(floor.o)
 .text          0x0000000000000000        0x0 c:/program files/microchip/xc32/v4.00/bin/bin/../../lib/gcc/pic32mx/8.3.1/../../../../pic32mx/lib/fpu64\libpic32.a(sbrk.o)
 .data          0x0000000000000000        0x0 c:/program files/microchip/xc32/v4.00/bin/bin/../../lib/gcc/pic32mx/8.3.1/../../../../pic32mx/lib/fpu64\libpic32.a(sbrk.o)
 .reginfo       0x0000000000000000       0x18 c:/program files/microchip/xc32/v4.00/bin/bin/../../lib/gcc/pic32mx/8.3.1/../../../../pic32mx/lib/fpu64\libpic32.a(sbrk.o)
 .MIPS.abiflags
                0x0000000000000000       0x18 c:/program files/microchip/xc32/v4.00/bin/bin/../../lib/gcc/pic32mx/8.3.1/../../../../pic32mx/lib/fpu64\libpic32.a(sbrk.o)
 .xc_stack_usage
                0x0000000000000000       0x77 c:/program files/microchip/xc32/v4.00/bin/bin/../../lib/gcc/pic32mx/8.3.1/../../../../pic32mx/lib/fpu64\libpic32.a(sbrk.o)
 .text.getpagesize
                0x0000000000000000        0x8 c:/program files/microchip/xc32/v4.00/bin/bin/../../lib/gcc/pic32mx/8.3.1/../../../../pic32mx/lib/fpu64\libpic32.a(sbrk.o)
 .text.sbrk     0x0000000000000000       0x4c c:/program files/microchip/xc32/v4.00/bin/bin/../../lib/gcc/pic32mx/8.3.1/../../../../pic32mx/lib/fpu64\libpic32.a(sbrk.o)
 .xc_stack_usage.hdr
                0x0000000000000000        0xe c:/program files/microchip/xc32/v4.00/bin/bin/../../lib/gcc/pic32mx/8.3.1/../../../../pic32mx/lib/fpu64\libpic32.a(sbrk.o)
 .text          0x0000000000000000        0x0 c:/program files/microchip/xc32/v4.00/bin/bin/../../lib/gcc/pic32mx/8.3.1/../../../../pic32mx/lib/fpu64\libpic32.a(errno.o)
 .data          0x0000000000000000        0x0 c:/program files/microchip/xc32/v4.00/bin/bin/../../lib/gcc/pic32mx/8.3.1/../../../../pic32mx/lib/fpu64\libpic32.a(errno.o)
 .bss           0x0000000000000000        0x0 c:/program files/microchip/xc32/v4.00/bin/bin/../../lib/gcc/pic32mx/8.3.1/../../../../pic32mx/lib/fpu64\libpic32.a(errno.o)
 .reginfo       0x0000000000000000       0x18 c:/program files/microchip/xc32/v4.00/bin/bin/../../lib/gcc/pic32mx/8.3.1/../../../../pic32mx/lib/fpu64\libpic32.a(errno.o)
 .MIPS.abiflags
                0x0000000000000000       0x18 c:/program files/microchip/xc32/v4.00/bin/bin/../../lib/gcc/pic32mx/8.3.1/../../../../pic32mx/lib/fpu64\libpic32.a(errno.o)
 .xc_stack_usage.hdr
                0x0000000000000000        0xe c:/program files/microchip/xc32/v4.00/bin/bin/../../lib/gcc/pic32mx/8.3.1/../../../../pic32mx/lib/fpu64\libpic32.a(errno.o)
 .data          0x0000000000000000        0x0 c:/program files/microchip/xc32/v4.00/bin/bin/../../lib/gcc/pic32mx/8.3.1/fpu64\libgcc.a(_lshrdi3.o)
 .bss           0x0000000000000000        0x0 c:/program files/microchip/xc32/v4.00/bin/bin/../../lib/gcc/pic32mx/8.3.1/fpu64\libgcc.a(_lshrdi3.o)
 .reginfo       0x0000000000000000       0x18 c:/program files/microchip/xc32/v4.00/bin/bin/../../lib/gcc/pic32mx/8.3.1/fpu64\libgcc.a(_lshrdi3.o)
 .MIPS.abiflags
                0x0000000000000000       0x18 c:/program files/microchip/xc32/v4.00/bin/bin/../../lib/gcc/pic32mx/8.3.1/fpu64\libgcc.a(_lshrdi3.o)
 .xc_stack_usage
                0x0000000000000000       0x17 c:/program files/microchip/xc32/v4.00/bin/bin/../../lib/gcc/pic32mx/8.3.1/fpu64\libgcc.a(_lshrdi3.o)
 .xc_stack_usage.hdr
                0x0000000000000000        0xe c:/program files/microchip/xc32/v4.00/bin/bin/../../lib/gcc/pic32mx/8.3.1/fpu64\libgcc.a(_lshrdi3.o)
 .data          0x0000000000000000        0x0 c:/program files/microchip/xc32/v4.00/bin/bin/../../lib/gcc/pic32mx/8.3.1/fpu64\libgcc.a(_ashldi3.o)
 .bss           0x0000000000000000        0x0 c:/program files/microchip/xc32/v4.00/bin/bin/../../lib/gcc/pic32mx/8.3.1/fpu64\libgcc.a(_ashldi3.o)
 .reginfo       0x0000000000000000       0x18 c:/program files/microchip/xc32/v4.00/bin/bin/../../lib/gcc/pic32mx/8.3.1/fpu64\libgcc.a(_ashldi3.o)
 .MIPS.abiflags
                0x0000000000000000       0x18 c:/program files/microchip/xc32/v4.00/bin/bin/../../lib/gcc/pic32mx/8.3.1/fpu64\libgcc.a(_ashldi3.o)
 .xc_stack_usage
                0x0000000000000000       0x17 c:/program files/microchip/xc32/v4.00/bin/bin/../../lib/gcc/pic32mx/8.3.1/fpu64\libgcc.a(_ashldi3.o)
 .xc_stack_usage.hdr
                0x0000000000000000        0xe c:/program files/microchip/xc32/v4.00/bin/bin/../../lib/gcc/pic32mx/8.3.1/fpu64\libgcc.a(_ashldi3.o)
 .data          0x0000000000000000        0x0 c:/program files/microchip/xc32/v4.00/bin/bin/../../lib/gcc/pic32mx/8.3.1/fpu64\libgcc.a(_udivdi3.o)
 .bss           0x0000000000000000        0x0 c:/program files/microchip/xc32/v4.00/bin/bin/../../lib/gcc/pic32mx/8.3.1/fpu64\libgcc.a(_udivdi3.o)
 .reginfo       0x0000000000000000       0x18 c:/program files/microchip/xc32/v4.00/bin/bin/../../lib/gcc/pic32mx/8.3.1/fpu64\libgcc.a(_udivdi3.o)
 .MIPS.abiflags
                0x0000000000000000       0x18 c:/program files/microchip/xc32/v4.00/bin/bin/../../lib/gcc/pic32mx/8.3.1/fpu64\libgcc.a(_udivdi3.o)
 .xc_stack_usage
                0x0000000000000000       0x17 c:/program files/microchip/xc32/v4.00/bin/bin/../../lib/gcc/pic32mx/8.3.1/fpu64\libgcc.a(_udivdi3.o)
 .xc_stack_usage.hdr
                0x0000000000000000        0xe c:/program files/microchip/xc32/v4.00/bin/bin/../../lib/gcc/pic32mx/8.3.1/fpu64\libgcc.a(_udivdi3.o)
 .data          0x0000000000000000        0x0 c:/program files/microchip/xc32/v4.00/bin/bin/../../lib/gcc/pic32mx/8.3.1/fpu64\libgcc.a(_umoddi3.o)
 .bss           0x0000000000000000        0x0 c:/program files/microchip/xc32/v4.00/bin/bin/../../lib/gcc/pic32mx/8.3.1/fpu64\libgcc.a(_umoddi3.o)
 .reginfo       0x0000000000000000       0x18 c:/program files/microchip/xc32/v4.00/bin/bin/../../lib/gcc/pic32mx/8.3.1/fpu64\libgcc.a(_umoddi3.o)
 .MIPS.abiflags
                0x0000000000000000       0x18 c:/program files/microchip/xc32/v4.00/bin/bin/../../lib/gcc/pic32mx/8.3.1/fpu64\libgcc.a(_umoddi3.o)
 .xc_stack_usage
                0x0000000000000000       0x17 c:/program files/microchip/xc32/v4.00/bin/bin/../../lib/gcc/pic32mx/8.3.1/fpu64\libgcc.a(_umoddi3.o)
 .xc_stack_usage.hdr
                0x0000000000000000        0xe c:/program files/microchip/xc32/v4.00/bin/bin/../../lib/gcc/pic32mx/8.3.1/fpu64\libgcc.a(_umoddi3.o)

Memory Configuration

Name             Origin             Length             Attributes
kseg0_data_mem   0x0000000080000000 0x0000000000020000 w !x
kseg1_data_mem   0x00000000a0000000 0x0000000000000380
kseg0_program_mem 0x000000009d000000 0x0000000000080000 xr
kseg0_boot_mem   0x000000009fc004b0 0x0000000000000000
kseg1_boot_mem   0x00000000bfc00000 0x0000000000000480
kseg1_boot_mem_4B0 0x00000000bfc004b0 0x000000000000fa50
config_BFC0FF40  0x00000000bfc0ff40 0x0000000000000004
config_BFC0FF44  0x00000000bfc0ff44 0x0000000000000004
config_BFC0FF48  0x00000000bfc0ff48 0x0000000000000004
config_BFC0FF4C  0x00000000bfc0ff4c 0x0000000000000004
config_BFC0FF50  0x00000000bfc0ff50 0x0000000000000004
config_BFC0FF54  0x00000000bfc0ff54 0x0000000000000004
config_BFC0FF58  0x00000000bfc0ff58 0x0000000000000004
config_BFC0FF5C  0x00000000bfc0ff5c 0x0000000000000004
config_BFC0FF60  0x00000000bfc0ff60 0x0000000000000004
config_BFC0FF64  0x00000000bfc0ff64 0x0000000000000004
config_BFC0FF68  0x00000000bfc0ff68 0x0000000000000004
config_BFC0FF6C  0x00000000bfc0ff6c 0x0000000000000004
config_BFC0FF70  0x00000000bfc0ff70 0x0000000000000004
config_BFC0FF74  0x00000000bfc0ff74 0x0000000000000004
config_BFC0FF78  0x00000000bfc0ff78 0x0000000000000004
config_BFC0FF7C  0x00000000bfc0ff7c 0x0000000000000004
config_BFC0FFC0  0x00000000bfc0ffc0 0x0000000000000004
config_BFC0FFC4  0x00000000bfc0ffc4 0x0000000000000004
config_BFC0FFC8  0x00000000bfc0ffc8 0x0000000000000004
config_BFC0FFCC  0x00000000bfc0ffcc 0x0000000000000004
config_BFC0FFD0  0x00000000bfc0ffd0 0x0000000000000004
config_BFC0FFD4  0x00000000bfc0ffd4 0x0000000000000004
config_BFC0FFD8  0x00000000bfc0ffd8 0x0000000000000004
config_BFC0FFDC  0x00000000bfc0ffdc 0x0000000000000004
config_BFC0FFE0  0x00000000bfc0ffe0 0x0000000000000004
config_BFC0FFE4  0x00000000bfc0ffe4 0x0000000000000004
config_BFC0FFE8  0x00000000bfc0ffe8 0x0000000000000004
config_BFC0FFEC  0x00000000bfc0ffec 0x0000000000000004
config_BFC0FFF0  0x00000000bfc0fff0 0x0000000000000004
config_BFC0FFF4  0x00000000bfc0fff4 0x0000000000000004
config_BFC0FFF8  0x00000000bfc0fff8 0x0000000000000004
config_BFC0FFFC  0x00000000bfc0fffc 0x0000000000000004
lowerbootaliaslastpage 0x00000000bfc10000 0x0000000000004000
upperbootalias   0x00000000bfc20000 0x000000000000ff00
config_BFC2FF40  0x00000000bfc2ff40 0x0000000000000004
config_BFC2FF44  0x00000000bfc2ff44 0x0000000000000004
config_BFC2FF48  0x00000000bfc2ff48 0x0000000000000004
config_BFC2FF4C  0x00000000bfc2ff4c 0x0000000000000004
config_BFC2FF50  0x00000000bfc2ff50 0x0000000000000004
config_BFC2FF54  0x00000000bfc2ff54 0x0000000000000004
config_BFC2FF58  0x00000000bfc2ff58 0x0000000000000004
config_BFC2FF5C  0x00000000bfc2ff5c 0x0000000000000004
config_BFC2FF60  0x00000000bfc2ff60 0x0000000000000004
config_BFC2FF64  0x00000000bfc2ff64 0x0000000000000004
config_BFC2FF68  0x00000000bfc2ff68 0x0000000000000004
config_BFC2FF6C  0x00000000bfc2ff6c 0x0000000000000004
config_BFC2FF70  0x00000000bfc2ff70 0x0000000000000004
config_BFC2FF74  0x00000000bfc2ff74 0x0000000000000004
config_BFC2FF78  0x00000000bfc2ff78 0x0000000000000004
config_BFC2FF7C  0x00000000bfc2ff7c 0x0000000000000004
config_BFC2FFC0  0x00000000bfc2ffc0 0x0000000000000004
config_BFC2FFC4  0x00000000bfc2ffc4 0x0000000000000004
config_BFC2FFC8  0x00000000bfc2ffc8 0x0000000000000004
config_BFC2FFCC  0x00000000bfc2ffcc 0x0000000000000004
config_BFC2FFD0  0x00000000bfc2ffd0 0x0000000000000004
config_BFC2FFD4  0x00000000bfc2ffd4 0x0000000000000004
config_BFC2FFD8  0x00000000bfc2ffd8 0x0000000000000004
config_BFC2FFDC  0x00000000bfc2ffdc 0x0000000000000004
config_BFC2FFE0  0x00000000bfc2ffe0 0x0000000000000004
config_BFC2FFE4  0x00000000bfc2ffe4 0x0000000000000004
config_BFC2FFE8  0x00000000bfc2ffe8 0x0000000000000004
config_BFC2FFEC  0x00000000bfc2ffec 0x0000000000000004
config_BFC2FFF0  0x00000000bfc2fff0 0x0000000000000004
config_BFC2FFF4  0x00000000bfc2fff4 0x0000000000000004
config_BFC2FFF8  0x00000000bfc2fff8 0x0000000000000004
config_BFC2FFFC  0x00000000bfc2fffc 0x0000000000000004
upperbootaliaslastpage 0x00000000bfc30000 0x0000000000004000
boot1            0x00000000bfc40000 0x000000000000ff00
config_BFC4FF40  0x00000000bfc4ff40 0x0000000000000004
config_BFC4FF44  0x00000000bfc4ff44 0x0000000000000004
config_BFC4FF48  0x00000000bfc4ff48 0x0000000000000004
config_BFC4FF4C  0x00000000bfc4ff4c 0x0000000000000004
config_BFC4FF50  0x00000000bfc4ff50 0x0000000000000004
config_BFC4FF54  0x00000000bfc4ff54 0x0000000000000004
config_BFC4FF58  0x00000000bfc4ff58 0x0000000000000004
config_BFC4FF5C  0x00000000bfc4ff5c 0x0000000000000004
config_BFC4FF60  0x00000000bfc4ff60 0x0000000000000004
config_BFC4FF64  0x00000000bfc4ff64 0x0000000000000004
config_BFC4FF68  0x00000000bfc4ff68 0x0000000000000004
config_BFC4FF6C  0x00000000bfc4ff6c 0x0000000000000004
config_BFC4FF70  0x00000000bfc4ff70 0x0000000000000004
config_BFC4FF74  0x00000000bfc4ff74 0x0000000000000004
config_BFC4FF78  0x00000000bfc4ff78 0x0000000000000004
config_BFC4FF7C  0x00000000bfc4ff7c 0x0000000000000004
config_BFC4FFC0  0x00000000bfc4ffc0 0x0000000000000004
config_BFC4FFC4  0x00000000bfc4ffc4 0x0000000000000004
config_BFC4FFC8  0x00000000bfc4ffc8 0x0000000000000004
config_BFC4FFCC  0x00000000bfc4ffcc 0x0000000000000004
config_BFC4FFD0  0x00000000bfc4ffd0 0x0000000000000004
config_BFC4FFD4  0x00000000bfc4ffd4 0x0000000000000004
config_BFC4FFD8  0x00000000bfc4ffd8 0x0000000000000004
config_BFC4FFDC  0x00000000bfc4ffdc 0x0000000000000004
config_BFC4FFE0  0x00000000bfc4ffe0 0x0000000000000004
config_BFC4FFE4  0x00000000bfc4ffe4 0x0000000000000004
config_BFC4FFE8  0x00000000bfc4ffe8 0x0000000000000004
config_BFC4FFEC  0x00000000bfc4ffec 0x0000000000000004
config_BFC4FFF0  0x00000000bfc4fff0 0x0000000000000004
config_BFC4FFF4  0x00000000bfc4fff4 0x0000000000000004
config_BFC4FFF8  0x00000000bfc4fff8 0x0000000000000004
config_BFC4FFFC  0x00000000bfc4fffc 0x0000000000000004
boot1lastpage    0x00000000bfc50000 0x0000000000004000
config_BFC54000  0x00000000bfc54000 0x0000000000000004
config_BFC54004  0x00000000bfc54004 0x0000000000000004
config_BFC54008  0x00000000bfc54008 0x0000000000000004
config_BFC5400C  0x00000000bfc5400c 0x0000000000000004
config_BFC54010  0x00000000bfc54010 0x0000000000000004
config_BFC5401C  0x00000000bfc5401c 0x0000000000000004
config_BFC54020  0x00000000bfc54020 0x0000000000000004
config_BFC54024  0x00000000bfc54024 0x0000000000000004
boot2            0x00000000bfc60000 0x000000000000ff00
config_BFC6FF40  0x00000000bfc6ff40 0x0000000000000004
config_BFC6FF44  0x00000000bfc6ff44 0x0000000000000004
config_BFC6FF48  0x00000000bfc6ff48 0x0000000000000004
config_BFC6FF4C  0x00000000bfc6ff4c 0x0000000000000004
config_BFC6FF50  0x00000000bfc6ff50 0x0000000000000004
config_BFC6FF54  0x00000000bfc6ff54 0x0000000000000004
config_BFC6FF58  0x00000000bfc6ff58 0x0000000000000004
config_BFC6FF5C  0x00000000bfc6ff5c 0x0000000000000004
config_BFC6FF60  0x00000000bfc6ff60 0x0000000000000004
config_BFC6FF64  0x00000000bfc6ff64 0x0000000000000004
config_BFC6FF68  0x00000000bfc6ff68 0x0000000000000004
config_BFC6FF6C  0x00000000bfc6ff6c 0x0000000000000004
config_BFC6FF70  0x00000000bfc6ff70 0x0000000000000004
config_BFC6FF74  0x00000000bfc6ff74 0x0000000000000004
config_BFC6FF78  0x00000000bfc6ff78 0x0000000000000004
config_BFC6FF7C  0x00000000bfc6ff7c 0x0000000000000004
config_BFC6FFC0  0x00000000bfc6ffc0 0x0000000000000004
config_BFC6FFC4  0x00000000bfc6ffc4 0x0000000000000004
config_BFC6FFC8  0x00000000bfc6ffc8 0x0000000000000004
config_BFC6FFCC  0x00000000bfc6ffcc 0x0000000000000004
config_BFC6FFD0  0x00000000bfc6ffd0 0x0000000000000004
config_BFC6FFD4  0x00000000bfc6ffd4 0x0000000000000004
config_BFC6FFD8  0x00000000bfc6ffd8 0x0000000000000004
config_BFC6FFDC  0x00000000bfc6ffdc 0x0000000000000004
config_BFC6FFE0  0x00000000bfc6ffe0 0x0000000000000004
config_BFC6FFE4  0x00000000bfc6ffe4 0x0000000000000004
config_BFC6FFE8  0x00000000bfc6ffe8 0x0000000000000004
config_BFC6FFEC  0x00000000bfc6ffec 0x0000000000000004
config_BFC6FFF0  0x00000000bfc6fff0 0x0000000000000004
config_BFC6FFF4  0x00000000bfc6fff4 0x0000000000000004
config_BFC6FFF8  0x00000000bfc6fff8 0x0000000000000004
config_BFC6FFFC  0x00000000bfc6fffc 0x0000000000000004
boot2lastpage    0x00000000bfc70000 0x0000000000004000
sfrs             0x00000000bf800000 0x0000000000100000
configsfrs_BFC0FF40 0x00000000bfc0ff40 0x0000000000000040
configsfrs_BFC0FFC0 0x00000000bfc0ffc0 0x0000000000000040
configsfrs_BFC2FF40 0x00000000bfc2ff40 0x0000000000000040
configsfrs_BFC2FFC0 0x00000000bfc2ffc0 0x0000000000000040
configsfrs_BFC4FF40 0x00000000bfc4ff40 0x0000000000000040
configsfrs_BFC4FFC0 0x00000000bfc4ffc0 0x0000000000000040
configsfrs_BFC54000 0x00000000bfc54000 0x0000000000000020
configsfrs_BFC6FF40 0x00000000bfc6ff40 0x0000000000000040
configsfrs_BFC6FFC0 0x00000000bfc6ffc0 0x0000000000000040
kseg2_sqi_data_mem 0x00000000d0000000 0x0000000004000000
kseg3_sqi_data_mem 0x00000000f0000000 0x0000000004000000
*default*        0x0000000000000000 0xffffffffffffffff

Linker script and memory map


reserve_data_0_kseg0
                0x0000000080000000      0x380
                0x0000000080000000        0x2 SHORT 0x0
                0x0000000000000380                . = 0x380
 *fill*         0x0000000080000002      0x37e 
                0x0000000080000380                . = ALIGN (0x4)

reserve_data_0_kseg1
                0x00000000a0000000      0x380
                0x00000000a0000000        0x2 SHORT 0x0
                0x0000000000000380                . = 0x380
 *fill*         0x00000000a0000002      0x37e 
                0x00000000a0000380                . = ALIGN (0x4)
LOAD c:/program files/microchip/xc32/v4.00/bin/bin/../../lib/gcc/pic32mx/8.3.1/../../../../pic32mx/lib/fpu64\software-debug-break.o
LOAD build/DSP_TU2/debug/_ext/302168295/plib_adchs.o
LOAD build/DSP_TU2/debug/_ext/255064926/plib_clk.o
LOAD build/DSP_TU2/debug/_ext/682852657/plib_evic.o
LOAD build/DSP_TU2/debug/_ext/682798829/plib_gpio.o
LOAD build/DSP_TU2/debug/_ext/682572869/plib_ocmp1.o
LOAD build/DSP_TU2/debug/_ext/957679836/plib_spi1_master.o
LOAD build/DSP_TU2/debug/_ext/957679836/plib_spi3_master.o
LOAD build/DSP_TU2/debug/_ext/957679836/plib_spi2_master.o
LOAD build/DSP_TU2/debug/_ext/255081301/plib_tmr2.o
LOAD build/DSP_TU2/debug/_ext/682395886/plib_uart2.o
LOAD build/DSP_TU2/debug/_ext/775482278/xc32_monitor.o
LOAD build/DSP_TU2/debug/_ext/1994557280/initialization.o
LOAD build/DSP_TU2/debug/_ext/1994557280/interrupts.o
LOAD build/DSP_TU2/debug/_ext/1994557280/exceptions.o
LOAD build/DSP_TU2/debug/_ext/1360937237/main.o
LOAD build/DSP_TU2/debug/_ext/1360937237/AfskGen.o
LOAD build/DSP_TU2/debug/_ext/1360937237/BaudotUart.o
LOAD build/DSP_TU2/debug/_ext/1360937237/DynamicThreshold.o
LOAD build/DSP_TU2/debug/_ext/1360937237/PwmAudioOut.o
LOAD build/DSP_TU2/debug/_ext/1360937237/agc.o
LOAD build/DSP_TU2/debug/_ext/1360937237/biquad.o
LOAD build/DSP_TU2/debug/_ext/1360937237/dds.o
LOAD build/DSP_TU2/debug/_ext/1360937237/display.o
LOAD build/DSP_TU2/debug/_ext/1360937237/fifo16.o
LOAD build/DSP_TU2/debug/_ext/1360937237/xyScope.o
LOAD build/DSP_TU2/debug/_ext/1360937237/PollSwitchesLeds.o
LOAD build/DSP_TU2/debug/_ext/1360937237/PollEncoder.o
                0x0000000000000001                __MPLAB_BUILD = 0x1
                0x0000000000000400                PROVIDE (_min_stack_size = 0x400)
START GROUP
LOAD vector_offset_init.o
END GROUP
                0x0000000000000001                PROVIDE (_vector_spacing = 0x1)
                0x000000009d000000                PROVIDE (_ebase_address = 0x9d000000)
                0x00000000bfc00000                _RESET_ADDR = 0xbfc00000
                0x00000000bfc00380                _BEV_EXCPT_ADDR = 0xbfc00380
                0x00000000bfc00480                _DBG_EXCPT_ADDR = 0xbfc00480
                0x000000009d000000                _SIMPLE_TLB_REFILL_EXCPT_ADDR = (_ebase_address + 0x0)
                0x000000009d000100                _CACHE_ERR_EXCPT_ADDR = (_ebase_address + 0x100)
                0x000000009d000180                _GEN_EXCPT_ADDR = (_ebase_address + 0x180)

.config_BFC0FF40
 *(.config_BFC0FF40)

.config_BFC0FF44
 *(.config_BFC0FF44)

.config_BFC0FF48
 *(.config_BFC0FF48)

.config_BFC0FF4C
 *(.config_BFC0FF4C)

.config_BFC0FF50
 *(.config_BFC0FF50)

.config_BFC0FF54
 *(.config_BFC0FF54)

.config_BFC0FF58
 *(.config_BFC0FF58)

.config_BFC0FF5C
 *(.config_BFC0FF5C)

.config_BFC0FF60
 *(.config_BFC0FF60)

.config_BFC0FF64
 *(.config_BFC0FF64)

.config_BFC0FF68
 *(.config_BFC0FF68)

.config_BFC0FF6C
 *(.config_BFC0FF6C)

.config_BFC0FF70
 *(.config_BFC0FF70)

.config_BFC0FF74
 *(.config_BFC0FF74)

.config_BFC0FF78
 *(.config_BFC0FF78)

.config_BFC0FF7C
 *(.config_BFC0FF7C)

.config_BFC0FFC0
                0x00000000bfc0ffc0        0x4
 *(.config_BFC0FFC0)
 .config_BFC0FFC0
                0x00000000bfc0ffc0        0x4 build/DSP_TU2/debug/_ext/1994557280/initialization.o
                0x00000000bfc0ffc0                __config_BFC0FFC0

.config_BFC0FFC4
                0x00000000bfc0ffc4        0x4
 *(.config_BFC0FFC4)
 .config_BFC0FFC4
                0x00000000bfc0ffc4        0x4 build/DSP_TU2/debug/_ext/1994557280/initialization.o
                0x00000000bfc0ffc4                __config_BFC0FFC4

.config_BFC0FFC8
                0x00000000bfc0ffc8        0x4
 *(.config_BFC0FFC8)
 .config_BFC0FFC8
                0x00000000bfc0ffc8        0x4 build/DSP_TU2/debug/_ext/1994557280/initialization.o
                0x00000000bfc0ffc8                __config_BFC0FFC8

.config_BFC0FFCC
                0x00000000bfc0ffcc        0x4
 *(.config_BFC0FFCC)
 .config_BFC0FFCC
                0x00000000bfc0ffcc        0x4 build/DSP_TU2/debug/_ext/1994557280/initialization.o
                0x00000000bfc0ffcc                __config_BFC0FFCC

.config_BFC0FFD0
 *(.config_BFC0FFD0)

.config_BFC0FFD4
 *(.config_BFC0FFD4)

.config_BFC0FFD8
 *(.config_BFC0FFD8)

.config_BFC0FFDC
                0x00000000bfc0ffdc        0x4
 *(.config_BFC0FFDC)
 .config_BFC0FFDC
                0x00000000bfc0ffdc        0x4 build/DSP_TU2/debug/_ext/1994557280/initialization.o
                0x00000000bfc0ffdc                __config_BFC0FFDC

.config_BFC0FFE0
 *(.config_BFC0FFE0)

.config_BFC0FFE4
 *(.config_BFC0FFE4)

.config_BFC0FFE8
 *(.config_BFC0FFE8)

.config_BFC0FFEC
 *(.config_BFC0FFEC)

.config_BFC0FFF0
                0x00000000bfc0fff0        0x4
 *(.config_BFC0FFF0)
 .config_BFC0FFF0
                0x00000000bfc0fff0        0x4 build/DSP_TU2/debug/_ext/1994557280/initialization.o
                0x00000000bfc0fff0                __config_BFC0FFF0

.config_BFC0FFF4
 *(.config_BFC0FFF4)

.config_BFC0FFF8
 *(.config_BFC0FFF8)

.config_BFC0FFFC
 *(.config_BFC0FFFC)

.config_BFC2FF40
 *(.config_BFC2FF40)

.config_BFC2FF44
 *(.config_BFC2FF44)

.config_BFC2FF48
 *(.config_BFC2FF48)

.config_BFC2FF4C
 *(.config_BFC2FF4C)

.config_BFC2FF50
 *(.config_BFC2FF50)

.config_BFC2FF54
 *(.config_BFC2FF54)

.config_BFC2FF58
 *(.config_BFC2FF58)

.config_BFC2FF5C
 *(.config_BFC2FF5C)

.config_BFC2FF60
 *(.config_BFC2FF60)

.config_BFC2FF64
 *(.config_BFC2FF64)

.config_BFC2FF68
 *(.config_BFC2FF68)

.config_BFC2FF6C
 *(.config_BFC2FF6C)

.config_BFC2FF70
 *(.config_BFC2FF70)

.config_BFC2FF74
 *(.config_BFC2FF74)

.config_BFC2FF78
 *(.config_BFC2FF78)

.config_BFC2FF7C
 *(.config_BFC2FF7C)

.config_BFC2FFC0
 *(.config_BFC2FFC0)

.config_BFC2FFC4
 *(.config_BFC2FFC4)

.config_BFC2FFC8
 *(.config_BFC2FFC8)

.config_BFC2FFCC
 *(.config_BFC2FFCC)

.config_BFC2FFD0
 *(.config_BFC2FFD0)

.config_BFC2FFD4
 *(.config_BFC2FFD4)

.config_BFC2FFD8
 *(.config_BFC2FFD8)

.config_BFC2FFDC
 *(.config_BFC2FFDC)

.config_BFC2FFE0
 *(.config_BFC2FFE0)

.config_BFC2FFE4
 *(.config_BFC2FFE4)

.config_BFC2FFE8
 *(.config_BFC2FFE8)

.config_BFC2FFEC
 *(.config_BFC2FFEC)

.config_BFC2FFF0
 *(.config_BFC2FFF0)

.config_BFC2FFF4
 *(.config_BFC2FFF4)

.config_BFC2FFF8
 *(.config_BFC2FFF8)

.config_BFC2FFFC
 *(.config_BFC2FFFC)

.config_BFC4FF40
 *(.config_BFC4FF40)

.config_BFC4FF44
 *(.config_BFC4FF44)

.config_BFC4FF48
 *(.config_BFC4FF48)

.config_BFC4FF4C
 *(.config_BFC4FF4C)

.config_BFC4FF50
 *(.config_BFC4FF50)

.config_BFC4FF54
 *(.config_BFC4FF54)

.config_BFC4FF58
 *(.config_BFC4FF58)

.config_BFC4FF5C
 *(.config_BFC4FF5C)

.config_BFC4FF60
 *(.config_BFC4FF60)

.config_BFC4FF64
 *(.config_BFC4FF64)

.config_BFC4FF68
 *(.config_BFC4FF68)

.config_BFC4FF6C
 *(.config_BFC4FF6C)

.config_BFC4FF70
 *(.config_BFC4FF70)

.config_BFC4FF74
 *(.config_BFC4FF74)

.config_BFC4FF78
 *(.config_BFC4FF78)

.config_BFC4FF7C
 *(.config_BFC4FF7C)

.config_BFC4FFC0
 *(.config_BFC4FFC0)

.config_BFC4FFC4
 *(.config_BFC4FFC4)

.config_BFC4FFC8
 *(.config_BFC4FFC8)

.config_BFC4FFCC
 *(.config_BFC4FFCC)

.config_BFC4FFD0
 *(.config_BFC4FFD0)

.config_BFC4FFD4
 *(.config_BFC4FFD4)

.config_BFC4FFD8
 *(.config_BFC4FFD8)

.config_BFC4FFDC
 *(.config_BFC4FFDC)

.config_BFC4FFE0
 *(.config_BFC4FFE0)

.config_BFC4FFE4
 *(.config_BFC4FFE4)

.config_BFC4FFE8
 *(.config_BFC4FFE8)

.config_BFC4FFEC
 *(.config_BFC4FFEC)

.config_BFC4FFF0
 *(.config_BFC4FFF0)

.config_BFC4FFF4
 *(.config_BFC4FFF4)

.config_BFC4FFF8
 *(.config_BFC4FFF8)

.config_BFC4FFFC
 *(.config_BFC4FFFC)

.config_BFC54000
 *(.config_BFC54000)

.config_BFC54004
 *(.config_BFC54004)

.config_BFC54008
 *(.config_BFC54008)

.config_BFC5400C
 *(.config_BFC5400C)

.config_BFC54010
 *(.config_BFC54010)

.config_BFC5401C
 *(.config_BFC5401C)

.config_BFC54020
 *(.config_BFC54020)

.config_BFC54024
 *(.config_BFC54024)

.config_BFC6FF40
 *(.config_BFC6FF40)

.config_BFC6FF44
 *(.config_BFC6FF44)

.config_BFC6FF48
 *(.config_BFC6FF48)

.config_BFC6FF4C
 *(.config_BFC6FF4C)

.config_BFC6FF50
 *(.config_BFC6FF50)

.config_BFC6FF54
 *(.config_BFC6FF54)

.config_BFC6FF58
 *(.config_BFC6FF58)

.config_BFC6FF5C
 *(.config_BFC6FF5C)

.config_BFC6FF60
 *(.config_BFC6FF60)

.config_BFC6FF64
 *(.config_BFC6FF64)

.config_BFC6FF68
 *(.config_BFC6FF68)

.config_BFC6FF6C
 *(.config_BFC6FF6C)

.config_BFC6FF70
 *(.config_BFC6FF70)

.config_BFC6FF74
 *(.config_BFC6FF74)

.config_BFC6FF78
 *(.config_BFC6FF78)

.config_BFC6FF7C
 *(.config_BFC6FF7C)

.config_BFC6FFC0
 *(.config_BFC6FFC0)

.config_BFC6FFC4
 *(.config_BFC6FFC4)

.config_BFC6FFC8
 *(.config_BFC6FFC8)

.config_BFC6FFCC
 *(.config_BFC6FFCC)

.config_BFC6FFD0
 *(.config_BFC6FFD0)

.config_BFC6FFD4
 *(.config_BFC6FFD4)

.config_BFC6FFD8
 *(.config_BFC6FFD8)

.config_BFC6FFDC
 *(.config_BFC6FFDC)

.config_BFC6FFE0
 *(.config_BFC6FFE0)

.config_BFC6FFE4
 *(.config_BFC6FFE4)

.config_BFC6FFE8
 *(.config_BFC6FFE8)

.config_BFC6FFEC
 *(.config_BFC6FFEC)

.config_BFC6FFF0
 *(.config_BFC6FFF0)

.config_BFC6FFF4
 *(.config_BFC6FFF4)

.config_BFC6FFF8
 *(.config_BFC6FFF8)

.config_BFC6FFFC
 *(.config_BFC6FFFC)

.reset          0x00000000bfc00000      0x1c4
 *(.reset)
 .reset         0x00000000bfc00000       0x18 C:\Users\HAROLD~1\AppData\Local\Temp\ccOhslTW.o
                0x00000000bfc00000                _reset
 *(.reset.startup)
 .reset.startup
                0x00000000bfc00018      0x1ac C:\Users\HAROLD~1\AppData\Local\Temp\ccOhslTW.o
                0x00000000bfc00018                _startup

.bev_excpt      0x00000000bfc00380       0x10
 *(.bev_handler)
 .bev_handler   0x00000000bfc00380       0x10 C:\Users\HAROLD~1\AppData\Local\Temp\ccOhslTW.o

.cache_init     0x00000000bfc004b0      0x1c0
 *(.cache_init)
 *(.cache_init.*)
 .cache_init.cache
                0x00000000bfc004b0       0xc0 c:/program files/microchip/xc32/v4.00/bin/bin/../../lib/gcc/pic32mx/8.3.1/../../../../pic32mx/lib/fpu64\libpic32.a(pic32_init_cache.o)
 .cache_init.pic32_init_cache
                0x00000000bfc00570      0x100 c:/program files/microchip/xc32/v4.00/bin/bin/../../lib/gcc/pic32mx/8.3.1/../../../../pic32mx/lib/fpu64\libpic32.a(pic32_init_cache.o)
                0x00000000bfc00570                __pic32_init_cache

.simple_tlb_refill_excpt
                0x000000009d000000       0x10
 *(.simple_tlb_refill_vector)
 .simple_tlb_refill_vector
                0x000000009d000000       0x10 C:\Users\HAROLD~1\AppData\Local\Temp\ccOhslTW.o

.cache_err_excpt
                0x000000009d000100       0x10
 *(.cache_err_vector)
 .cache_err_vector
                0x000000009d000100       0x10 C:\Users\HAROLD~1\AppData\Local\Temp\ccOhslTW.o

.app_excpt      0x000000009d000180       0x10
 *(.gen_handler)
 .gen_handler   0x000000009d000180       0x10 C:\Users\HAROLD~1\AppData\Local\Temp\ccOhslTW.o

.vectors        0x000000009d000200       0x68
                0x000000009d000200                . = ALIGN (0x4)
                0x0000000000000220                __vector_offset_0 = DEFINED (__vector_dispatch_0)?(. - _ebase_address):__vector_offset_default
 *(.vector_0)
                0x000000009d000200                . = ALIGN (0x4)
                0x0000000000000220                __vector_offset_1 = DEFINED (__vector_dispatch_1)?(. - _ebase_address):__vector_offset_default
 *(.vector_1)
                0x000000009d000200                . = ALIGN (0x4)
                0x0000000000000220                __vector_offset_2 = DEFINED (__vector_dispatch_2)?(. - _ebase_address):__vector_offset_default
 *(.vector_2)
                0x000000009d000200                . = ALIGN (0x4)
                0x0000000000000220                __vector_offset_3 = DEFINED (__vector_dispatch_3)?(. - _ebase_address):__vector_offset_default
 *(.vector_3)
                0x000000009d000200                . = ALIGN (0x4)
                0x0000000000000220                __vector_offset_4 = DEFINED (__vector_dispatch_4)?(. - _ebase_address):__vector_offset_default
 *(.vector_4)
                0x000000009d000200                . = ALIGN (0x4)
                0x0000000000000220                __vector_offset_5 = DEFINED (__vector_dispatch_5)?(. - _ebase_address):__vector_offset_default
 *(.vector_5)
                0x000000009d000200                . = ALIGN (0x4)
                0x0000000000000220                __vector_offset_6 = DEFINED (__vector_dispatch_6)?(. - _ebase_address):__vector_offset_default
 *(.vector_6)
                0x000000009d000200                . = ALIGN (0x4)
                0x0000000000000220                __vector_offset_7 = DEFINED (__vector_dispatch_7)?(. - _ebase_address):__vector_offset_default
 *(.vector_7)
                0x000000009d000200                . = ALIGN (0x4)
                0x0000000000000220                __vector_offset_8 = DEFINED (__vector_dispatch_8)?(. - _ebase_address):__vector_offset_default
 *(.vector_8)
                0x000000009d000200                . = ALIGN (0x4)
                0x0000000000000200                __vector_offset_9 = DEFINED (__vector_dispatch_9)?(. - _ebase_address):__vector_offset_default
 *(.vector_9)
 .vector_9      0x000000009d000200        0x8 build/DSP_TU2/debug/_ext/1994557280/interrupts.o
                0x000000009d000200                __vector_dispatch_9
                0x000000009d000208                . = ALIGN (0x4)
                0x0000000000000220                __vector_offset_10 = DEFINED (__vector_dispatch_10)?(. - _ebase_address):__vector_offset_default
 *(.vector_10)
                0x000000009d000208                . = ALIGN (0x4)
                0x0000000000000220                __vector_offset_11 = DEFINED (__vector_dispatch_11)?(. - _ebase_address):__vector_offset_default
 *(.vector_11)
                0x000000009d000208                . = ALIGN (0x4)
                0x0000000000000220                __vector_offset_12 = DEFINED (__vector_dispatch_12)?(. - _ebase_address):__vector_offset_default
 *(.vector_12)
                0x000000009d000208                . = ALIGN (0x4)
                0x0000000000000220                __vector_offset_13 = DEFINED (__vector_dispatch_13)?(. - _ebase_address):__vector_offset_default
 *(.vector_13)
                0x000000009d000208                . = ALIGN (0x4)
                0x0000000000000220                __vector_offset_14 = DEFINED (__vector_dispatch_14)?(. - _ebase_address):__vector_offset_default
 *(.vector_14)
                0x000000009d000208                . = ALIGN (0x4)
                0x0000000000000220                __vector_offset_15 = DEFINED (__vector_dispatch_15)?(. - _ebase_address):__vector_offset_default
 *(.vector_15)
                0x000000009d000208                . = ALIGN (0x4)
                0x0000000000000220                __vector_offset_16 = DEFINED (__vector_dispatch_16)?(. - _ebase_address):__vector_offset_default
 *(.vector_16)
                0x000000009d000208                . = ALIGN (0x4)
                0x0000000000000220                __vector_offset_17 = DEFINED (__vector_dispatch_17)?(. - _ebase_address):__vector_offset_default
 *(.vector_17)
                0x000000009d000208                . = ALIGN (0x4)
                0x0000000000000220                __vector_offset_18 = DEFINED (__vector_dispatch_18)?(. - _ebase_address):__vector_offset_default
 *(.vector_18)
                0x000000009d000208                . = ALIGN (0x4)
                0x0000000000000220                __vector_offset_19 = DEFINED (__vector_dispatch_19)?(. - _ebase_address):__vector_offset_default
 *(.vector_19)
                0x000000009d000208                . = ALIGN (0x4)
                0x0000000000000220                __vector_offset_20 = DEFINED (__vector_dispatch_20)?(. - _ebase_address):__vector_offset_default
 *(.vector_20)
                0x000000009d000208                . = ALIGN (0x4)
                0x0000000000000220                __vector_offset_21 = DEFINED (__vector_dispatch_21)?(. - _ebase_address):__vector_offset_default
 *(.vector_21)
                0x000000009d000208                . = ALIGN (0x4)
                0x0000000000000220                __vector_offset_22 = DEFINED (__vector_dispatch_22)?(. - _ebase_address):__vector_offset_default
 *(.vector_22)
                0x000000009d000208                . = ALIGN (0x4)
                0x0000000000000220                __vector_offset_23 = DEFINED (__vector_dispatch_23)?(. - _ebase_address):__vector_offset_default
 *(.vector_23)
                0x000000009d000208                . = ALIGN (0x4)
                0x0000000000000220                __vector_offset_24 = DEFINED (__vector_dispatch_24)?(. - _ebase_address):__vector_offset_default
 *(.vector_24)
                0x000000009d000208                . = ALIGN (0x4)
                0x0000000000000220                __vector_offset_25 = DEFINED (__vector_dispatch_25)?(. - _ebase_address):__vector_offset_default
 *(.vector_25)
                0x000000009d000208                . = ALIGN (0x4)
                0x0000000000000220                __vector_offset_26 = DEFINED (__vector_dispatch_26)?(. - _ebase_address):__vector_offset_default
 *(.vector_26)
                0x000000009d000208                . = ALIGN (0x4)
                0x0000000000000220                __vector_offset_27 = DEFINED (__vector_dispatch_27)?(. - _ebase_address):__vector_offset_default
 *(.vector_27)
                0x000000009d000208                . = ALIGN (0x4)
                0x0000000000000220                __vector_offset_28 = DEFINED (__vector_dispatch_28)?(. - _ebase_address):__vector_offset_default
 *(.vector_28)
                0x000000009d000208                . = ALIGN (0x4)
                0x0000000000000220                __vector_offset_29 = DEFINED (__vector_dispatch_29)?(. - _ebase_address):__vector_offset_default
 *(.vector_29)
                0x000000009d000208                . = ALIGN (0x4)
                0x0000000000000220                __vector_offset_30 = DEFINED (__vector_dispatch_30)?(. - _ebase_address):__vector_offset_default
 *(.vector_30)
                0x000000009d000208                . = ALIGN (0x4)
                0x0000000000000220                __vector_offset_31 = DEFINED (__vector_dispatch_31)?(. - _ebase_address):__vector_offset_default
 *(.vector_31)
                0x000000009d000208                . = ALIGN (0x4)
                0x0000000000000220                __vector_offset_32 = DEFINED (__vector_dispatch_32)?(. - _ebase_address):__vector_offset_default
 *(.vector_32)
                0x000000009d000208                . = ALIGN (0x4)
                0x0000000000000220                __vector_offset_33 = DEFINED (__vector_dispatch_33)?(. - _ebase_address):__vector_offset_default
 *(.vector_33)
                0x000000009d000208                . = ALIGN (0x4)
                0x0000000000000220                __vector_offset_34 = DEFINED (__vector_dispatch_34)?(. - _ebase_address):__vector_offset_default
 *(.vector_34)
                0x000000009d000208                . = ALIGN (0x4)
                0x0000000000000220                __vector_offset_35 = DEFINED (__vector_dispatch_35)?(. - _ebase_address):__vector_offset_default
 *(.vector_35)
                0x000000009d000208                . = ALIGN (0x4)
                0x0000000000000220                __vector_offset_36 = DEFINED (__vector_dispatch_36)?(. - _ebase_address):__vector_offset_default
 *(.vector_36)
                0x000000009d000208                . = ALIGN (0x4)
                0x0000000000000220                __vector_offset_37 = DEFINED (__vector_dispatch_37)?(. - _ebase_address):__vector_offset_default
 *(.vector_37)
                0x000000009d000208                . = ALIGN (0x4)
                0x0000000000000220                __vector_offset_38 = DEFINED (__vector_dispatch_38)?(. - _ebase_address):__vector_offset_default
 *(.vector_38)
                0x000000009d000208                . = ALIGN (0x4)
                0x0000000000000220                __vector_offset_39 = DEFINED (__vector_dispatch_39)?(. - _ebase_address):__vector_offset_default
 *(.vector_39)
                0x000000009d000208                . = ALIGN (0x4)
                0x0000000000000220                __vector_offset_40 = DEFINED (__vector_dispatch_40)?(. - _ebase_address):__vector_offset_default
 *(.vector_40)
                0x000000009d000208                . = ALIGN (0x4)
                0x0000000000000220                __vector_offset_41 = DEFINED (__vector_dispatch_41)?(. - _ebase_address):__vector_offset_default
 *(.vector_41)
                0x000000009d000208                . = ALIGN (0x4)
                0x0000000000000220                __vector_offset_42 = DEFINED (__vector_dispatch_42)?(. - _ebase_address):__vector_offset_default
 *(.vector_42)
                0x000000009d000208                . = ALIGN (0x4)
                0x0000000000000220                __vector_offset_43 = DEFINED (__vector_dispatch_43)?(. - _ebase_address):__vector_offset_default
 *(.vector_43)
                0x000000009d000208                . = ALIGN (0x4)
                0x0000000000000220                __vector_offset_44 = DEFINED (__vector_dispatch_44)?(. - _ebase_address):__vector_offset_default
 *(.vector_44)
                0x000000009d000208                . = ALIGN (0x4)
                0x0000000000000220                __vector_offset_45 = DEFINED (__vector_dispatch_45)?(. - _ebase_address):__vector_offset_default
 *(.vector_45)
                0x000000009d000208                . = ALIGN (0x4)
                0x0000000000000220                __vector_offset_46 = DEFINED (__vector_dispatch_46)?(. - _ebase_address):__vector_offset_default
 *(.vector_46)
                0x000000009d000208                . = ALIGN (0x4)
                0x0000000000000220                __vector_offset_47 = DEFINED (__vector_dispatch_47)?(. - _ebase_address):__vector_offset_default
 *(.vector_47)
                0x000000009d000208                . = ALIGN (0x4)
                0x0000000000000220                __vector_offset_48 = DEFINED (__vector_dispatch_48)?(. - _ebase_address):__vector_offset_default
 *(.vector_48)
                0x000000009d000208                . = ALIGN (0x4)
                0x0000000000000220                __vector_offset_49 = DEFINED (__vector_dispatch_49)?(. - _ebase_address):__vector_offset_default
 *(.vector_49)
                0x000000009d000208                . = ALIGN (0x4)
                0x0000000000000220                __vector_offset_50 = DEFINED (__vector_dispatch_50)?(. - _ebase_address):__vector_offset_default
 *(.vector_50)
                0x000000009d000208                . = ALIGN (0x4)
                0x0000000000000220                __vector_offset_51 = DEFINED (__vector_dispatch_51)?(. - _ebase_address):__vector_offset_default
 *(.vector_51)
                0x000000009d000208                . = ALIGN (0x4)
                0x0000000000000220                __vector_offset_52 = DEFINED (__vector_dispatch_52)?(. - _ebase_address):__vector_offset_default
 *(.vector_52)
                0x000000009d000208                . = ALIGN (0x4)
                0x0000000000000220                __vector_offset_53 = DEFINED (__vector_dispatch_53)?(. - _ebase_address):__vector_offset_default
 *(.vector_53)
                0x000000009d000208                . = ALIGN (0x4)
                0x0000000000000220                __vector_offset_54 = DEFINED (__vector_dispatch_54)?(. - _ebase_address):__vector_offset_default
 *(.vector_54)
                0x000000009d000208                . = ALIGN (0x4)
                0x0000000000000220                __vector_offset_55 = DEFINED (__vector_dispatch_55)?(. - _ebase_address):__vector_offset_default
 *(.vector_55)
                0x000000009d000208                . = ALIGN (0x4)
                0x0000000000000220                __vector_offset_56 = DEFINED (__vector_dispatch_56)?(. - _ebase_address):__vector_offset_default
 *(.vector_56)
                0x000000009d000208                . = ALIGN (0x4)
                0x0000000000000220                __vector_offset_57 = DEFINED (__vector_dispatch_57)?(. - _ebase_address):__vector_offset_default
 *(.vector_57)
                0x000000009d000208                . = ALIGN (0x4)
                0x0000000000000220                __vector_offset_58 = DEFINED (__vector_dispatch_58)?(. - _ebase_address):__vector_offset_default
 *(.vector_58)
                0x000000009d000208                . = ALIGN (0x4)
                0x0000000000000220                __vector_offset_59 = DEFINED (__vector_dispatch_59)?(. - _ebase_address):__vector_offset_default
 *(.vector_59)
                0x000000009d000208                . = ALIGN (0x4)
                0x0000000000000220                __vector_offset_60 = DEFINED (__vector_dispatch_60)?(. - _ebase_address):__vector_offset_default
 *(.vector_60)
                0x000000009d000208                . = ALIGN (0x4)
                0x0000000000000220                __vector_offset_61 = DEFINED (__vector_dispatch_61)?(. - _ebase_address):__vector_offset_default
 *(.vector_61)
                0x000000009d000208                . = ALIGN (0x4)
                0x0000000000000220                __vector_offset_62 = DEFINED (__vector_dispatch_62)?(. - _ebase_address):__vector_offset_default
 *(.vector_62)
                0x000000009d000208                . = ALIGN (0x4)
                0x0000000000000220                __vector_offset_63 = DEFINED (__vector_dispatch_63)?(. - _ebase_address):__vector_offset_default
 *(.vector_63)
                0x000000009d000208                . = ALIGN (0x4)
                0x0000000000000220                __vector_offset_64 = DEFINED (__vector_dispatch_64)?(. - _ebase_address):__vector_offset_default
 *(.vector_64)
                0x000000009d000208                . = ALIGN (0x4)
                0x0000000000000220                __vector_offset_65 = DEFINED (__vector_dispatch_65)?(. - _ebase_address):__vector_offset_default
 *(.vector_65)
                0x000000009d000208                . = ALIGN (0x4)
                0x0000000000000220                __vector_offset_66 = DEFINED (__vector_dispatch_66)?(. - _ebase_address):__vector_offset_default
 *(.vector_66)
                0x000000009d000208                . = ALIGN (0x4)
                0x0000000000000220                __vector_offset_67 = DEFINED (__vector_dispatch_67)?(. - _ebase_address):__vector_offset_default
 *(.vector_67)
                0x000000009d000208                . = ALIGN (0x4)
                0x0000000000000220                __vector_offset_68 = DEFINED (__vector_dispatch_68)?(. - _ebase_address):__vector_offset_default
 *(.vector_68)
                0x000000009d000208                . = ALIGN (0x4)
                0x0000000000000220                __vector_offset_69 = DEFINED (__vector_dispatch_69)?(. - _ebase_address):__vector_offset_default
 *(.vector_69)
                0x000000009d000208                . = ALIGN (0x4)
                0x0000000000000220                __vector_offset_70 = DEFINED (__vector_dispatch_70)?(. - _ebase_address):__vector_offset_default
 *(.vector_70)
                0x000000009d000208                . = ALIGN (0x4)
                0x0000000000000220                __vector_offset_71 = DEFINED (__vector_dispatch_71)?(. - _ebase_address):__vector_offset_default
 *(.vector_71)
                0x000000009d000208                . = ALIGN (0x4)
                0x0000000000000220                __vector_offset_72 = DEFINED (__vector_dispatch_72)?(. - _ebase_address):__vector_offset_default
 *(.vector_72)
                0x000000009d000208                . = ALIGN (0x4)
                0x0000000000000220                __vector_offset_73 = DEFINED (__vector_dispatch_73)?(. - _ebase_address):__vector_offset_default
 *(.vector_73)
                0x000000009d000208                . = ALIGN (0x4)
                0x0000000000000220                __vector_offset_74 = DEFINED (__vector_dispatch_74)?(. - _ebase_address):__vector_offset_default
 *(.vector_74)
                0x000000009d000208                . = ALIGN (0x4)
                0x0000000000000220                __vector_offset_75 = DEFINED (__vector_dispatch_75)?(. - _ebase_address):__vector_offset_default
 *(.vector_75)
                0x000000009d000208                . = ALIGN (0x4)
                0x0000000000000220                __vector_offset_76 = DEFINED (__vector_dispatch_76)?(. - _ebase_address):__vector_offset_default
 *(.vector_76)
                0x000000009d000208                . = ALIGN (0x4)
                0x0000000000000220                __vector_offset_77 = DEFINED (__vector_dispatch_77)?(. - _ebase_address):__vector_offset_default
 *(.vector_77)
                0x000000009d000208                . = ALIGN (0x4)
                0x0000000000000220                __vector_offset_78 = DEFINED (__vector_dispatch_78)?(. - _ebase_address):__vector_offset_default
 *(.vector_78)
                0x000000009d000208                . = ALIGN (0x4)
                0x0000000000000220                __vector_offset_79 = DEFINED (__vector_dispatch_79)?(. - _ebase_address):__vector_offset_default
 *(.vector_79)
                0x000000009d000208                . = ALIGN (0x4)
                0x0000000000000220                __vector_offset_80 = DEFINED (__vector_dispatch_80)?(. - _ebase_address):__vector_offset_default
 *(.vector_80)
                0x000000009d000208                . = ALIGN (0x4)
                0x0000000000000220                __vector_offset_81 = DEFINED (__vector_dispatch_81)?(. - _ebase_address):__vector_offset_default
 *(.vector_81)
                0x000000009d000208                . = ALIGN (0x4)
                0x0000000000000220                __vector_offset_82 = DEFINED (__vector_dispatch_82)?(. - _ebase_address):__vector_offset_default
 *(.vector_82)
                0x000000009d000208                . = ALIGN (0x4)
                0x0000000000000220                __vector_offset_83 = DEFINED (__vector_dispatch_83)?(. - _ebase_address):__vector_offset_default
 *(.vector_83)
                0x000000009d000208                . = ALIGN (0x4)
                0x0000000000000220                __vector_offset_84 = DEFINED (__vector_dispatch_84)?(. - _ebase_address):__vector_offset_default
 *(.vector_84)
                0x000000009d000208                . = ALIGN (0x4)
                0x0000000000000220                __vector_offset_85 = DEFINED (__vector_dispatch_85)?(. - _ebase_address):__vector_offset_default
 *(.vector_85)
                0x000000009d000208                . = ALIGN (0x4)
                0x0000000000000220                __vector_offset_86 = DEFINED (__vector_dispatch_86)?(. - _ebase_address):__vector_offset_default
 *(.vector_86)
                0x000000009d000208                . = ALIGN (0x4)
                0x0000000000000220                __vector_offset_87 = DEFINED (__vector_dispatch_87)?(. - _ebase_address):__vector_offset_default
 *(.vector_87)
                0x000000009d000208                . = ALIGN (0x4)
                0x0000000000000220                __vector_offset_88 = DEFINED (__vector_dispatch_88)?(. - _ebase_address):__vector_offset_default
 *(.vector_88)
                0x000000009d000208                . = ALIGN (0x4)
                0x0000000000000220                __vector_offset_89 = DEFINED (__vector_dispatch_89)?(. - _ebase_address):__vector_offset_default
 *(.vector_89)
                0x000000009d000208                . = ALIGN (0x4)
                0x0000000000000220                __vector_offset_90 = DEFINED (__vector_dispatch_90)?(. - _ebase_address):__vector_offset_default
 *(.vector_90)
                0x000000009d000208                . = ALIGN (0x4)
                0x0000000000000220                __vector_offset_91 = DEFINED (__vector_dispatch_91)?(. - _ebase_address):__vector_offset_default
 *(.vector_91)
                0x000000009d000208                . = ALIGN (0x4)
                0x0000000000000220                __vector_offset_92 = DEFINED (__vector_dispatch_92)?(. - _ebase_address):__vector_offset_default
 *(.vector_92)
                0x000000009d000208                . = ALIGN (0x4)
                0x0000000000000220                __vector_offset_93 = DEFINED (__vector_dispatch_93)?(. - _ebase_address):__vector_offset_default
 *(.vector_93)
                0x000000009d000208                . = ALIGN (0x4)
                0x0000000000000220                __vector_offset_94 = DEFINED (__vector_dispatch_94)?(. - _ebase_address):__vector_offset_default
 *(.vector_94)
                0x000000009d000208                . = ALIGN (0x4)
                0x0000000000000220                __vector_offset_95 = DEFINED (__vector_dispatch_95)?(. - _ebase_address):__vector_offset_default
 *(.vector_95)
                0x000000009d000208                . = ALIGN (0x4)
                0x0000000000000220                __vector_offset_96 = DEFINED (__vector_dispatch_96)?(. - _ebase_address):__vector_offset_default
 *(.vector_96)
                0x000000009d000208                . = ALIGN (0x4)
                0x0000000000000220                __vector_offset_97 = DEFINED (__vector_dispatch_97)?(. - _ebase_address):__vector_offset_default
 *(.vector_97)
                0x000000009d000208                . = ALIGN (0x4)
                0x0000000000000220                __vector_offset_98 = DEFINED (__vector_dispatch_98)?(. - _ebase_address):__vector_offset_default
 *(.vector_98)
                0x000000009d000208                . = ALIGN (0x4)
                0x0000000000000220                __vector_offset_99 = DEFINED (__vector_dispatch_99)?(. - _ebase_address):__vector_offset_default
 *(.vector_99)
                0x000000009d000208                . = ALIGN (0x4)
                0x0000000000000220                __vector_offset_100 = DEFINED (__vector_dispatch_100)?(. - _ebase_address):__vector_offset_default
 *(.vector_100)
                0x000000009d000208                . = ALIGN (0x4)
                0x0000000000000220                __vector_offset_101 = DEFINED (__vector_dispatch_101)?(. - _ebase_address):__vector_offset_default
 *(.vector_101)
                0x000000009d000208                . = ALIGN (0x4)
                0x0000000000000220                __vector_offset_102 = DEFINED (__vector_dispatch_102)?(. - _ebase_address):__vector_offset_default
 *(.vector_102)
                0x000000009d000208                . = ALIGN (0x4)
                0x0000000000000220                __vector_offset_103 = DEFINED (__vector_dispatch_103)?(. - _ebase_address):__vector_offset_default
 *(.vector_103)
                0x000000009d000208                . = ALIGN (0x4)
                0x0000000000000220                __vector_offset_104 = DEFINED (__vector_dispatch_104)?(. - _ebase_address):__vector_offset_default
 *(.vector_104)
                0x000000009d000208                . = ALIGN (0x4)
                0x0000000000000220                __vector_offset_105 = DEFINED (__vector_dispatch_105)?(. - _ebase_address):__vector_offset_default
 *(.vector_105)
                0x000000009d000208                . = ALIGN (0x4)
                0x0000000000000220                __vector_offset_106 = DEFINED (__vector_dispatch_106)?(. - _ebase_address):__vector_offset_default
 *(.vector_106)
                0x000000009d000208                . = ALIGN (0x4)
                0x0000000000000220                __vector_offset_107 = DEFINED (__vector_dispatch_107)?(. - _ebase_address):__vector_offset_default
 *(.vector_107)
                0x000000009d000208                . = ALIGN (0x4)
                0x0000000000000220                __vector_offset_108 = DEFINED (__vector_dispatch_108)?(. - _ebase_address):__vector_offset_default
 *(.vector_108)
                0x000000009d000208                . = ALIGN (0x4)
                0x0000000000000220                __vector_offset_109 = DEFINED (__vector_dispatch_109)?(. - _ebase_address):__vector_offset_default
 *(.vector_109)
                0x000000009d000208                . = ALIGN (0x4)
                0x0000000000000220                __vector_offset_110 = DEFINED (__vector_dispatch_110)?(. - _ebase_address):__vector_offset_default
 *(.vector_110)
                0x000000009d000208                . = ALIGN (0x4)
                0x0000000000000220                __vector_offset_111 = DEFINED (__vector_dispatch_111)?(. - _ebase_address):__vector_offset_default
 *(.vector_111)
                0x000000009d000208                . = ALIGN (0x4)
                0x0000000000000220                __vector_offset_112 = DEFINED (__vector_dispatch_112)?(. - _ebase_address):__vector_offset_default
 *(.vector_112)
                0x000000009d000208                . = ALIGN (0x4)
                0x0000000000000220                __vector_offset_113 = DEFINED (__vector_dispatch_113)?(. - _ebase_address):__vector_offset_default
 *(.vector_113)
                0x000000009d000208                . = ALIGN (0x4)
                0x0000000000000220                __vector_offset_114 = DEFINED (__vector_dispatch_114)?(. - _ebase_address):__vector_offset_default
 *(.vector_114)
                0x000000009d000208                . = ALIGN (0x4)
                0x0000000000000220                __vector_offset_115 = DEFINED (__vector_dispatch_115)?(. - _ebase_address):__vector_offset_default
 *(.vector_115)
                0x000000009d000208                . = ALIGN (0x4)
                0x0000000000000220                __vector_offset_116 = DEFINED (__vector_dispatch_116)?(. - _ebase_address):__vector_offset_default
 *(.vector_116)
                0x000000009d000208                . = ALIGN (0x4)
                0x0000000000000220                __vector_offset_117 = DEFINED (__vector_dispatch_117)?(. - _ebase_address):__vector_offset_default
 *(.vector_117)
                0x000000009d000208                . = ALIGN (0x4)
                0x0000000000000220                __vector_offset_118 = DEFINED (__vector_dispatch_118)?(. - _ebase_address):__vector_offset_default
 *(.vector_118)
                0x000000009d000208                . = ALIGN (0x4)
                0x0000000000000220                __vector_offset_119 = DEFINED (__vector_dispatch_119)?(. - _ebase_address):__vector_offset_default
 *(.vector_119)
                0x000000009d000208                . = ALIGN (0x4)
                0x0000000000000220                __vector_offset_120 = DEFINED (__vector_dispatch_120)?(. - _ebase_address):__vector_offset_default
 *(.vector_120)
                0x000000009d000208                . = ALIGN (0x4)
                0x0000000000000220                __vector_offset_121 = DEFINED (__vector_dispatch_121)?(. - _ebase_address):__vector_offset_default
 *(.vector_121)
                0x000000009d000208                . = ALIGN (0x4)
                0x0000000000000220                __vector_offset_122 = DEFINED (__vector_dispatch_122)?(. - _ebase_address):__vector_offset_default
 *(.vector_122)
                0x000000009d000208                . = ALIGN (0x4)
                0x0000000000000220                __vector_offset_123 = DEFINED (__vector_dispatch_123)?(. - _ebase_address):__vector_offset_default
 *(.vector_123)
                0x000000009d000208                . = ALIGN (0x4)
                0x0000000000000220                __vector_offset_124 = DEFINED (__vector_dispatch_124)?(. - _ebase_address):__vector_offset_default
 *(.vector_124)
                0x000000009d000208                . = ALIGN (0x4)
                0x0000000000000220                __vector_offset_125 = DEFINED (__vector_dispatch_125)?(. - _ebase_address):__vector_offset_default
 *(.vector_125)
                0x000000009d000208                . = ALIGN (0x4)
                0x0000000000000220                __vector_offset_126 = DEFINED (__vector_dispatch_126)?(. - _ebase_address):__vector_offset_default
 *(.vector_126)
                0x000000009d000208                . = ALIGN (0x4)
                0x0000000000000220                __vector_offset_127 = DEFINED (__vector_dispatch_127)?(. - _ebase_address):__vector_offset_default
 *(.vector_127)
                0x000000009d000208                . = ALIGN (0x4)
                0x0000000000000220                __vector_offset_128 = DEFINED (__vector_dispatch_128)?(. - _ebase_address):__vector_offset_default
 *(.vector_128)
                0x000000009d000208                . = ALIGN (0x4)
                0x0000000000000220                __vector_offset_129 = DEFINED (__vector_dispatch_129)?(. - _ebase_address):__vector_offset_default
 *(.vector_129)
                0x000000009d000208                . = ALIGN (0x4)
                0x0000000000000220                __vector_offset_130 = DEFINED (__vector_dispatch_130)?(. - _ebase_address):__vector_offset_default
 *(.vector_130)
                0x000000009d000208                . = ALIGN (0x4)
                0x0000000000000220                __vector_offset_131 = DEFINED (__vector_dispatch_131)?(. - _ebase_address):__vector_offset_default
 *(.vector_131)
                0x000000009d000208                . = ALIGN (0x4)
                0x0000000000000220                __vector_offset_132 = DEFINED (__vector_dispatch_132)?(. - _ebase_address):__vector_offset_default
 *(.vector_132)
                0x000000009d000208                . = ALIGN (0x4)
                0x0000000000000220                __vector_offset_133 = DEFINED (__vector_dispatch_133)?(. - _ebase_address):__vector_offset_default
 *(.vector_133)
                0x000000009d000208                . = ALIGN (0x4)
                0x0000000000000220                __vector_offset_134 = DEFINED (__vector_dispatch_134)?(. - _ebase_address):__vector_offset_default
 *(.vector_134)
                0x000000009d000208                . = ALIGN (0x4)
                0x0000000000000220                __vector_offset_135 = DEFINED (__vector_dispatch_135)?(. - _ebase_address):__vector_offset_default
 *(.vector_135)
                0x000000009d000208                . = ALIGN (0x4)
                0x0000000000000220                __vector_offset_136 = DEFINED (__vector_dispatch_136)?(. - _ebase_address):__vector_offset_default
 *(.vector_136)
                0x000000009d000208                . = ALIGN (0x4)
                0x0000000000000220                __vector_offset_137 = DEFINED (__vector_dispatch_137)?(. - _ebase_address):__vector_offset_default
 *(.vector_137)
                0x000000009d000208                . = ALIGN (0x4)
                0x0000000000000220                __vector_offset_138 = DEFINED (__vector_dispatch_138)?(. - _ebase_address):__vector_offset_default
 *(.vector_138)
                0x000000009d000208                . = ALIGN (0x4)
                0x0000000000000220                __vector_offset_139 = DEFINED (__vector_dispatch_139)?(. - _ebase_address):__vector_offset_default
 *(.vector_139)
                0x000000009d000208                . = ALIGN (0x4)
                0x0000000000000220                __vector_offset_140 = DEFINED (__vector_dispatch_140)?(. - _ebase_address):__vector_offset_default
 *(.vector_140)
                0x000000009d000208                . = ALIGN (0x4)
                0x0000000000000220                __vector_offset_141 = DEFINED (__vector_dispatch_141)?(. - _ebase_address):__vector_offset_default
 *(.vector_141)
                0x000000009d000208                . = ALIGN (0x4)
                0x0000000000000220                __vector_offset_142 = DEFINED (__vector_dispatch_142)?(. - _ebase_address):__vector_offset_default
 *(.vector_142)
                0x000000009d000208                . = ALIGN (0x4)
                0x0000000000000220                __vector_offset_143 = DEFINED (__vector_dispatch_143)?(. - _ebase_address):__vector_offset_default
 *(.vector_143)
                0x000000009d000208                . = ALIGN (0x4)
                0x0000000000000220                __vector_offset_144 = DEFINED (__vector_dispatch_144)?(. - _ebase_address):__vector_offset_default
 *(.vector_144)
                0x000000009d000208                . = ALIGN (0x4)
                0x0000000000000208                __vector_offset_145 = DEFINED (__vector_dispatch_145)?(. - _ebase_address):__vector_offset_default
 *(.vector_145)
 .vector_145    0x000000009d000208        0x8 build/DSP_TU2/debug/_ext/1994557280/interrupts.o
                0x000000009d000208                __vector_dispatch_145
                0x000000009d000210                . = ALIGN (0x4)
                0x0000000000000210                __vector_offset_146 = DEFINED (__vector_dispatch_146)?(. - _ebase_address):__vector_offset_default
 *(.vector_146)
 .vector_146    0x000000009d000210        0x8 build/DSP_TU2/debug/_ext/1994557280/interrupts.o
                0x000000009d000210                __vector_dispatch_146
                0x000000009d000218                . = ALIGN (0x4)
                0x0000000000000218                __vector_offset_147 = DEFINED (__vector_dispatch_147)?(. - _ebase_address):__vector_offset_default
 *(.vector_147)
 .vector_147    0x000000009d000218        0x8 build/DSP_TU2/debug/_ext/1994557280/interrupts.o
                0x000000009d000218                __vector_dispatch_147
                0x000000009d000220                . = ALIGN (0x4)
                0x0000000000000220                __vector_offset_148 = DEFINED (__vector_dispatch_148)?(. - _ebase_address):__vector_offset_default
 *(.vector_148)
                0x000000009d000220                . = ALIGN (0x4)
                0x0000000000000220                __vector_offset_149 = DEFINED (__vector_dispatch_149)?(. - _ebase_address):__vector_offset_default
 *(.vector_149)
                0x000000009d000220                . = ALIGN (0x4)
                0x0000000000000220                __vector_offset_150 = DEFINED (__vector_dispatch_150)?(. - _ebase_address):__vector_offset_default
 *(.vector_150)
                0x000000009d000220                . = ALIGN (0x4)
                0x0000000000000220                __vector_offset_151 = DEFINED (__vector_dispatch_151)?(. - _ebase_address):__vector_offset_default
 *(.vector_151)
                0x000000009d000220                . = ALIGN (0x4)
                0x0000000000000220                __vector_offset_152 = DEFINED (__vector_dispatch_152)?(. - _ebase_address):__vector_offset_default
 *(.vector_152)
                0x000000009d000220                . = ALIGN (0x4)
                0x0000000000000220                __vector_offset_153 = DEFINED (__vector_dispatch_153)?(. - _ebase_address):__vector_offset_default
 *(.vector_153)
                0x000000009d000220                . = ALIGN (0x4)
                0x0000000000000220                __vector_offset_154 = DEFINED (__vector_dispatch_154)?(. - _ebase_address):__vector_offset_default
 *(.vector_154)
                0x000000009d000220                . = ALIGN (0x4)
                0x0000000000000220                __vector_offset_155 = DEFINED (__vector_dispatch_155)?(. - _ebase_address):__vector_offset_default
 *(.vector_155)
                0x000000009d000220                . = ALIGN (0x4)
                0x0000000000000220                __vector_offset_156 = DEFINED (__vector_dispatch_156)?(. - _ebase_address):__vector_offset_default
 *(.vector_156)
                0x000000009d000220                . = ALIGN (0x4)
                0x0000000000000220                __vector_offset_157 = DEFINED (__vector_dispatch_157)?(. - _ebase_address):__vector_offset_default
 *(.vector_157)
                0x000000009d000220                . = ALIGN (0x4)
                0x0000000000000220                __vector_offset_158 = DEFINED (__vector_dispatch_158)?(. - _ebase_address):__vector_offset_default
 *(.vector_158)
                0x000000009d000220                . = ALIGN (0x4)
                0x0000000000000220                __vector_offset_159 = DEFINED (__vector_dispatch_159)?(. - _ebase_address):__vector_offset_default
 *(.vector_159)
                0x000000009d000220                . = ALIGN (0x4)
                0x0000000000000220                __vector_offset_160 = DEFINED (__vector_dispatch_160)?(. - _ebase_address):__vector_offset_default
 *(.vector_160)
                0x000000009d000220                . = ALIGN (0x4)
                0x0000000000000220                __vector_offset_161 = DEFINED (__vector_dispatch_161)?(. - _ebase_address):__vector_offset_default
 *(.vector_161)
                0x000000009d000220                . = ALIGN (0x4)
                0x0000000000000220                __vector_offset_162 = DEFINED (__vector_dispatch_162)?(. - _ebase_address):__vector_offset_default
 *(.vector_162)
                0x000000009d000220                . = ALIGN (0x4)
                0x0000000000000220                __vector_offset_163 = DEFINED (__vector_dispatch_163)?(. - _ebase_address):__vector_offset_default
 *(.vector_163)
                0x000000009d000220                . = ALIGN (0x4)
                0x0000000000000220                __vector_offset_164 = DEFINED (__vector_dispatch_164)?(. - _ebase_address):__vector_offset_default
 *(.vector_164)
                0x000000009d000220                . = ALIGN (0x4)
                0x0000000000000220                __vector_offset_165 = DEFINED (__vector_dispatch_165)?(. - _ebase_address):__vector_offset_default
 *(.vector_165)
                0x000000009d000220                . = ALIGN (0x4)
                0x0000000000000220                __vector_offset_166 = DEFINED (__vector_dispatch_166)?(. - _ebase_address):__vector_offset_default
 *(.vector_166)
                0x000000009d000220                . = ALIGN (0x4)
                0x0000000000000220                __vector_offset_167 = DEFINED (__vector_dispatch_167)?(. - _ebase_address):__vector_offset_default
 *(.vector_167)
                0x000000009d000220                . = ALIGN (0x4)
                0x0000000000000220                __vector_offset_168 = DEFINED (__vector_dispatch_168)?(. - _ebase_address):__vector_offset_default
 *(.vector_168)
                0x000000009d000220                . = ALIGN (0x4)
                0x0000000000000220                __vector_offset_169 = DEFINED (__vector_dispatch_169)?(. - _ebase_address):__vector_offset_default
 *(.vector_169)
                0x000000009d000220                . = ALIGN (0x4)
                0x0000000000000220                __vector_offset_170 = DEFINED (__vector_dispatch_170)?(. - _ebase_address):__vector_offset_default
 *(.vector_170)
                0x000000009d000220                . = ALIGN (0x4)
                0x0000000000000220                __vector_offset_171 = DEFINED (__vector_dispatch_171)?(. - _ebase_address):__vector_offset_default
 *(.vector_171)
                0x000000009d000220                . = ALIGN (0x4)
                0x0000000000000220                __vector_offset_172 = DEFINED (__vector_dispatch_172)?(. - _ebase_address):__vector_offset_default
 *(.vector_172)
                0x000000009d000220                . = ALIGN (0x4)
                0x0000000000000220                __vector_offset_173 = DEFINED (__vector_dispatch_173)?(. - _ebase_address):__vector_offset_default
 *(.vector_173)
                0x000000009d000220                . = ALIGN (0x4)
                0x0000000000000220                __vector_offset_174 = DEFINED (__vector_dispatch_174)?(. - _ebase_address):__vector_offset_default
 *(.vector_174)
                0x000000009d000220                . = ALIGN (0x4)
                0x0000000000000220                __vector_offset_175 = DEFINED (__vector_dispatch_175)?(. - _ebase_address):__vector_offset_default
 *(.vector_175)
                0x000000009d000220                . = ALIGN (0x4)
                0x0000000000000220                __vector_offset_176 = DEFINED (__vector_dispatch_176)?(. - _ebase_address):__vector_offset_default
 *(.vector_176)
                0x000000009d000220                . = ALIGN (0x4)
                0x0000000000000220                __vector_offset_177 = DEFINED (__vector_dispatch_177)?(. - _ebase_address):__vector_offset_default
 *(.vector_177)
                0x000000009d000220                . = ALIGN (0x4)
                0x0000000000000220                __vector_offset_178 = DEFINED (__vector_dispatch_178)?(. - _ebase_address):__vector_offset_default
 *(.vector_178)
                0x000000009d000220                . = ALIGN (0x4)
                0x0000000000000220                __vector_offset_179 = DEFINED (__vector_dispatch_179)?(. - _ebase_address):__vector_offset_default
 *(.vector_179)
                0x000000009d000220                . = ALIGN (0x4)
                0x0000000000000220                __vector_offset_180 = DEFINED (__vector_dispatch_180)?(. - _ebase_address):__vector_offset_default
 *(.vector_180)
                0x000000009d000220                . = ALIGN (0x4)
                0x0000000000000220                __vector_offset_181 = DEFINED (__vector_dispatch_181)?(. - _ebase_address):__vector_offset_default
 *(.vector_181)
                0x000000009d000220                . = ALIGN (0x4)
                0x0000000000000220                __vector_offset_182 = DEFINED (__vector_dispatch_182)?(. - _ebase_address):__vector_offset_default
 *(.vector_182)
                0x000000009d000220                . = ALIGN (0x4)
                0x0000000000000220                __vector_offset_183 = DEFINED (__vector_dispatch_183)?(. - _ebase_address):__vector_offset_default
 *(.vector_183)
                0x000000009d000220                . = ALIGN (0x4)
                0x0000000000000220                __vector_offset_184 = DEFINED (__vector_dispatch_184)?(. - _ebase_address):__vector_offset_default
 *(.vector_184)
                0x000000009d000220                . = ALIGN (0x4)
                0x0000000000000220                __vector_offset_185 = DEFINED (__vector_dispatch_185)?(. - _ebase_address):__vector_offset_default
 *(.vector_185)
                0x000000009d000220                . = ALIGN (0x4)
                0x0000000000000220                __vector_offset_186 = DEFINED (__vector_dispatch_186)?(. - _ebase_address):__vector_offset_default
 *(.vector_186)
                0x000000009d000220                . = ALIGN (0x4)
                0x0000000000000220                __vector_offset_187 = DEFINED (__vector_dispatch_187)?(. - _ebase_address):__vector_offset_default
 *(.vector_187)
                0x000000009d000220                . = ALIGN (0x4)
                0x0000000000000220                __vector_offset_188 = DEFINED (__vector_dispatch_188)?(. - _ebase_address):__vector_offset_default
 *(.vector_188)
                0x000000009d000220                . = ALIGN (0x4)
                0x0000000000000220                __vector_offset_189 = DEFINED (__vector_dispatch_189)?(. - _ebase_address):__vector_offset_default
 *(.vector_189)
                0x000000009d000220                . = ALIGN (0x4)
                0x0000000000000220                __vector_offset_190 = DEFINED (__vector_dispatch_190)?(. - _ebase_address):__vector_offset_default
 *(.vector_190)
                0x000000009d000220                . = ALIGN (0x4)
                0x0000000000000220                __vector_offset_191 = DEFINED (__vector_dispatch_191)?(. - _ebase_address):__vector_offset_default
 *(.vector_191)
                0x000000009d000220                . = ALIGN (0x4)
                0x0000000000000220                __vector_offset_192 = DEFINED (__vector_dispatch_192)?(. - _ebase_address):__vector_offset_default
 *(.vector_192)
                0x000000009d000220                . = ALIGN (0x4)
                0x0000000000000220                __vector_offset_193 = DEFINED (__vector_dispatch_193)?(. - _ebase_address):__vector_offset_default
 *(.vector_193)
                0x000000009d000220                . = ALIGN (0x4)
                0x0000000000000220                __vector_offset_194 = DEFINED (__vector_dispatch_194)?(. - _ebase_address):__vector_offset_default
 *(.vector_194)
                0x000000009d000220                . = ALIGN (0x4)
                0x0000000000000220                __vector_offset_195 = DEFINED (__vector_dispatch_195)?(. - _ebase_address):__vector_offset_default
 *(.vector_195)
                0x000000009d000220                . = ALIGN (0x4)
                0x0000000000000220                __vector_offset_196 = DEFINED (__vector_dispatch_196)?(. - _ebase_address):__vector_offset_default
 *(.vector_196)
                0x000000009d000220                . = ALIGN (0x4)
                0x0000000000000220                __vector_offset_197 = DEFINED (__vector_dispatch_197)?(. - _ebase_address):__vector_offset_default
 *(.vector_197)
                0x000000009d000220                . = ALIGN (0x4)
                0x0000000000000220                __vector_offset_198 = DEFINED (__vector_dispatch_198)?(. - _ebase_address):__vector_offset_default
 *(.vector_198)
                0x000000009d000220                . = ALIGN (0x4)
                0x0000000000000220                __vector_offset_199 = DEFINED (__vector_dispatch_199)?(. - _ebase_address):__vector_offset_default
 *(.vector_199)
                0x000000009d000220                . = ALIGN (0x4)
                0x0000000000000220                __vector_offset_200 = DEFINED (__vector_dispatch_200)?(. - _ebase_address):__vector_offset_default
 *(.vector_200)
                0x000000009d000220                . = ALIGN (0x4)
                0x0000000000000220                __vector_offset_201 = DEFINED (__vector_dispatch_201)?(. - _ebase_address):__vector_offset_default
 *(.vector_201)
                0x000000009d000220                . = ALIGN (0x4)
                0x0000000000000220                __vector_offset_202 = DEFINED (__vector_dispatch_202)?(. - _ebase_address):__vector_offset_default
 *(.vector_202)
                0x000000009d000220                . = ALIGN (0x4)
                0x0000000000000220                __vector_offset_203 = DEFINED (__vector_dispatch_203)?(. - _ebase_address):__vector_offset_default
 *(.vector_203)
                0x000000009d000220                . = ALIGN (0x4)
                0x0000000000000220                __vector_offset_204 = DEFINED (__vector_dispatch_204)?(. - _ebase_address):__vector_offset_default
 *(.vector_204)
                0x000000009d000220                . = ALIGN (0x4)
                0x0000000000000220                __vector_offset_205 = DEFINED (__vector_dispatch_205)?(. - _ebase_address):__vector_offset_default
 *(.vector_205)
                0x000000009d000220                . = ALIGN (0x4)
                0x0000000000000220                __vector_offset_206 = DEFINED (__vector_dispatch_206)?(. - _ebase_address):__vector_offset_default
 *(.vector_206)
                0x000000009d000220                . = ALIGN (0x4)
                0x0000000000000220                __vector_offset_207 = DEFINED (__vector_dispatch_207)?(. - _ebase_address):__vector_offset_default
 *(.vector_207)
                0x000000009d000220                . = ALIGN (0x4)
                0x0000000000000220                __vector_offset_208 = DEFINED (__vector_dispatch_208)?(. - _ebase_address):__vector_offset_default
 *(.vector_208)
                0x000000009d000220                . = ALIGN (0x4)
                0x0000000000000220                __vector_offset_209 = DEFINED (__vector_dispatch_209)?(. - _ebase_address):__vector_offset_default
 *(.vector_209)
                0x000000009d000220                . = ALIGN (0x4)
                0x0000000000000220                __vector_offset_210 = DEFINED (__vector_dispatch_210)?(. - _ebase_address):__vector_offset_default
 *(.vector_210)
                0x000000009d000220                . = ALIGN (0x4)
                0x0000000000000220                __vector_offset_211 = DEFINED (__vector_dispatch_211)?(. - _ebase_address):__vector_offset_default
 *(.vector_211)
                0x000000009d000220                . = ALIGN (0x4)
                0x0000000000000220                __vector_offset_212 = DEFINED (__vector_dispatch_212)?(. - _ebase_address):__vector_offset_default
 *(.vector_212)
                0x000000009d000220                . = ALIGN (0x4)
                0x0000000000000220                __vector_offset_213 = DEFINED (__vector_dispatch_213)?(. - _ebase_address):__vector_offset_default
 *(.vector_213)
                0x000000009d000220                . = ALIGN (0x4)
                0x0000000000000220                __vector_offset_214 = DEFINED (__vector_dispatch_214)?(. - _ebase_address):__vector_offset_default
 *(.vector_214)
                0x000000009d000220                . = ALIGN (0x4)
                0x0000000000000220                __vector_offset_215 = DEFINED (__vector_dispatch_215)?(. - _ebase_address):__vector_offset_default
 *(.vector_215)
                0x000000009d000220                . = ALIGN (0x4)
                0x0000000000000220                __vector_offset_216 = DEFINED (__vector_dispatch_216)?(. - _ebase_address):__vector_offset_default
 *(.vector_216)
                0x000000009d000220                . = ALIGN (0x4)
                0x0000000000000220                __vector_offset_217 = DEFINED (__vector_dispatch_217)?(. - _ebase_address):__vector_offset_default
 *(.vector_217)
                0x000000009d000220                . = ALIGN (0x4)
                0x0000000000000220                __vector_offset_218 = DEFINED (__vector_dispatch_218)?(. - _ebase_address):__vector_offset_default
 *(.vector_218)
                0x000000009d000220                . = ALIGN (0x4)
                0x0000000000000220                __vector_offset_219 = DEFINED (__vector_dispatch_219)?(. - _ebase_address):__vector_offset_default
 *(.vector_219)
                0x000000009d000220                . = ALIGN (0x4)
                0x0000000000000220                __vector_offset_220 = DEFINED (__vector_dispatch_220)?(. - _ebase_address):__vector_offset_default
 *(.vector_220)
                0x000000009d000220                . = ALIGN (0x4)
                0x0000000000000220                __vector_offset_221 = DEFINED (__vector_dispatch_221)?(. - _ebase_address):__vector_offset_default
 *(.vector_221)
                0x000000009d000220                . = ALIGN (0x4)
                0x0000000000000220                __vector_offset_222 = DEFINED (__vector_dispatch_222)?(. - _ebase_address):__vector_offset_default
 *(.vector_222)
                0x000000009d000220                . = ALIGN (0x4)
                0x0000000000000220                __vector_offset_223 = DEFINED (__vector_dispatch_223)?(. - _ebase_address):__vector_offset_default
 *(.vector_223)
                0x000000009d000220                . = ALIGN (0x4)
                0x0000000000000220                __vector_offset_224 = DEFINED (__vector_dispatch_224)?(. - _ebase_address):__vector_offset_default
 *(.vector_224)
                0x000000009d000220                . = ALIGN (0x4)
                0x0000000000000220                __vector_offset_225 = DEFINED (__vector_dispatch_225)?(. - _ebase_address):__vector_offset_default
 *(.vector_225)
                0x000000009d000220                . = ALIGN (0x4)
                0x0000000000000220                __vector_offset_226 = DEFINED (__vector_dispatch_226)?(. - _ebase_address):__vector_offset_default
 *(.vector_226)
                0x000000009d000220                . = ALIGN (0x4)
                0x0000000000000220                __vector_offset_227 = DEFINED (__vector_dispatch_227)?(. - _ebase_address):__vector_offset_default
 *(.vector_227)
                0x000000009d000220                . = ALIGN (0x4)
                0x0000000000000220                __vector_offset_228 = DEFINED (__vector_dispatch_228)?(. - _ebase_address):__vector_offset_default
 *(.vector_228)
                0x000000009d000220                . = ALIGN (0x4)
                0x0000000000000220                __vector_offset_229 = DEFINED (__vector_dispatch_229)?(. - _ebase_address):__vector_offset_default
 *(.vector_229)
                0x000000009d000220                . = ALIGN (0x4)
                0x0000000000000220                __vector_offset_230 = DEFINED (__vector_dispatch_230)?(. - _ebase_address):__vector_offset_default
 *(.vector_230)
                0x000000009d000220                . = ALIGN (0x4)
                0x0000000000000220                __vector_offset_231 = DEFINED (__vector_dispatch_231)?(. - _ebase_address):__vector_offset_default
 *(.vector_231)
                0x000000009d000220                . = ALIGN (0x4)
                0x0000000000000220                __vector_offset_232 = DEFINED (__vector_dispatch_232)?(. - _ebase_address):__vector_offset_default
 *(.vector_232)
                0x000000009d000220                . = ALIGN (0x4)
                0x0000000000000220                __vector_offset_233 = DEFINED (__vector_dispatch_233)?(. - _ebase_address):__vector_offset_default
 *(.vector_233)
                0x000000009d000220                . = ALIGN (0x4)
                0x0000000000000220                __vector_offset_234 = DEFINED (__vector_dispatch_234)?(. - _ebase_address):__vector_offset_default
 *(.vector_234)
                0x000000009d000220                . = ALIGN (0x4)
                0x0000000000000220                __vector_offset_235 = DEFINED (__vector_dispatch_235)?(. - _ebase_address):__vector_offset_default
 *(.vector_235)
                0x000000009d000220                . = ALIGN (0x4)
                0x0000000000000220                __vector_offset_236 = DEFINED (__vector_dispatch_236)?(. - _ebase_address):__vector_offset_default
 *(.vector_236)
                0x000000009d000220                . = ALIGN (0x4)
                0x0000000000000220                __vector_offset_237 = DEFINED (__vector_dispatch_237)?(. - _ebase_address):__vector_offset_default
 *(.vector_237)
                0x000000009d000220                . = ALIGN (0x4)
                0x0000000000000220                __vector_offset_238 = DEFINED (__vector_dispatch_238)?(. - _ebase_address):__vector_offset_default
 *(.vector_238)
                0x000000009d000220                . = ALIGN (0x4)
                0x0000000000000220                __vector_offset_239 = DEFINED (__vector_dispatch_239)?(. - _ebase_address):__vector_offset_default
 *(.vector_239)
                0x000000009d000220                . = ALIGN (0x4)
                0x0000000000000220                __vector_offset_240 = DEFINED (__vector_dispatch_240)?(. - _ebase_address):__vector_offset_default
 *(.vector_240)
                0x000000009d000220                . = ALIGN (0x4)
                0x0000000000000220                __vector_offset_241 = DEFINED (__vector_dispatch_241)?(. - _ebase_address):__vector_offset_default
 *(.vector_241)
                0x000000009d000220                . = ALIGN (0x4)
                0x0000000000000220                __vector_offset_242 = DEFINED (__vector_dispatch_242)?(. - _ebase_address):__vector_offset_default
 *(.vector_242)
                0x000000009d000220                . = ALIGN (0x4)
                0x0000000000000220                __vector_offset_243 = DEFINED (__vector_dispatch_243)?(. - _ebase_address):__vector_offset_default
 *(.vector_243)
                0x000000009d000220                . = ALIGN (0x4)
                0x0000000000000220                __vector_offset_244 = DEFINED (__vector_dispatch_244)?(. - _ebase_address):__vector_offset_default
 *(.vector_244)
                0x000000009d000220                . = ALIGN (0x4)
                0x0000000000000220                __vector_offset_245 = DEFINED (__vector_dispatch_245)?(. - _ebase_address):__vector_offset_default
 *(.vector_245)
                0x000000009d000220                . = ALIGN (0x4)
                0x0000000000000220                __vector_offset_246 = DEFINED (__vector_dispatch_246)?(. - _ebase_address):__vector_offset_default
 *(.vector_246)
                0x000000009d000220                . = ALIGN (0x4)
                0x0000000000000220                __vector_offset_247 = DEFINED (__vector_dispatch_247)?(. - _ebase_address):__vector_offset_default
 *(.vector_247)
                0x000000009d000220                . = ALIGN (0x4)
                0x0000000000000220                __vector_offset_248 = DEFINED (__vector_dispatch_248)?(. - _ebase_address):__vector_offset_default
 *(.vector_248)
                0x000000009d000220                . = ALIGN (0x4)
                0x0000000000000220                __vector_offset_249 = DEFINED (__vector_dispatch_249)?(. - _ebase_address):__vector_offset_default
 *(.vector_249)
                0x000000009d000220                . = ALIGN (0x4)
                0x0000000000000220                __vector_offset_250 = DEFINED (__vector_dispatch_250)?(. - _ebase_address):__vector_offset_default
 *(.vector_250)
                0x000000009d000220                . = ALIGN (0x4)
                0x0000000000000220                __vector_offset_251 = DEFINED (__vector_dispatch_251)?(. - _ebase_address):__vector_offset_default
 *(.vector_251)
                0x000000009d000220                . = ALIGN (0x4)
                0x0000000000000220                __vector_offset_252 = DEFINED (__vector_dispatch_252)?(. - _ebase_address):__vector_offset_default
 *(.vector_252)
                0x000000009d000220                . = ALIGN (0x4)
                0x0000000000000220                __vector_offset_253 = DEFINED (__vector_dispatch_253)?(. - _ebase_address):__vector_offset_default
 *(.vector_253)
                0x000000009d000220                . = ALIGN (0x4)
                0x0000000000000220                __vector_offset_254 = DEFINED (__vector_dispatch_254)?(. - _ebase_address):__vector_offset_default
 *(.vector_254)
                0x000000009d000220                . = ALIGN (0x4)
                0x0000000000000220                __vector_offset_255 = DEFINED (__vector_dispatch_255)?(. - _ebase_address):__vector_offset_default
 *(.vector_255)
                0x000000009d000220                . = ALIGN (0x4)
                0x0000000000000220                __vector_offset_default = (. - _ebase_address)
 *(.vector_default)
 .vector_default
                0x000000009d000220       0x48 c:/program files/microchip/xc32/v4.00/bin/bin/../../lib/gcc/pic32mx/8.3.1/../../../../pic32mx/lib/fpu64\libpic32.a(defaultinterrupt.o)
                0x000000009d000220                _DefaultInterrupt

.startup
 *(.startup)

.text           0x000000009d000268        0x0
 *(.stub .gnu.linkonce.t.*)
 *(.text.*personality*)
 *(.mips16.fn.*)
 *(.mips16.call.*)
 *(.gnu.warning)
                0x000000009d000268                . = ALIGN (0x4)

.init           0x000000009d000268        0x0
 *crti.o(.init)
 *crtbegin.o(.init)
 *(EXCLUDE_FILE(*crtn.o *crtend?.o *crtend.o) .init)
 *crtend.o(.init)
 *crtn.o(.init)
                0x000000009d000268                . = ALIGN (0x4)

.fini           0x000000009d000268        0x0
 *(.fini)
                0x000000009d000268                . = ALIGN (0x4)

.preinit_array  0x000000009d000268        0x0
                [!provide]                        PROVIDE (__preinit_array_start = .)
 *(.preinit_array)
                [!provide]                        PROVIDE (__preinit_array_end = .)
                0x000000009d000268                . = ALIGN (0x4)

.init_array     0x000000009d000268        0x0
                [!provide]                        PROVIDE (__init_array_start = .)
 *(SORT_BY_NAME(.init_array.*))
 *(.init_array)
                [!provide]                        PROVIDE (__init_array_end = .)
                0x000000009d000268                . = ALIGN (0x4)

.fini_array     0x000000009d000268        0x0
                [!provide]                        PROVIDE (__fini_array_start = .)
 *(SORT_BY_NAME(.fini_array.*))
 *(.fini_array)
                [!provide]                        PROVIDE (__fini_array_end = .)
                0x000000009d000268                . = ALIGN (0x4)

.ctors          0x000000009d000268        0x0
 *crtbegin.o(.ctors)
 *crtbegin?.o(.ctors)
 *(EXCLUDE_FILE(*crtend?.o *crtend.o) .ctors)
 *(SORT_BY_NAME(.ctors.*))
 *(.ctors)
                0x000000009d000268                . = ALIGN (0x4)

.dtors          0x000000009d000268        0x0
 *crtbegin.o(.dtors)
 *crtbegin?.o(.dtors)
 *(EXCLUDE_FILE(*crtend?.o *crtend.o) .dtors)
 *(SORT_BY_NAME(.dtors.*))
 *(.dtors)
                0x000000009d000268                . = ALIGN (0x4)

.rodata         0x000000009d000268        0x0
 *(.gnu.linkonce.r.*)
 *(.rodata1)
                0x000000009d000268                . = ALIGN (0x4)

.sdata2         0x000000009d000268        0x0
 *(.sdata2 .sdata2.* .gnu.linkonce.s2.*)
                0x000000009d000268                . = ALIGN (0x4)

.sbss2          0x000000009d000268        0x0
 *(.sbss2 .sbss2.* .gnu.linkonce.sb2.*)
                0x000000009d000268                . = ALIGN (0x4)

.eh_frame_hdr
 *(.eh_frame_hdr)
                0x000000009d000268                . = ALIGN (0x4)

.eh_frame
 *(.eh_frame)
                0x000000009d000268                . = ALIGN (0x4)

.gcc_except_table
 *(.gcc_except_table .gcc_except_table.*)
                0x000000009d000268                . = ALIGN (0x4)

.dbg_data       0x0000000080000380        0x0
                0x0000000080000380                . = (. + DEFINED (_DEBUGGER)?0x200:0x0)
                0x0000000080000380                . = (. + DEFINED (_DEBUGGER)?0x80:0x0)
                0x0000000080000380                . = (. + DEFINED (_DEBUGGER)?0x100:0x0)

.jcr            0x0000000080000380        0x0
 *(.jcr)
                0x0000000080000380                . = ALIGN (0x4)

.eh_frame
 *(.eh_frame)
                0x0000000080000380                . = ALIGN (0x4)

.gcc_except_table
 *(.gcc_except_table .gcc_except_table.*)
                0x0000000080000380                . = ALIGN (0x4)

.persist        0x0000000080000380        0x0
                0x0000000080000380                _persist_begin = .
 *(.persist .persist.*)
                0x0000000080000380                . = ALIGN (0x4)
                0x0000000080000380                _persist_end = .

.data           0x0000000080000380        0x0
 *(.gnu.linkonce.d.*)
 *(.data1)
                0x0000000080000380                . = ALIGN (0x4)
                0x0000000080000380                . = .
                0x0000000080008370                _gp = (ALIGN (0x10) + 0x7ff0)

.got            0x0000000080000380        0x0
 *(.got.plt)
 *(.got)
                0x0000000080000380                . = ALIGN (0x4)

.sdata          0x0000000080000380       0x94
                0x0000000080000380                _sdata_begin = .
 *(.sdata .sdata.* .gnu.linkonce.s.*)
 .sdata         0x0000000080000380       0x48 build/DSP_TU2/debug/_ext/1360937237/main.o
                0x0000000080000380                Shift
                0x0000000080000384                UseAgc
                0x0000000080000388                UseInputBpf
                0x000000008000038c                AudioOut
                0x0000000080000390                MarkHoldThresh
                0x0000000080000398                InputBpfQ
                0x00000000800003a0                InputBpfF
                0x00000000800003a8                LpfF
                0x00000000800003b0                BpfQ
                0x00000000800003b8                SpaceFreq
                0x00000000800003c0                MarkFreq
 .sdata         0x00000000800003c8       0x20 build/DSP_TU2/debug/_ext/1360937237/agc.o
                0x00000000800003c8                AgcLpfF
                0x00000000800003d0                TargetLevel
                0x00000000800003d8                MaxGain
                0x00000000800003e0                gain
 .sdata         0x00000000800003e8        0x1 build/DSP_TU2/debug/_ext/1360937237/display.o
                0x00000000800003e8                ColorHi
 *fill*         0x00000000800003e9        0x1 
 .sdata         0x00000000800003ea        0x2 build/DSP_TU2/debug/_ext/1360937237/xyScope.o
 .sdata         0x00000000800003ec        0x1 build/DSP_TU2/debug/_ext/1360937237/PollEncoder.o
 *fill*         0x00000000800003ed        0x3 
 .sdata         0x00000000800003f0       0x24 c:/program files/microchip/xc32/v4.00/bin/bin/../../lib/gcc/pic32mx/8.3.1/../../../../pic32mx/lib/fpu64\libpic32.a(pic32_init_cache.o)
                0x00000000800003f0                __pic32_icache_size
                0x00000000800003f4                __pic32_icache_linesize
                0x00000000800003f8                __pic32_icache_ways
                0x00000000800003fc                __pic32_dcache_size
                0x0000000080000400                __pic32_dcache_linesize
                0x0000000080000404                __pic32_dcache_ways
                0x0000000080000408                __pic32_scache_size
                0x000000008000040c                __pic32_scache_linesize
                0x0000000080000410                __pic32_scache_ways
                0x0000000080000414                . = ALIGN (0x4)
                0x0000000080000414                _sdata_end = .

.lit8
 *(.lit8)

.lit4
 *(.lit4)
                0x0000000080000414                . = ALIGN (0x4)
                0x0000000080000414                _data_end = .
                0x0000000080000414                _bss_begin = .

.sbss           0x0000000080000414       0xc8
                0x0000000080000414                _sbss_begin = .
 *(.dynsbss)
 *(.sbss .sbss.* .gnu.linkonce.sb.*)
 .sbss          0x0000000080000414        0x8 build/DSP_TU2/debug/_ext/255081301/plib_tmr2.o
 .sbss          0x000000008000041c        0xc build/DSP_TU2/debug/_ext/1360937237/main.o
                0x000000008000041c                DebugCounter
                0x0000000080000420                UseLimiter
                0x0000000080000424                FpPollCounter
                0x0000000080000426                Timer2TimeoutCounter
 .sbss          0x0000000080000428       0x14 build/DSP_TU2/debug/_ext/1360937237/BaudotUart.o
                0x0000000080000434                BadStopBitCount
                0x0000000080000438                CharCount
 *fill*         0x000000008000043c        0x4 
 .sbss          0x0000000080000440       0x1c build/DSP_TU2/debug/_ext/1360937237/DynamicThreshold.o
 *fill*         0x000000008000045c        0x4 
 .sbss          0x0000000080000460       0x10 build/DSP_TU2/debug/_ext/1360937237/dds.o
 .sbss          0x0000000080000470        0x8 build/DSP_TU2/debug/_ext/1360937237/display.o
                0x0000000080000470                ColorLo
 .sbss          0x0000000080000478        0x2 build/DSP_TU2/debug/_ext/1360937237/xyScope.o
 *fill*         0x000000008000047a        0x2 
 .sbss          0x000000008000047c        0x4 build/DSP_TU2/debug/_ext/1360937237/PollEncoder.o
                0x000000008000047c                EncoderCount
 *(.scommon)
 .scommon       0x0000000080000480       0x50 build/DSP_TU2/debug/_ext/1360937237/main.o
                0x0000000080000480                samplef
                0x0000000080000488                Threshold
                0x0000000080000490                DiscrimOut
                0x0000000080000498                SpaceSample
                0x00000000800004a0                SpaceDemodOut
                0x00000000800004a8                MarkSample
                0x00000000800004b0                MarkDemodOut
                0x00000000800004b8                AdcSample
                0x00000000800004c0                DdsOut
                0x00000000800004c8                TestSamplef
 .scommon       0x00000000800004d0        0x4 build/DSP_TU2/debug/_ext/1360937237/DynamicThreshold.o
                0x00000000800004d0                DynamicThresholdLpf
 .scommon       0x00000000800004d4        0x4 build/DSP_TU2/debug/_ext/1360937237/agc.o
                0x00000000800004d4                AgcLpf
 .scommon       0x00000000800004d8        0x1 build/DSP_TU2/debug/_ext/1360937237/PollSwitchesLeds.o
                0x00000000800004d8                Switches
                0x00000000800004d9                _sbss_end = .
                0x00000000800004dc                . = ALIGN (0x4)
 *fill*         0x00000000800004d9        0x3 

.bss            0x00000000800004dc       0xa8
 *(.dynbss)
 *(COMMON)
 COMMON         0x00000000800004dc       0x44 build/DSP_TU2/debug/_ext/682395886/plib_uart2.o
                0x00000000800004dc                uart2Obj
 COMMON         0x0000000080000520       0x64 build/DSP_TU2/debug/_ext/1360937237/main.o
                0x0000000080000520                StringBuf
                0x0000000080000584                . = ALIGN ((. != 0x0)?0x4:0x1)
                0x0000000080000584                . = ALIGN (0x4)
                0x0000000080000584                _end = .
                0x0000000080000584                _bss_end = .
                0x0000000000020000                _bmxdudba_address = LENGTH (kseg0_data_mem)
                0x0000000000020000                _bmxdupba_address = LENGTH (kseg0_data_mem)

/DISCARD/
 *(.pdr)
 *(.rel.dyn)
 *(.note.GNU-stack)
 *(.note.GNU-stack)
 *(.gnu_debuglink)
 *(.gnu.lto_*)
 *(.discard)

.gptab.sdata
 *(.gptab.data)
 *(.gptab.sdata)

.gptab.sbss
 *(.gptab.bss)
 *(.gptab.sbss)

.mdebug.abi32   0x0000000000000000        0x0
 *(.mdebug.abi32)
 .mdebug.abi32  0x0000000000000000        0x0 c:/program files/microchip/xc32/v4.00/bin/bin/../../lib/gcc/pic32mx/8.3.1/../../../../pic32mx/lib/fpu64\software-debug-break.o
 .mdebug.abi32  0x0000000000000000        0x0 build/DSP_TU2/debug/_ext/302168295/plib_adchs.o
 .mdebug.abi32  0x0000000000000000        0x0 build/DSP_TU2/debug/_ext/255064926/plib_clk.o
 .mdebug.abi32  0x0000000000000000        0x0 build/DSP_TU2/debug/_ext/682852657/plib_evic.o
 .mdebug.abi32  0x0000000000000000        0x0 build/DSP_TU2/debug/_ext/682798829/plib_gpio.o
 .mdebug.abi32  0x0000000000000000        0x0 build/DSP_TU2/debug/_ext/682572869/plib_ocmp1.o
 .mdebug.abi32  0x0000000000000000        0x0 build/DSP_TU2/debug/_ext/957679836/plib_spi1_master.o
 .mdebug.abi32  0x0000000000000000        0x0 build/DSP_TU2/debug/_ext/957679836/plib_spi3_master.o
 .mdebug.abi32  0x0000000000000000        0x0 build/DSP_TU2/debug/_ext/957679836/plib_spi2_master.o
 .mdebug.abi32  0x0000000000000000        0x0 build/DSP_TU2/debug/_ext/255081301/plib_tmr2.o
 .mdebug.abi32  0x0000000000000000        0x0 build/DSP_TU2/debug/_ext/682395886/plib_uart2.o
 .mdebug.abi32  0x0000000000000000        0x0 build/DSP_TU2/debug/_ext/775482278/xc32_monitor.o
 .mdebug.abi32  0x0000000000000000        0x0 build/DSP_TU2/debug/_ext/1994557280/initialization.o
 .mdebug.abi32  0x0000000000000000        0x0 build/DSP_TU2/debug/_ext/1994557280/interrupts.o
 .mdebug.abi32  0x0000000000000000        0x0 build/DSP_TU2/debug/_ext/1994557280/exceptions.o
 .mdebug.abi32  0x0000000000000000        0x0 build/DSP_TU2/debug/_ext/1360937237/main.o
 .mdebug.abi32  0x0000000000000000        0x0 build/DSP_TU2/debug/_ext/1360937237/AfskGen.o
 .mdebug.abi32  0x0000000000000000        0x0 build/DSP_TU2/debug/_ext/1360937237/BaudotUart.o
 .mdebug.abi32  0x0000000000000000        0x0 build/DSP_TU2/debug/_ext/1360937237/DynamicThreshold.o
 .mdebug.abi32  0x0000000000000000        0x0 build/DSP_TU2/debug/_ext/1360937237/PwmAudioOut.o
 .mdebug.abi32  0x0000000000000000        0x0 build/DSP_TU2/debug/_ext/1360937237/agc.o
 .mdebug.abi32  0x0000000000000000        0x0 build/DSP_TU2/debug/_ext/1360937237/biquad.o
 .mdebug.abi32  0x0000000000000000        0x0 build/DSP_TU2/debug/_ext/1360937237/dds.o
 .mdebug.abi32  0x0000000000000000        0x0 build/DSP_TU2/debug/_ext/1360937237/display.o
 .mdebug.abi32  0x0000000000000000        0x0 build/DSP_TU2/debug/_ext/1360937237/fifo16.o
 .mdebug.abi32  0x0000000000000000        0x0 build/DSP_TU2/debug/_ext/1360937237/xyScope.o
 .mdebug.abi32  0x0000000000000000        0x0 build/DSP_TU2/debug/_ext/1360937237/PollSwitchesLeds.o
 .mdebug.abi32  0x0000000000000000        0x0 build/DSP_TU2/debug/_ext/1360937237/PollEncoder.o
 .mdebug.abi32  0x0000000000000000        0x0 c:/program files/microchip/xc32/v4.00/bin/bin/../../lib/gcc/pic32mx/8.3.1/../../../../pic32mx/lib/fpu64\libpic32.a(default-on-reset.o)
 .mdebug.abi32  0x0000000000000000        0x0 c:/program files/microchip/xc32/v4.00/bin/bin/../../lib/gcc/pic32mx/8.3.1/../../../../pic32mx/lib/fpu64\libpic32.a(default-on-bootstrap.o)
 .mdebug.abi32  0x0000000000000000        0x0 c:/program files/microchip/xc32/v4.00/bin/bin/../../lib/gcc/pic32mx/8.3.1/../../../../pic32mx/lib/fpu64\libpic32.a(defaultinterrupt.o)
 .mdebug.abi32  0x0000000000000000        0x0 c:/program files/microchip/xc32/v4.00/bin/bin/../../lib/gcc/pic32mx/8.3.1/../../../../pic32mx/lib/fpu64\libc-musl.a(malloc.o)
 .mdebug.abi32  0x0000000000000000        0x0 c:/program files/microchip/xc32/v4.00/bin/bin/../../lib/gcc/pic32mx/8.3.1/../../../../pic32mx/lib/fpu64\libc-musl.a(expand_heap.o)
 .mdebug.abi32  0x0000000000000000        0x0 c:/program files/microchip/xc32/v4.00/bin/bin/../../lib/gcc/pic32mx/8.3.1/../../../../pic32mx/lib/fpu64\libc-musl.a(__sio_sprintf_doux.o)
 .mdebug.abi32  0x0000000000000000        0x0 c:/program files/microchip/xc32/v4.00/bin/bin/../../lib/gcc/pic32mx/8.3.1/../../../../pic32mx/lib/fpu64\libc-musl.a(__fmt_d.o)
 .mdebug.abi32  0x0000000000000000        0x0 c:/program files/microchip/xc32/v4.00/bin/bin/../../lib/gcc/pic32mx/8.3.1/../../../../pic32mx/lib/fpu64\libc-musl.a(__fmt_o.o)
 .mdebug.abi32  0x0000000000000000        0x0 c:/program files/microchip/xc32/v4.00/bin/bin/../../lib/gcc/pic32mx/8.3.1/../../../../pic32mx/lib/fpu64\libc-musl.a(__fmt_s.o)
 .mdebug.abi32  0x0000000000000000        0x0 c:/program files/microchip/xc32/v4.00/bin/bin/../../lib/gcc/pic32mx/8.3.1/../../../../pic32mx/lib/fpu64\libc-musl.a(__fmt_u.o)
 .mdebug.abi32  0x0000000000000000        0x0 c:/program files/microchip/xc32/v4.00/bin/bin/../../lib/gcc/pic32mx/8.3.1/../../../../pic32mx/lib/fpu64\libc-musl.a(__fmt_x.o)
 .mdebug.abi32  0x0000000000000000        0x0 c:/program files/microchip/xc32/v4.00/bin/bin/../../lib/gcc/pic32mx/8.3.1/../../../../pic32mx/lib/fpu64\libc-musl.a(__printf_core.o)
 .mdebug.abi32  0x0000000000000000        0x0 c:/program files/microchip/xc32/v4.00/bin/bin/../../lib/gcc/pic32mx/8.3.1/../../../../pic32mx/lib/fpu64\libc-musl.a(atoi.o)
 .mdebug.abi32  0x0000000000000000        0x0 c:/program files/microchip/xc32/v4.00/bin/bin/../../lib/gcc/pic32mx/8.3.1/../../../../pic32mx/lib/fpu64\libc-musl.a(memcpy.o)
 .mdebug.abi32  0x0000000000000000        0x0 c:/program files/microchip/xc32/v4.00/bin/bin/../../lib/gcc/pic32mx/8.3.1/../../../../pic32mx/lib/fpu64\libc-musl.a(memset.o)
 .mdebug.abi32  0x0000000000000000        0x0 c:/program files/microchip/xc32/v4.00/bin/bin/../../lib/gcc/pic32mx/8.3.1/../../../../pic32mx/lib/fpu64\libc-musl.a(tolower.o)
 .mdebug.abi32  0x0000000000000000        0x0 c:/program files/microchip/xc32/v4.00/bin/bin/../../lib/gcc/pic32mx/8.3.1/../../../../pic32mx/lib/fpu64\libc-musl.a(toupper.o)
 .mdebug.abi32  0x0000000000000000        0x0 c:/program files/microchip/xc32/v4.00/bin/bin/../../lib/gcc/pic32mx/8.3.1/../../../../pic32mx/lib/fpu64\libc-musl.a(libc.o)
 .mdebug.abi32  0x0000000000000000        0x0 c:/program files/microchip/xc32/v4.00/bin/bin/../../lib/gcc/pic32mx/8.3.1/../../../../pic32mx/lib/fpu64\libc-musl.a(__int_vsprintf.o)
 .mdebug.abi32  0x0000000000000000        0x0 c:/program files/microchip/xc32/v4.00/bin/bin/../../lib/gcc/pic32mx/8.3.1/../../../../pic32mx/lib/fpu64\libc-musl.a(__pop_float.o)
 .mdebug.abi32  0x0000000000000000        0x0 c:/program files/microchip/xc32/v4.00/bin/bin/../../lib/gcc/pic32mx/8.3.1/../../../../pic32mx/lib/fpu64\libc-musl.a(__pop_int.o)
 .mdebug.abi32  0x0000000000000000        0x0 c:/program files/microchip/xc32/v4.00/bin/bin/../../lib/gcc/pic32mx/8.3.1/../../../../pic32mx/lib/fpu64\libc-musl.a(__pop_ptr.o)
 .mdebug.abi32  0x0000000000000000        0x0 c:/program files/microchip/xc32/v4.00/bin/bin/../../lib/gcc/pic32mx/8.3.1/../../../../pic32mx/lib/fpu64\libc-musl.a(__int_vsnprintf.o)
 .mdebug.abi32  0x0000000000000000        0x0 c:/program files/microchip/xc32/v4.00/bin/bin/../../lib/gcc/pic32mx/8.3.1/../../../../pic32mx/lib/fpu64\libc-musl.a(__int_vfprintf.o)
 .mdebug.abi32  0x0000000000000000        0x0 c:/program files/microchip/xc32/v4.00/bin/bin/../../lib/gcc/pic32mx/8.3.1/../../../../pic32mx/lib/fpu64\libm-musl.a(cos.o)
 .mdebug.abi32  0x0000000000000000        0x0 c:/program files/microchip/xc32/v4.00/bin/bin/../../lib/gcc/pic32mx/8.3.1/../../../../pic32mx/lib/fpu64\libm-musl.a(pow.o)
 .mdebug.abi32  0x0000000000000000        0x0 c:/program files/microchip/xc32/v4.00/bin/bin/../../lib/gcc/pic32mx/8.3.1/../../../../pic32mx/lib/fpu64\libm-musl.a(scalbn.o)
 .mdebug.abi32  0x0000000000000000        0x0 c:/program files/microchip/xc32/v4.00/bin/bin/../../lib/gcc/pic32mx/8.3.1/../../../../pic32mx/lib/fpu64\libm-musl.a(sin.o)
 .mdebug.abi32  0x0000000000000000        0x0 c:/program files/microchip/xc32/v4.00/bin/bin/../../lib/gcc/pic32mx/8.3.1/../../../../pic32mx/lib/fpu64\libm-musl.a(sqrt.o)
 .mdebug.abi32  0x0000000000000000        0x0 c:/program files/microchip/xc32/v4.00/bin/bin/../../lib/gcc/pic32mx/8.3.1/../../../../pic32mx/lib/fpu64\libm-musl.a(__cos.o)
 .mdebug.abi32  0x0000000000000000        0x0 c:/program files/microchip/xc32/v4.00/bin/bin/../../lib/gcc/pic32mx/8.3.1/../../../../pic32mx/lib/fpu64\libm-musl.a(__rem_pio2.o)
 .mdebug.abi32  0x0000000000000000        0x0 c:/program files/microchip/xc32/v4.00/bin/bin/../../lib/gcc/pic32mx/8.3.1/../../../../pic32mx/lib/fpu64\libm-musl.a(__rem_pio2_large.o)
 .mdebug.abi32  0x0000000000000000        0x0 c:/program files/microchip/xc32/v4.00/bin/bin/../../lib/gcc/pic32mx/8.3.1/../../../../pic32mx/lib/fpu64\libm-musl.a(__sin.o)
 .mdebug.abi32  0x0000000000000000        0x0 c:/program files/microchip/xc32/v4.00/bin/bin/../../lib/gcc/pic32mx/8.3.1/../../../../pic32mx/lib/fpu64\libm-musl.a(fabs.o)
 .mdebug.abi32  0x0000000000000000        0x0 c:/program files/microchip/xc32/v4.00/bin/bin/../../lib/gcc/pic32mx/8.3.1/../../../../pic32mx/lib/fpu64\libm-musl.a(floor.o)
 .mdebug.abi32  0x0000000000000000        0x0 c:/program files/microchip/xc32/v4.00/bin/bin/../../lib/gcc/pic32mx/8.3.1/../../../../pic32mx/lib/fpu64\libpic32.a(sbrk.o)
 .mdebug.abi32  0x0000000000000000        0x0 c:/program files/microchip/xc32/v4.00/bin/bin/../../lib/gcc/pic32mx/8.3.1/../../../../pic32mx/lib/fpu64\libpic32.a(errno.o)
 .mdebug.abi32  0x0000000000000000        0x0 c:/program files/microchip/xc32/v4.00/bin/bin/../../lib/gcc/pic32mx/8.3.1/fpu64\libgcc.a(_lshrdi3.o)
 .mdebug.abi32  0x0000000000000000        0x0 c:/program files/microchip/xc32/v4.00/bin/bin/../../lib/gcc/pic32mx/8.3.1/fpu64\libgcc.a(_ashldi3.o)
 .mdebug.abi32  0x0000000000000000        0x0 c:/program files/microchip/xc32/v4.00/bin/bin/../../lib/gcc/pic32mx/8.3.1/fpu64\libgcc.a(_udivdi3.o)
 .mdebug.abi32  0x0000000000000000        0x0 c:/program files/microchip/xc32/v4.00/bin/bin/../../lib/gcc/pic32mx/8.3.1/fpu64\libgcc.a(_umoddi3.o)

.mdebug.abiN32
 *(.mdebug.abiN32)

.mdebug.abi64
 *(.mdebug.abi64)

.mdebug.abiO64
 *(.mdebug.abiO64)

.mdebug.eabi32
 *(.mdebug.eabi32)

.mdebug.eabi64
 *(.mdebug.eabi64)

.gcc_compiled_long32
 *(.gcc_compiled_long32)

.gcc_compiled_long64
 *(.gcc_compiled_long64)

.stab
 *(.stab)

.stabstr
 *(.stabstr)

.stab.excl
 *(.stab.excl)

.stab.exclstr
 *(.stab.exclstr)

.stab.index
 *(.stab.index)

.stab.indexstr
 *(.stab.indexstr)

.comment        0x0000000000000000       0xb7
 *(.comment)
 .comment       0x0000000000000000       0x53 c:/program files/microchip/xc32/v4.00/bin/bin/../../lib/gcc/pic32mx/8.3.1/../../../../pic32mx/lib/fpu64\software-debug-break.o
                                         0x54 (size before relaxing)
 .comment       0x0000000000000053       0x54 build/DSP_TU2/debug/_ext/302168295/plib_adchs.o
 .comment       0x0000000000000053       0x54 build/DSP_TU2/debug/_ext/255064926/plib_clk.o
 .comment       0x0000000000000053       0x54 build/DSP_TU2/debug/_ext/682852657/plib_evic.o
 .comment       0x0000000000000053       0x54 build/DSP_TU2/debug/_ext/682798829/plib_gpio.o
 .comment       0x0000000000000053       0x54 build/DSP_TU2/debug/_ext/682572869/plib_ocmp1.o
 .comment       0x0000000000000053       0x54 build/DSP_TU2/debug/_ext/957679836/plib_spi1_master.o
 .comment       0x0000000000000053       0x54 build/DSP_TU2/debug/_ext/957679836/plib_spi3_master.o
 .comment       0x0000000000000053       0x54 build/DSP_TU2/debug/_ext/957679836/plib_spi2_master.o
 .comment       0x0000000000000053       0x54 build/DSP_TU2/debug/_ext/255081301/plib_tmr2.o
 .comment       0x0000000000000053       0x54 build/DSP_TU2/debug/_ext/682395886/plib_uart2.o
 .comment       0x0000000000000053       0x54 build/DSP_TU2/debug/_ext/775482278/xc32_monitor.o
 .comment       0x0000000000000053       0x54 build/DSP_TU2/debug/_ext/1994557280/initialization.o
 .comment       0x0000000000000053       0x54 build/DSP_TU2/debug/_ext/1994557280/interrupts.o
 .comment       0x0000000000000053       0x54 build/DSP_TU2/debug/_ext/1994557280/exceptions.o
 .comment       0x0000000000000053       0x54 build/DSP_TU2/debug/_ext/1360937237/main.o
 .comment       0x0000000000000053       0x54 build/DSP_TU2/debug/_ext/1360937237/AfskGen.o
 .comment       0x0000000000000053       0x54 build/DSP_TU2/debug/_ext/1360937237/BaudotUart.o
 .comment       0x0000000000000053       0x54 build/DSP_TU2/debug/_ext/1360937237/DynamicThreshold.o
 .comment       0x0000000000000053       0x54 build/DSP_TU2/debug/_ext/1360937237/PwmAudioOut.o
 .comment       0x0000000000000053       0x54 build/DSP_TU2/debug/_ext/1360937237/agc.o
 .comment       0x0000000000000053       0x54 build/DSP_TU2/debug/_ext/1360937237/biquad.o
 .comment       0x0000000000000053       0x54 build/DSP_TU2/debug/_ext/1360937237/dds.o
 .comment       0x0000000000000053       0x54 build/DSP_TU2/debug/_ext/1360937237/display.o
 .comment       0x0000000000000053       0x54 build/DSP_TU2/debug/_ext/1360937237/fifo16.o
 .comment       0x0000000000000053       0x54 build/DSP_TU2/debug/_ext/1360937237/xyScope.o
 .comment       0x0000000000000053       0x54 build/DSP_TU2/debug/_ext/1360937237/PollSwitchesLeds.o
 .comment       0x0000000000000053       0x54 build/DSP_TU2/debug/_ext/1360937237/PollEncoder.o
 .comment       0x0000000000000053       0x19 c:/program files/microchip/xc32/v4.00/bin/bin/../../lib/gcc/pic32mx/8.3.1/../../../../pic32mx/lib/fpu64\libpic32.a(strlen.o)
                                         0x1a (size before relaxing)
 .comment       0x000000000000006c       0x54 c:/program files/microchip/xc32/v4.00/bin/bin/../../lib/gcc/pic32mx/8.3.1/../../../../pic32mx/lib/fpu64\libpic32.a(default-on-reset.o)
 .comment       0x000000000000006c       0x54 c:/program files/microchip/xc32/v4.00/bin/bin/../../lib/gcc/pic32mx/8.3.1/../../../../pic32mx/lib/fpu64\libpic32.a(default-on-bootstrap.o)
 .comment       0x000000000000006c       0x54 c:/program files/microchip/xc32/v4.00/bin/bin/../../lib/gcc/pic32mx/8.3.1/../../../../pic32mx/lib/fpu64\libpic32.a(defaultinterrupt.o)
 .comment       0x000000000000006c       0x54 c:/program files/microchip/xc32/v4.00/bin/bin/../../lib/gcc/pic32mx/8.3.1/../../../../pic32mx/lib/fpu64\libc-musl.a(malloc.o)
 .comment       0x000000000000006c       0x54 c:/program files/microchip/xc32/v4.00/bin/bin/../../lib/gcc/pic32mx/8.3.1/../../../../pic32mx/lib/fpu64\libc-musl.a(expand_heap.o)
 .comment       0x000000000000006c       0x54 c:/program files/microchip/xc32/v4.00/bin/bin/../../lib/gcc/pic32mx/8.3.1/../../../../pic32mx/lib/fpu64\libc-musl.a(__sio_sprintf_doux.o)
 .comment       0x000000000000006c       0x54 c:/program files/microchip/xc32/v4.00/bin/bin/../../lib/gcc/pic32mx/8.3.1/../../../../pic32mx/lib/fpu64\libc-musl.a(__fmt_d.o)
 .comment       0x000000000000006c       0x54 c:/program files/microchip/xc32/v4.00/bin/bin/../../lib/gcc/pic32mx/8.3.1/../../../../pic32mx/lib/fpu64\libc-musl.a(__fmt_o.o)
 .comment       0x000000000000006c       0x54 c:/program files/microchip/xc32/v4.00/bin/bin/../../lib/gcc/pic32mx/8.3.1/../../../../pic32mx/lib/fpu64\libc-musl.a(__fmt_s.o)
 .comment       0x000000000000006c       0x54 c:/program files/microchip/xc32/v4.00/bin/bin/../../lib/gcc/pic32mx/8.3.1/../../../../pic32mx/lib/fpu64\libc-musl.a(__fmt_u.o)
 .comment       0x000000000000006c       0x54 c:/program files/microchip/xc32/v4.00/bin/bin/../../lib/gcc/pic32mx/8.3.1/../../../../pic32mx/lib/fpu64\libc-musl.a(__fmt_x.o)
 .comment       0x000000000000006c       0x54 c:/program files/microchip/xc32/v4.00/bin/bin/../../lib/gcc/pic32mx/8.3.1/../../../../pic32mx/lib/fpu64\libc-musl.a(__printf_core.o)
 .comment       0x000000000000006c       0x54 c:/program files/microchip/xc32/v4.00/bin/bin/../../lib/gcc/pic32mx/8.3.1/../../../../pic32mx/lib/fpu64\libc-musl.a(atoi.o)
 .comment       0x000000000000006c       0x54 c:/program files/microchip/xc32/v4.00/bin/bin/../../lib/gcc/pic32mx/8.3.1/../../../../pic32mx/lib/fpu64\libc-musl.a(memcpy.o)
 .comment       0x000000000000006c       0x54 c:/program files/microchip/xc32/v4.00/bin/bin/../../lib/gcc/pic32mx/8.3.1/../../../../pic32mx/lib/fpu64\libc-musl.a(memset.o)
 .comment       0x000000000000006c       0x54 c:/program files/microchip/xc32/v4.00/bin/bin/../../lib/gcc/pic32mx/8.3.1/../../../../pic32mx/lib/fpu64\libc-musl.a(tolower.o)
 .comment       0x000000000000006c       0x54 c:/program files/microchip/xc32/v4.00/bin/bin/../../lib/gcc/pic32mx/8.3.1/../../../../pic32mx/lib/fpu64\libc-musl.a(toupper.o)
 .comment       0x000000000000006c       0x54 c:/program files/microchip/xc32/v4.00/bin/bin/../../lib/gcc/pic32mx/8.3.1/../../../../pic32mx/lib/fpu64\libc-musl.a(libc.o)
 .comment       0x000000000000006c       0x54 c:/program files/microchip/xc32/v4.00/bin/bin/../../lib/gcc/pic32mx/8.3.1/../../../../pic32mx/lib/fpu64\libc-musl.a(__int_vsprintf.o)
 .comment       0x000000000000006c       0x54 c:/program files/microchip/xc32/v4.00/bin/bin/../../lib/gcc/pic32mx/8.3.1/../../../../pic32mx/lib/fpu64\libc-musl.a(__pop_float.o)
 .comment       0x000000000000006c       0x54 c:/program files/microchip/xc32/v4.00/bin/bin/../../lib/gcc/pic32mx/8.3.1/../../../../pic32mx/lib/fpu64\libc-musl.a(__pop_int.o)
 .comment       0x000000000000006c       0x54 c:/program files/microchip/xc32/v4.00/bin/bin/../../lib/gcc/pic32mx/8.3.1/../../../../pic32mx/lib/fpu64\libc-musl.a(__pop_ptr.o)
 .comment       0x000000000000006c       0x54 c:/program files/microchip/xc32/v4.00/bin/bin/../../lib/gcc/pic32mx/8.3.1/../../../../pic32mx/lib/fpu64\libc-musl.a(__int_vsnprintf.o)
 .comment       0x000000000000006c       0x54 c:/program files/microchip/xc32/v4.00/bin/bin/../../lib/gcc/pic32mx/8.3.1/../../../../pic32mx/lib/fpu64\libc-musl.a(__int_vfprintf.o)
 .comment       0x000000000000006c       0x54 c:/program files/microchip/xc32/v4.00/bin/bin/../../lib/gcc/pic32mx/8.3.1/../../../../pic32mx/lib/fpu64\libm-musl.a(cos.o)
 .comment       0x000000000000006c       0x54 c:/program files/microchip/xc32/v4.00/bin/bin/../../lib/gcc/pic32mx/8.3.1/../../../../pic32mx/lib/fpu64\libm-musl.a(pow.o)
 .comment       0x000000000000006c       0x54 c:/program files/microchip/xc32/v4.00/bin/bin/../../lib/gcc/pic32mx/8.3.1/../../../../pic32mx/lib/fpu64\libm-musl.a(scalbn.o)
 .comment       0x000000000000006c       0x54 c:/program files/microchip/xc32/v4.00/bin/bin/../../lib/gcc/pic32mx/8.3.1/../../../../pic32mx/lib/fpu64\libm-musl.a(sin.o)
 .comment       0x000000000000006c       0x54 c:/program files/microchip/xc32/v4.00/bin/bin/../../lib/gcc/pic32mx/8.3.1/../../../../pic32mx/lib/fpu64\libm-musl.a(sqrt.o)
 .comment       0x000000000000006c       0x54 c:/program files/microchip/xc32/v4.00/bin/bin/../../lib/gcc/pic32mx/8.3.1/../../../../pic32mx/lib/fpu64\libm-musl.a(__cos.o)
 .comment       0x000000000000006c       0x54 c:/program files/microchip/xc32/v4.00/bin/bin/../../lib/gcc/pic32mx/8.3.1/../../../../pic32mx/lib/fpu64\libm-musl.a(__rem_pio2.o)
 .comment       0x000000000000006c       0x54 c:/program files/microchip/xc32/v4.00/bin/bin/../../lib/gcc/pic32mx/8.3.1/../../../../pic32mx/lib/fpu64\libm-musl.a(__rem_pio2_large.o)
 .comment       0x000000000000006c       0x54 c:/program files/microchip/xc32/v4.00/bin/bin/../../lib/gcc/pic32mx/8.3.1/../../../../pic32mx/lib/fpu64\libm-musl.a(__sin.o)
 .comment       0x000000000000006c       0x54 c:/program files/microchip/xc32/v4.00/bin/bin/../../lib/gcc/pic32mx/8.3.1/../../../../pic32mx/lib/fpu64\libm-musl.a(fabs.o)
 .comment       0x000000000000006c       0x54 c:/program files/microchip/xc32/v4.00/bin/bin/../../lib/gcc/pic32mx/8.3.1/../../../../pic32mx/lib/fpu64\libm-musl.a(floor.o)
 .comment       0x000000000000006c       0x4b c:/program files/microchip/xc32/v4.00/bin/bin/../../lib/gcc/pic32mx/8.3.1/../../../../pic32mx/lib/fpu64\libpic32.a(sbrk.o)
                                         0x9f (size before relaxing)
 .comment       0x00000000000000b7       0x54 c:/program files/microchip/xc32/v4.00/bin/bin/../../lib/gcc/pic32mx/8.3.1/../../../../pic32mx/lib/fpu64\libpic32.a(errno.o)
 .comment       0x00000000000000b7       0x54 c:/program files/microchip/xc32/v4.00/bin/bin/../../lib/gcc/pic32mx/8.3.1/fpu64\libgcc.a(_lshrdi3.o)
 .comment       0x00000000000000b7       0x54 c:/program files/microchip/xc32/v4.00/bin/bin/../../lib/gcc/pic32mx/8.3.1/fpu64\libgcc.a(_ashldi3.o)
 .comment       0x00000000000000b7       0x54 c:/program files/microchip/xc32/v4.00/bin/bin/../../lib/gcc/pic32mx/8.3.1/fpu64\libgcc.a(_udivdi3.o)
 .comment       0x00000000000000b7       0x54 c:/program files/microchip/xc32/v4.00/bin/bin/../../lib/gcc/pic32mx/8.3.1/fpu64\libgcc.a(_umoddi3.o)

.debug
 *.elf(.debug)
 *(.debug)

.line
 *.elf(.line)
 *(.line)

.debug_srcinfo
 *.elf(.debug_srcinfo)
 *(.debug_srcinfo)

.debug_sfnames
 *.elf(.debug_sfnames)
 *(.debug_sfnames)

.debug_aranges  0x0000000000000000      0xcf8
 *.elf(.debug_aranges)
 *(.debug_aranges)
 .debug_aranges
                0x0000000000000000       0x20 c:/program files/microchip/xc32/v4.00/bin/bin/../../lib/gcc/pic32mx/8.3.1/../../../../pic32mx/lib/fpu64\software-debug-break.o
 .debug_aranges
                0x0000000000000020       0x88 build/DSP_TU2/debug/_ext/302168295/plib_adchs.o
 .debug_aranges
                0x00000000000000a8       0x20 build/DSP_TU2/debug/_ext/255064926/plib_clk.o
 .debug_aranges
                0x00000000000000c8       0x68 build/DSP_TU2/debug/_ext/682852657/plib_evic.o
 .debug_aranges
                0x0000000000000130       0x60 build/DSP_TU2/debug/_ext/682798829/plib_gpio.o
 .debug_aranges
                0x0000000000000190       0x48 build/DSP_TU2/debug/_ext/682572869/plib_ocmp1.o
 .debug_aranges
                0x00000000000001d8       0x48 build/DSP_TU2/debug/_ext/957679836/plib_spi1_master.o
 .debug_aranges
                0x0000000000000220       0x48 build/DSP_TU2/debug/_ext/957679836/plib_spi3_master.o
 .debug_aranges
                0x0000000000000268       0x48 build/DSP_TU2/debug/_ext/957679836/plib_spi2_master.o
 .debug_aranges
                0x00000000000002b0       0x70 build/DSP_TU2/debug/_ext/255081301/plib_tmr2.o
 .debug_aranges
                0x0000000000000320       0xd8 build/DSP_TU2/debug/_ext/682395886/plib_uart2.o
 .debug_aranges
                0x00000000000003f8       0x28 build/DSP_TU2/debug/_ext/775482278/xc32_monitor.o
 .debug_aranges
                0x0000000000000420       0x20 build/DSP_TU2/debug/_ext/1994557280/initialization.o
 .debug_aranges
                0x0000000000000440       0x38 build/DSP_TU2/debug/_ext/1994557280/interrupts.o
 .debug_aranges
                0x0000000000000478       0x38 build/DSP_TU2/debug/_ext/1994557280/exceptions.o
 .debug_aranges
                0x00000000000004b0       0x28 build/DSP_TU2/debug/_ext/1360937237/main.o
 .debug_aranges
                0x00000000000004d8       0x28 build/DSP_TU2/debug/_ext/1360937237/AfskGen.o
 .debug_aranges
                0x0000000000000500       0x20 build/DSP_TU2/debug/_ext/1360937237/BaudotUart.o
 .debug_aranges
                0x0000000000000520       0x28 build/DSP_TU2/debug/_ext/1360937237/DynamicThreshold.o
 .debug_aranges
                0x0000000000000548       0x20 build/DSP_TU2/debug/_ext/1360937237/PwmAudioOut.o
 .debug_aranges
                0x0000000000000568       0x28 build/DSP_TU2/debug/_ext/1360937237/agc.o
 .debug_aranges
                0x0000000000000590       0x28 build/DSP_TU2/debug/_ext/1360937237/biquad.o
 .debug_aranges
                0x00000000000005b8       0x28 build/DSP_TU2/debug/_ext/1360937237/dds.o
 .debug_aranges
                0x00000000000005e0       0x68 build/DSP_TU2/debug/_ext/1360937237/display.o
 .debug_aranges
                0x0000000000000648       0x48 build/DSP_TU2/debug/_ext/1360937237/fifo16.o
 .debug_aranges
                0x0000000000000690       0x20 build/DSP_TU2/debug/_ext/1360937237/xyScope.o
 .debug_aranges
                0x00000000000006b0       0x20 build/DSP_TU2/debug/_ext/1360937237/PollSwitchesLeds.o
 .debug_aranges
                0x00000000000006d0       0x20 build/DSP_TU2/debug/_ext/1360937237/PollEncoder.o
 .debug_aranges
                0x00000000000006f0       0x50 C:\Users\HAROLD~1\AppData\Local\Temp\ccOhslTW.o
 .debug_aranges
                0x0000000000000740       0x20 c:/program files/microchip/xc32/v4.00/bin/bin/../../lib/gcc/pic32mx/8.3.1/../../../../pic32mx/lib/fpu64\libpic32.a(default-on-reset.o)
 .debug_aranges
                0x0000000000000760       0x20 c:/program files/microchip/xc32/v4.00/bin/bin/../../lib/gcc/pic32mx/8.3.1/../../../../pic32mx/lib/fpu64\libpic32.a(default-on-bootstrap.o)
 .debug_aranges
                0x0000000000000780       0x20 c:/program files/microchip/xc32/v4.00/bin/bin/../../lib/gcc/pic32mx/8.3.1/../../../../pic32mx/lib/fpu64\libpic32.a(defaultinterrupt.o)
 .debug_aranges
                0x00000000000007a0       0x70 c:/program files/microchip/xc32/v4.00/bin/bin/../../lib/gcc/pic32mx/8.3.1/../../../../pic32mx/lib/fpu64\libc-musl.a(malloc.o)
 .debug_aranges
                0x0000000000000810       0x20 c:/program files/microchip/xc32/v4.00/bin/bin/../../lib/gcc/pic32mx/8.3.1/../../../../pic32mx/lib/fpu64\libc-musl.a(expand_heap.o)
 .debug_aranges
                0x0000000000000830       0x28 c:/program files/microchip/xc32/v4.00/bin/bin/../../lib/gcc/pic32mx/8.3.1/../../../../pic32mx/lib/fpu64\libc-musl.a(__sio_sprintf_doux.o)
 .debug_aranges
                0x0000000000000858       0x20 c:/program files/microchip/xc32/v4.00/bin/bin/../../lib/gcc/pic32mx/8.3.1/../../../../pic32mx/lib/fpu64\libc-musl.a(__fmt_d.o)
 .debug_aranges
                0x0000000000000878       0x20 c:/program files/microchip/xc32/v4.00/bin/bin/../../lib/gcc/pic32mx/8.3.1/../../../../pic32mx/lib/fpu64\libc-musl.a(__fmt_o.o)
 .debug_aranges
                0x0000000000000898       0x20 c:/program files/microchip/xc32/v4.00/bin/bin/../../lib/gcc/pic32mx/8.3.1/../../../../pic32mx/lib/fpu64\libc-musl.a(__fmt_s.o)
 .debug_aranges
                0x00000000000008b8       0x28 c:/program files/microchip/xc32/v4.00/bin/bin/../../lib/gcc/pic32mx/8.3.1/../../../../pic32mx/lib/fpu64\libc-musl.a(__fmt_u.o)
 .debug_aranges
                0x00000000000008e0       0x20 c:/program files/microchip/xc32/v4.00/bin/bin/../../lib/gcc/pic32mx/8.3.1/../../../../pic32mx/lib/fpu64\libc-musl.a(__fmt_x.o)
 .debug_aranges
                0x0000000000000900       0x50 c:/program files/microchip/xc32/v4.00/bin/bin/../../lib/gcc/pic32mx/8.3.1/../../../../pic32mx/lib/fpu64\libc-musl.a(__printf_core.o)
 .debug_aranges
                0x0000000000000950       0x20 c:/program files/microchip/xc32/v4.00/bin/bin/../../lib/gcc/pic32mx/8.3.1/../../../../pic32mx/lib/fpu64\libc-musl.a(atoi.o)
 .debug_aranges
                0x0000000000000970       0x20 c:/program files/microchip/xc32/v4.00/bin/bin/../../lib/gcc/pic32mx/8.3.1/../../../../pic32mx/lib/fpu64\libc-musl.a(memcpy.o)
 .debug_aranges
                0x0000000000000990       0x20 c:/program files/microchip/xc32/v4.00/bin/bin/../../lib/gcc/pic32mx/8.3.1/../../../../pic32mx/lib/fpu64\libc-musl.a(memset.o)
 .debug_aranges
                0x00000000000009b0       0x28 c:/program files/microchip/xc32/v4.00/bin/bin/../../lib/gcc/pic32mx/8.3.1/../../../../pic32mx/lib/fpu64\libc-musl.a(tolower.o)
 .debug_aranges
                0x00000000000009d8       0x28 c:/program files/microchip/xc32/v4.00/bin/bin/../../lib/gcc/pic32mx/8.3.1/../../../../pic32mx/lib/fpu64\libc-musl.a(toupper.o)
 .debug_aranges
                0x0000000000000a00       0x18 c:/program files/microchip/xc32/v4.00/bin/bin/../../lib/gcc/pic32mx/8.3.1/../../../../pic32mx/lib/fpu64\libc-musl.a(libc.o)
 .debug_aranges
                0x0000000000000a18       0x20 c:/program files/microchip/xc32/v4.00/bin/bin/../../lib/gcc/pic32mx/8.3.1/../../../../pic32mx/lib/fpu64\libc-musl.a(__int_vsprintf.o)
 .debug_aranges
                0x0000000000000a38       0x20 c:/program files/microchip/xc32/v4.00/bin/bin/../../lib/gcc/pic32mx/8.3.1/../../../../pic32mx/lib/fpu64\libc-musl.a(__pop_float.o)
 .debug_aranges
                0x0000000000000a58       0x20 c:/program files/microchip/xc32/v4.00/bin/bin/../../lib/gcc/pic32mx/8.3.1/../../../../pic32mx/lib/fpu64\libc-musl.a(__pop_int.o)
 .debug_aranges
                0x0000000000000a78       0x20 c:/program files/microchip/xc32/v4.00/bin/bin/../../lib/gcc/pic32mx/8.3.1/../../../../pic32mx/lib/fpu64\libc-musl.a(__pop_ptr.o)
 .debug_aranges
                0x0000000000000a98       0x20 c:/program files/microchip/xc32/v4.00/bin/bin/../../lib/gcc/pic32mx/8.3.1/../../../../pic32mx/lib/fpu64\libc-musl.a(__int_vsnprintf.o)
 .debug_aranges
                0x0000000000000ab8       0x20 c:/program files/microchip/xc32/v4.00/bin/bin/../../lib/gcc/pic32mx/8.3.1/../../../../pic32mx/lib/fpu64\libc-musl.a(__int_vfprintf.o)
 .debug_aranges
                0x0000000000000ad8       0x20 c:/program files/microchip/xc32/v4.00/bin/bin/../../lib/gcc/pic32mx/8.3.1/../../../../pic32mx/lib/fpu64\libm-musl.a(cos.o)
 .debug_aranges
                0x0000000000000af8       0x20 c:/program files/microchip/xc32/v4.00/bin/bin/../../lib/gcc/pic32mx/8.3.1/../../../../pic32mx/lib/fpu64\libm-musl.a(pow.o)
 .debug_aranges
                0x0000000000000b18       0x20 c:/program files/microchip/xc32/v4.00/bin/bin/../../lib/gcc/pic32mx/8.3.1/../../../../pic32mx/lib/fpu64\libm-musl.a(scalbn.o)
 .debug_aranges
                0x0000000000000b38       0x20 c:/program files/microchip/xc32/v4.00/bin/bin/../../lib/gcc/pic32mx/8.3.1/../../../../pic32mx/lib/fpu64\libm-musl.a(sin.o)
 .debug_aranges
                0x0000000000000b58       0x20 c:/program files/microchip/xc32/v4.00/bin/bin/../../lib/gcc/pic32mx/8.3.1/../../../../pic32mx/lib/fpu64\libm-musl.a(sqrt.o)
 .debug_aranges
                0x0000000000000b78       0x20 c:/program files/microchip/xc32/v4.00/bin/bin/../../lib/gcc/pic32mx/8.3.1/../../../../pic32mx/lib/fpu64\libm-musl.a(__cos.o)
 .debug_aranges
                0x0000000000000b98       0x20 c:/program files/microchip/xc32/v4.00/bin/bin/../../lib/gcc/pic32mx/8.3.1/../../../../pic32mx/lib/fpu64\libm-musl.a(__rem_pio2.o)
 .debug_aranges
                0x0000000000000bb8       0x20 c:/program files/microchip/xc32/v4.00/bin/bin/../../lib/gcc/pic32mx/8.3.1/../../../../pic32mx/lib/fpu64\libm-musl.a(__rem_pio2_large.o)
 .debug_aranges
                0x0000000000000bd8       0x20 c:/program files/microchip/xc32/v4.00/bin/bin/../../lib/gcc/pic32mx/8.3.1/../../../../pic32mx/lib/fpu64\libm-musl.a(__sin.o)
 .debug_aranges
                0x0000000000000bf8       0x20 c:/program files/microchip/xc32/v4.00/bin/bin/../../lib/gcc/pic32mx/8.3.1/../../../../pic32mx/lib/fpu64\libm-musl.a(fabs.o)
 .debug_aranges
                0x0000000000000c18       0x20 c:/program files/microchip/xc32/v4.00/bin/bin/../../lib/gcc/pic32mx/8.3.1/../../../../pic32mx/lib/fpu64\libm-musl.a(floor.o)
 .debug_aranges
                0x0000000000000c38       0x40 c:/program files/microchip/xc32/v4.00/bin/bin/../../lib/gcc/pic32mx/8.3.1/../../../../pic32mx/lib/fpu64\libpic32.a(sbrk.o)
 .debug_aranges
                0x0000000000000c78       0x20 c:/program files/microchip/xc32/v4.00/bin/bin/../../lib/gcc/pic32mx/8.3.1/fpu64\libgcc.a(_lshrdi3.o)
 .debug_aranges
                0x0000000000000c98       0x20 c:/program files/microchip/xc32/v4.00/bin/bin/../../lib/gcc/pic32mx/8.3.1/fpu64\libgcc.a(_ashldi3.o)
 .debug_aranges
                0x0000000000000cb8       0x20 c:/program files/microchip/xc32/v4.00/bin/bin/../../lib/gcc/pic32mx/8.3.1/fpu64\libgcc.a(_udivdi3.o)
 .debug_aranges
                0x0000000000000cd8       0x20 c:/program files/microchip/xc32/v4.00/bin/bin/../../lib/gcc/pic32mx/8.3.1/fpu64\libgcc.a(_umoddi3.o)

.debug_pubnames
 *.elf(.debug_pubnames)
 *(.debug_pubnames)

.debug_info     0x0000000000000000   0x4b674a
 *.elf(.debug_info .gnu.linkonce.wi.*)
 *(.debug_info .gnu.linkonce.wi.*)
 .debug_info    0x0000000000000000       0x3f c:/program files/microchip/xc32/v4.00/bin/bin/../../lib/gcc/pic32mx/8.3.1/../../../../pic32mx/lib/fpu64\software-debug-break.o
 .debug_info    0x000000000000003f    0x38f07 build/DSP_TU2/debug/_ext/302168295/plib_adchs.o
 .debug_info    0x0000000000038f46    0x38c1b build/DSP_TU2/debug/_ext/255064926/plib_clk.o
 .debug_info    0x0000000000071b61    0x3925f build/DSP_TU2/debug/_ext/682852657/plib_evic.o
 .debug_info    0x00000000000aadc0    0x38e16 build/DSP_TU2/debug/_ext/682798829/plib_gpio.o
 .debug_info    0x00000000000e3bd6    0x38cb0 build/DSP_TU2/debug/_ext/682572869/plib_ocmp1.o
 .debug_info    0x000000000011c886    0x38fc2 build/DSP_TU2/debug/_ext/957679836/plib_spi1_master.o
 .debug_info    0x0000000000155848    0x38fc2 build/DSP_TU2/debug/_ext/957679836/plib_spi3_master.o
 .debug_info    0x000000000018e80a    0x38fc2 build/DSP_TU2/debug/_ext/957679836/plib_spi2_master.o
 .debug_info    0x00000000001c77cc    0x38dd2 build/DSP_TU2/debug/_ext/255081301/plib_tmr2.o
 .debug_info    0x000000000020059e    0x39896 build/DSP_TU2/debug/_ext/682395886/plib_uart2.o
 .debug_info    0x0000000000239e34       0xe2 build/DSP_TU2/debug/_ext/775482278/xc32_monitor.o
 .debug_info    0x0000000000239f16    0x38d26 build/DSP_TU2/debug/_ext/1994557280/initialization.o
 .debug_info    0x0000000000272c3c    0x38cd8 build/DSP_TU2/debug/_ext/1994557280/interrupts.o
 .debug_info    0x00000000002ab914    0x38d48 build/DSP_TU2/debug/_ext/1994557280/exceptions.o
 .debug_info    0x00000000002e465c    0x39518 build/DSP_TU2/debug/_ext/1360937237/main.o
 .debug_info    0x000000000031db74    0x38d11 build/DSP_TU2/debug/_ext/1360937237/AfskGen.o
 .debug_info    0x0000000000356885    0x38d0a build/DSP_TU2/debug/_ext/1360937237/BaudotUart.o
 .debug_info    0x000000000038f58f      0x321 build/DSP_TU2/debug/_ext/1360937237/DynamicThreshold.o
 .debug_info    0x000000000038f8b0    0x38ccd build/DSP_TU2/debug/_ext/1360937237/PwmAudioOut.o
 .debug_info    0x00000000003c857d      0x2f9 build/DSP_TU2/debug/_ext/1360937237/agc.o
 .debug_info    0x00000000003c8876      0x478 build/DSP_TU2/debug/_ext/1360937237/biquad.o
 .debug_info    0x00000000003c8cee      0x19c build/DSP_TU2/debug/_ext/1360937237/dds.o
 .debug_info    0x00000000003c8e8a    0x3963e build/DSP_TU2/debug/_ext/1360937237/display.o
 .debug_info    0x00000000004024c8      0x294 build/DSP_TU2/debug/_ext/1360937237/fifo16.o
 .debug_info    0x000000000040275c    0x38dc9 build/DSP_TU2/debug/_ext/1360937237/xyScope.o
 .debug_info    0x000000000043b525    0x38ce8 build/DSP_TU2/debug/_ext/1360937237/PollSwitchesLeds.o
 .debug_info    0x000000000047420d    0x38d89 build/DSP_TU2/debug/_ext/1360937237/PollEncoder.o
 .debug_info    0x00000000004acf96       0x22 C:\Users\HAROLD~1\AppData\Local\Temp\ccOhslTW.o
 .debug_info    0x00000000004acfb8       0x3f c:/program files/microchip/xc32/v4.00/bin/bin/../../lib/gcc/pic32mx/8.3.1/../../../../pic32mx/lib/fpu64\libpic32.a(default-on-reset.o)
 .debug_info    0x00000000004acff7       0x3f c:/program files/microchip/xc32/v4.00/bin/bin/../../lib/gcc/pic32mx/8.3.1/../../../../pic32mx/lib/fpu64\libpic32.a(default-on-bootstrap.o)
 .debug_info    0x00000000004ad036       0x40 c:/program files/microchip/xc32/v4.00/bin/bin/../../lib/gcc/pic32mx/8.3.1/../../../../pic32mx/lib/fpu64\libpic32.a(defaultinterrupt.o)
 .debug_info    0x00000000004ad076     0x108d c:/program files/microchip/xc32/v4.00/bin/bin/../../lib/gcc/pic32mx/8.3.1/../../../../pic32mx/lib/fpu64\libc-musl.a(malloc.o)
 .debug_info    0x00000000004ae103      0x32f c:/program files/microchip/xc32/v4.00/bin/bin/../../lib/gcc/pic32mx/8.3.1/../../../../pic32mx/lib/fpu64\libc-musl.a(expand_heap.o)
 .debug_info    0x00000000004ae432      0x3e3 c:/program files/microchip/xc32/v4.00/bin/bin/../../lib/gcc/pic32mx/8.3.1/../../../../pic32mx/lib/fpu64\libc-musl.a(__sio_sprintf_doux.o)
 .debug_info    0x00000000004ae815      0x547 c:/program files/microchip/xc32/v4.00/bin/bin/../../lib/gcc/pic32mx/8.3.1/../../../../pic32mx/lib/fpu64\libc-musl.a(__fmt_d.o)
 .debug_info    0x00000000004aed5c      0x518 c:/program files/microchip/xc32/v4.00/bin/bin/../../lib/gcc/pic32mx/8.3.1/../../../../pic32mx/lib/fpu64\libc-musl.a(__fmt_o.o)
 .debug_info    0x00000000004af274      0x4cb c:/program files/microchip/xc32/v4.00/bin/bin/../../lib/gcc/pic32mx/8.3.1/../../../../pic32mx/lib/fpu64\libc-musl.a(__fmt_s.o)
 .debug_info    0x00000000004af73f      0x5eb c:/program files/microchip/xc32/v4.00/bin/bin/../../lib/gcc/pic32mx/8.3.1/../../../../pic32mx/lib/fpu64\libc-musl.a(__fmt_u.o)
 .debug_info    0x00000000004afd2a      0x542 c:/program files/microchip/xc32/v4.00/bin/bin/../../lib/gcc/pic32mx/8.3.1/../../../../pic32mx/lib/fpu64\libc-musl.a(__fmt_x.o)
 .debug_info    0x00000000004b026c      0xc00 c:/program files/microchip/xc32/v4.00/bin/bin/../../lib/gcc/pic32mx/8.3.1/../../../../pic32mx/lib/fpu64\libc-musl.a(__printf_core.o)
 .debug_info    0x00000000004b0e6c       0xe7 c:/program files/microchip/xc32/v4.00/bin/bin/../../lib/gcc/pic32mx/8.3.1/../../../../pic32mx/lib/fpu64\libc-musl.a(atoi.o)
 .debug_info    0x00000000004b0f53       0xea c:/program files/microchip/xc32/v4.00/bin/bin/../../lib/gcc/pic32mx/8.3.1/../../../../pic32mx/lib/fpu64\libc-musl.a(memcpy.o)
 .debug_info    0x00000000004b103d       0xb3 c:/program files/microchip/xc32/v4.00/bin/bin/../../lib/gcc/pic32mx/8.3.1/../../../../pic32mx/lib/fpu64\libc-musl.a(memset.o)
 .debug_info    0x00000000004b10f0      0x303 c:/program files/microchip/xc32/v4.00/bin/bin/../../lib/gcc/pic32mx/8.3.1/../../../../pic32mx/lib/fpu64\libc-musl.a(tolower.o)
 .debug_info    0x00000000004b13f3      0x303 c:/program files/microchip/xc32/v4.00/bin/bin/../../lib/gcc/pic32mx/8.3.1/../../../../pic32mx/lib/fpu64\libc-musl.a(toupper.o)
 .debug_info    0x00000000004b16f6      0x2d8 c:/program files/microchip/xc32/v4.00/bin/bin/../../lib/gcc/pic32mx/8.3.1/../../../../pic32mx/lib/fpu64\libc-musl.a(libc.o)
 .debug_info    0x00000000004b19ce      0x351 c:/program files/microchip/xc32/v4.00/bin/bin/../../lib/gcc/pic32mx/8.3.1/../../../../pic32mx/lib/fpu64\libc-musl.a(__int_vsprintf.o)
 .debug_info    0x00000000004b1d1f      0x3d6 c:/program files/microchip/xc32/v4.00/bin/bin/../../lib/gcc/pic32mx/8.3.1/../../../../pic32mx/lib/fpu64\libc-musl.a(__pop_float.o)
 .debug_info    0x00000000004b20f5      0x3f0 c:/program files/microchip/xc32/v4.00/bin/bin/../../lib/gcc/pic32mx/8.3.1/../../../../pic32mx/lib/fpu64\libc-musl.a(__pop_int.o)
 .debug_info    0x00000000004b24e5      0x3f4 c:/program files/microchip/xc32/v4.00/bin/bin/../../lib/gcc/pic32mx/8.3.1/../../../../pic32mx/lib/fpu64\libc-musl.a(__pop_ptr.o)
 .debug_info    0x00000000004b28d9      0x400 c:/program files/microchip/xc32/v4.00/bin/bin/../../lib/gcc/pic32mx/8.3.1/../../../../pic32mx/lib/fpu64\libc-musl.a(__int_vsnprintf.o)
 .debug_info    0x00000000004b2cd9      0x408 c:/program files/microchip/xc32/v4.00/bin/bin/../../lib/gcc/pic32mx/8.3.1/../../../../pic32mx/lib/fpu64\libc-musl.a(__int_vfprintf.o)
 .debug_info    0x00000000004b30e1      0x207 c:/program files/microchip/xc32/v4.00/bin/bin/../../lib/gcc/pic32mx/8.3.1/../../../../pic32mx/lib/fpu64\libm-musl.a(cos.o)
 .debug_info    0x00000000004b32e8      0xa1c c:/program files/microchip/xc32/v4.00/bin/bin/../../lib/gcc/pic32mx/8.3.1/../../../../pic32mx/lib/fpu64\libm-musl.a(pow.o)
 .debug_info    0x00000000004b3d04      0x118 c:/program files/microchip/xc32/v4.00/bin/bin/../../lib/gcc/pic32mx/8.3.1/../../../../pic32mx/lib/fpu64\libm-musl.a(scalbn.o)
 .debug_info    0x00000000004b3e1c      0x203 c:/program files/microchip/xc32/v4.00/bin/bin/../../lib/gcc/pic32mx/8.3.1/../../../../pic32mx/lib/fpu64\libm-musl.a(sin.o)
 .debug_info    0x00000000004b401f      0x259 c:/program files/microchip/xc32/v4.00/bin/bin/../../lib/gcc/pic32mx/8.3.1/../../../../pic32mx/lib/fpu64\libm-musl.a(sqrt.o)
 .debug_info    0x00000000004b4278      0x18a c:/program files/microchip/xc32/v4.00/bin/bin/../../lib/gcc/pic32mx/8.3.1/../../../../pic32mx/lib/fpu64\libm-musl.a(__cos.o)
 .debug_info    0x00000000004b4402      0x322 c:/program files/microchip/xc32/v4.00/bin/bin/../../lib/gcc/pic32mx/8.3.1/../../../../pic32mx/lib/fpu64\libm-musl.a(__rem_pio2.o)
 .debug_info    0x00000000004b4724      0x3d5 c:/program files/microchip/xc32/v4.00/bin/bin/../../lib/gcc/pic32mx/8.3.1/../../../../pic32mx/lib/fpu64\libm-musl.a(__rem_pio2_large.o)
 .debug_info    0x00000000004b4af9      0x19c c:/program files/microchip/xc32/v4.00/bin/bin/../../lib/gcc/pic32mx/8.3.1/../../../../pic32mx/lib/fpu64\libm-musl.a(__sin.o)
 .debug_info    0x00000000004b4c95       0xe3 c:/program files/microchip/xc32/v4.00/bin/bin/../../lib/gcc/pic32mx/8.3.1/../../../../pic32mx/lib/fpu64\libm-musl.a(fabs.o)
 .debug_info    0x00000000004b4d78      0x17c c:/program files/microchip/xc32/v4.00/bin/bin/../../lib/gcc/pic32mx/8.3.1/../../../../pic32mx/lib/fpu64\libm-musl.a(floor.o)
 .debug_info    0x00000000004b4ef4       0xae c:/program files/microchip/xc32/v4.00/bin/bin/../../lib/gcc/pic32mx/8.3.1/../../../../pic32mx/lib/fpu64\libpic32.a(sbrk.o)
 .debug_info    0x00000000004b4fa2      0x33c c:/program files/microchip/xc32/v4.00/bin/bin/../../lib/gcc/pic32mx/8.3.1/fpu64\libgcc.a(_lshrdi3.o)
 .debug_info    0x00000000004b52de      0x33c c:/program files/microchip/xc32/v4.00/bin/bin/../../lib/gcc/pic32mx/8.3.1/fpu64\libgcc.a(_ashldi3.o)
 .debug_info    0x00000000004b561a      0x85c c:/program files/microchip/xc32/v4.00/bin/bin/../../lib/gcc/pic32mx/8.3.1/fpu64\libgcc.a(_udivdi3.o)
 .debug_info    0x00000000004b5e76      0x8d4 c:/program files/microchip/xc32/v4.00/bin/bin/../../lib/gcc/pic32mx/8.3.1/fpu64\libgcc.a(_umoddi3.o)

.debug_abbrev   0x0000000000000000     0x6850
 *.elf(.debug_abbrev)
 *(.debug_abbrev)
 .debug_abbrev  0x0000000000000000       0x2e c:/program files/microchip/xc32/v4.00/bin/bin/../../lib/gcc/pic32mx/8.3.1/../../../../pic32mx/lib/fpu64\software-debug-break.o
 .debug_abbrev  0x000000000000002e      0x21a build/DSP_TU2/debug/_ext/302168295/plib_adchs.o
 .debug_abbrev  0x0000000000000248      0x16f build/DSP_TU2/debug/_ext/255064926/plib_clk.o
 .debug_abbrev  0x00000000000003b7      0x256 build/DSP_TU2/debug/_ext/682852657/plib_evic.o
 .debug_abbrev  0x000000000000060d      0x1ce build/DSP_TU2/debug/_ext/682798829/plib_gpio.o
 .debug_abbrev  0x00000000000007db      0x1b8 build/DSP_TU2/debug/_ext/682572869/plib_ocmp1.o
 .debug_abbrev  0x0000000000000993      0x266 build/DSP_TU2/debug/_ext/957679836/plib_spi1_master.o
 .debug_abbrev  0x0000000000000bf9      0x266 build/DSP_TU2/debug/_ext/957679836/plib_spi3_master.o
 .debug_abbrev  0x0000000000000e5f      0x266 build/DSP_TU2/debug/_ext/957679836/plib_spi2_master.o
 .debug_abbrev  0x00000000000010c5      0x223 build/DSP_TU2/debug/_ext/255081301/plib_tmr2.o
 .debug_abbrev  0x00000000000012e8      0x49e build/DSP_TU2/debug/_ext/682395886/plib_uart2.o
 .debug_abbrev  0x0000000000001786       0x9e build/DSP_TU2/debug/_ext/775482278/xc32_monitor.o
 .debug_abbrev  0x0000000000001824      0x1bf build/DSP_TU2/debug/_ext/1994557280/initialization.o
 .debug_abbrev  0x00000000000019e3      0x190 build/DSP_TU2/debug/_ext/1994557280/interrupts.o
 .debug_abbrev  0x0000000000001b73      0x1b6 build/DSP_TU2/debug/_ext/1994557280/exceptions.o
 .debug_abbrev  0x0000000000001d29      0x2bb build/DSP_TU2/debug/_ext/1360937237/main.o
 .debug_abbrev  0x0000000000001fe4      0x1b6 build/DSP_TU2/debug/_ext/1360937237/AfskGen.o
 .debug_abbrev  0x000000000000219a      0x1db build/DSP_TU2/debug/_ext/1360937237/BaudotUart.o
 .debug_abbrev  0x0000000000002375      0x1a5 build/DSP_TU2/debug/_ext/1360937237/DynamicThreshold.o
 .debug_abbrev  0x000000000000251a      0x1b6 build/DSP_TU2/debug/_ext/1360937237/PwmAudioOut.o
 .debug_abbrev  0x00000000000026d0      0x16a build/DSP_TU2/debug/_ext/1360937237/agc.o
 .debug_abbrev  0x000000000000283a      0x1df build/DSP_TU2/debug/_ext/1360937237/biquad.o
 .debug_abbrev  0x0000000000002a19      0x112 build/DSP_TU2/debug/_ext/1360937237/dds.o
 .debug_abbrev  0x0000000000002b2b      0x2ba build/DSP_TU2/debug/_ext/1360937237/display.o
 .debug_abbrev  0x0000000000002de5      0x13f build/DSP_TU2/debug/_ext/1360937237/fifo16.o
 .debug_abbrev  0x0000000000002f24      0x20e build/DSP_TU2/debug/_ext/1360937237/xyScope.o
 .debug_abbrev  0x0000000000003132      0x17e build/DSP_TU2/debug/_ext/1360937237/PollSwitchesLeds.o
 .debug_abbrev  0x00000000000032b0      0x1f4 build/DSP_TU2/debug/_ext/1360937237/PollEncoder.o
 .debug_abbrev  0x00000000000034a4       0x12 C:\Users\HAROLD~1\AppData\Local\Temp\ccOhslTW.o
 .debug_abbrev  0x00000000000034b6       0x2e c:/program files/microchip/xc32/v4.00/bin/bin/../../lib/gcc/pic32mx/8.3.1/../../../../pic32mx/lib/fpu64\libpic32.a(default-on-reset.o)
 .debug_abbrev  0x00000000000034e4       0x2e c:/program files/microchip/xc32/v4.00/bin/bin/../../lib/gcc/pic32mx/8.3.1/../../../../pic32mx/lib/fpu64\libpic32.a(default-on-bootstrap.o)
 .debug_abbrev  0x0000000000003512       0x31 c:/program files/microchip/xc32/v4.00/bin/bin/../../lib/gcc/pic32mx/8.3.1/../../../../pic32mx/lib/fpu64\libpic32.a(defaultinterrupt.o)
 .debug_abbrev  0x0000000000003543      0x43a c:/program files/microchip/xc32/v4.00/bin/bin/../../lib/gcc/pic32mx/8.3.1/../../../../pic32mx/lib/fpu64\libc-musl.a(malloc.o)
 .debug_abbrev  0x000000000000397d      0x142 c:/program files/microchip/xc32/v4.00/bin/bin/../../lib/gcc/pic32mx/8.3.1/../../../../pic32mx/lib/fpu64\libc-musl.a(expand_heap.o)
 .debug_abbrev  0x0000000000003abf      0x17e c:/program files/microchip/xc32/v4.00/bin/bin/../../lib/gcc/pic32mx/8.3.1/../../../../pic32mx/lib/fpu64\libc-musl.a(__sio_sprintf_doux.o)
 .debug_abbrev  0x0000000000003c3d      0x1b0 c:/program files/microchip/xc32/v4.00/bin/bin/../../lib/gcc/pic32mx/8.3.1/../../../../pic32mx/lib/fpu64\libc-musl.a(__fmt_d.o)
 .debug_abbrev  0x0000000000003ded      0x1b0 c:/program files/microchip/xc32/v4.00/bin/bin/../../lib/gcc/pic32mx/8.3.1/../../../../pic32mx/lib/fpu64\libc-musl.a(__fmt_o.o)
 .debug_abbrev  0x0000000000003f9d      0x190 c:/program files/microchip/xc32/v4.00/bin/bin/../../lib/gcc/pic32mx/8.3.1/../../../../pic32mx/lib/fpu64\libc-musl.a(__fmt_s.o)
 .debug_abbrev  0x000000000000412d      0x1e2 c:/program files/microchip/xc32/v4.00/bin/bin/../../lib/gcc/pic32mx/8.3.1/../../../../pic32mx/lib/fpu64\libc-musl.a(__fmt_u.o)
 .debug_abbrev  0x000000000000430f      0x19f c:/program files/microchip/xc32/v4.00/bin/bin/../../lib/gcc/pic32mx/8.3.1/../../../../pic32mx/lib/fpu64\libc-musl.a(__fmt_x.o)
 .debug_abbrev  0x00000000000044ae      0x33b c:/program files/microchip/xc32/v4.00/bin/bin/../../lib/gcc/pic32mx/8.3.1/../../../../pic32mx/lib/fpu64\libc-musl.a(__printf_core.o)
 .debug_abbrev  0x00000000000047e9       0xc4 c:/program files/microchip/xc32/v4.00/bin/bin/../../lib/gcc/pic32mx/8.3.1/../../../../pic32mx/lib/fpu64\libc-musl.a(atoi.o)
 .debug_abbrev  0x00000000000048ad       0xbb c:/program files/microchip/xc32/v4.00/bin/bin/../../lib/gcc/pic32mx/8.3.1/../../../../pic32mx/lib/fpu64\libc-musl.a(memcpy.o)
 .debug_abbrev  0x0000000000004968       0xa2 c:/program files/microchip/xc32/v4.00/bin/bin/../../lib/gcc/pic32mx/8.3.1/../../../../pic32mx/lib/fpu64\libc-musl.a(memset.o)
 .debug_abbrev  0x0000000000004a0a      0x12b c:/program files/microchip/xc32/v4.00/bin/bin/../../lib/gcc/pic32mx/8.3.1/../../../../pic32mx/lib/fpu64\libc-musl.a(tolower.o)
 .debug_abbrev  0x0000000000004b35      0x12b c:/program files/microchip/xc32/v4.00/bin/bin/../../lib/gcc/pic32mx/8.3.1/../../../../pic32mx/lib/fpu64\libc-musl.a(toupper.o)
 .debug_abbrev  0x0000000000004c60       0xe3 c:/program files/microchip/xc32/v4.00/bin/bin/../../lib/gcc/pic32mx/8.3.1/../../../../pic32mx/lib/fpu64\libc-musl.a(libc.o)
 .debug_abbrev  0x0000000000004d43      0x12f c:/program files/microchip/xc32/v4.00/bin/bin/../../lib/gcc/pic32mx/8.3.1/../../../../pic32mx/lib/fpu64\libc-musl.a(__int_vsprintf.o)
 .debug_abbrev  0x0000000000004e72      0x132 c:/program files/microchip/xc32/v4.00/bin/bin/../../lib/gcc/pic32mx/8.3.1/../../../../pic32mx/lib/fpu64\libc-musl.a(__pop_float.o)
 .debug_abbrev  0x0000000000004fa4      0x132 c:/program files/microchip/xc32/v4.00/bin/bin/../../lib/gcc/pic32mx/8.3.1/../../../../pic32mx/lib/fpu64\libc-musl.a(__pop_int.o)
 .debug_abbrev  0x00000000000050d6      0x146 c:/program files/microchip/xc32/v4.00/bin/bin/../../lib/gcc/pic32mx/8.3.1/../../../../pic32mx/lib/fpu64\libc-musl.a(__pop_ptr.o)
 .debug_abbrev  0x000000000000521c      0x151 c:/program files/microchip/xc32/v4.00/bin/bin/../../lib/gcc/pic32mx/8.3.1/../../../../pic32mx/lib/fpu64\libc-musl.a(__int_vsnprintf.o)
 .debug_abbrev  0x000000000000536d      0x167 c:/program files/microchip/xc32/v4.00/bin/bin/../../lib/gcc/pic32mx/8.3.1/../../../../pic32mx/lib/fpu64\libc-musl.a(__int_vfprintf.o)
 .debug_abbrev  0x00000000000054d4      0x133 c:/program files/microchip/xc32/v4.00/bin/bin/../../lib/gcc/pic32mx/8.3.1/../../../../pic32mx/lib/fpu64\libm-musl.a(cos.o)
 .debug_abbrev  0x0000000000005607      0x1fc c:/program files/microchip/xc32/v4.00/bin/bin/../../lib/gcc/pic32mx/8.3.1/../../../../pic32mx/lib/fpu64\libm-musl.a(pow.o)
 .debug_abbrev  0x0000000000005803       0xbf c:/program files/microchip/xc32/v4.00/bin/bin/../../lib/gcc/pic32mx/8.3.1/../../../../pic32mx/lib/fpu64\libm-musl.a(scalbn.o)
 .debug_abbrev  0x00000000000058c2      0x13e c:/program files/microchip/xc32/v4.00/bin/bin/../../lib/gcc/pic32mx/8.3.1/../../../../pic32mx/lib/fpu64\libm-musl.a(sin.o)
 .debug_abbrev  0x0000000000005a00      0x108 c:/program files/microchip/xc32/v4.00/bin/bin/../../lib/gcc/pic32mx/8.3.1/../../../../pic32mx/lib/fpu64\libm-musl.a(sqrt.o)
 .debug_abbrev  0x0000000000005b08       0xbb c:/program files/microchip/xc32/v4.00/bin/bin/../../lib/gcc/pic32mx/8.3.1/../../../../pic32mx/lib/fpu64\libm-musl.a(__cos.o)
 .debug_abbrev  0x0000000000005bc3      0x153 c:/program files/microchip/xc32/v4.00/bin/bin/../../lib/gcc/pic32mx/8.3.1/../../../../pic32mx/lib/fpu64\libm-musl.a(__rem_pio2.o)
 .debug_abbrev  0x0000000000005d16      0x16c c:/program files/microchip/xc32/v4.00/bin/bin/../../lib/gcc/pic32mx/8.3.1/../../../../pic32mx/lib/fpu64\libm-musl.a(__rem_pio2_large.o)
 .debug_abbrev  0x0000000000005e82       0xbb c:/program files/microchip/xc32/v4.00/bin/bin/../../lib/gcc/pic32mx/8.3.1/../../../../pic32mx/lib/fpu64\libm-musl.a(__sin.o)
 .debug_abbrev  0x0000000000005f3d       0xad c:/program files/microchip/xc32/v4.00/bin/bin/../../lib/gcc/pic32mx/8.3.1/../../../../pic32mx/lib/fpu64\libm-musl.a(fabs.o)
 .debug_abbrev  0x0000000000005fea      0x114 c:/program files/microchip/xc32/v4.00/bin/bin/../../lib/gcc/pic32mx/8.3.1/../../../../pic32mx/lib/fpu64\libm-musl.a(floor.o)
 .debug_abbrev  0x00000000000060fe       0x90 c:/program files/microchip/xc32/v4.00/bin/bin/../../lib/gcc/pic32mx/8.3.1/../../../../pic32mx/lib/fpu64\libpic32.a(sbrk.o)
 .debug_abbrev  0x000000000000618e      0x17e c:/program files/microchip/xc32/v4.00/bin/bin/../../lib/gcc/pic32mx/8.3.1/fpu64\libgcc.a(_lshrdi3.o)
 .debug_abbrev  0x000000000000630c      0x17e c:/program files/microchip/xc32/v4.00/bin/bin/../../lib/gcc/pic32mx/8.3.1/fpu64\libgcc.a(_ashldi3.o)
 .debug_abbrev  0x000000000000648a      0x1d8 c:/program files/microchip/xc32/v4.00/bin/bin/../../lib/gcc/pic32mx/8.3.1/fpu64\libgcc.a(_udivdi3.o)
 .debug_abbrev  0x0000000000006662      0x1ee c:/program files/microchip/xc32/v4.00/bin/bin/../../lib/gcc/pic32mx/8.3.1/fpu64\libgcc.a(_umoddi3.o)

.debug_line     0x0000000000000000     0xdf7d
 *.elf(.debug_line)
 *(.debug_line)
 .debug_line    0x0000000000000000       0xb1 c:/program files/microchip/xc32/v4.00/bin/bin/../../lib/gcc/pic32mx/8.3.1/../../../../pic32mx/lib/fpu64\software-debug-break.o
 .debug_line    0x00000000000000b1      0x4cb build/DSP_TU2/debug/_ext/302168295/plib_adchs.o
 .debug_line    0x000000000000057c      0x22f build/DSP_TU2/debug/_ext/255064926/plib_clk.o
 .debug_line    0x00000000000007ab      0x389 build/DSP_TU2/debug/_ext/682852657/plib_evic.o
 .debug_line    0x0000000000000b34      0x40c build/DSP_TU2/debug/_ext/682798829/plib_gpio.o
 .debug_line    0x0000000000000f40      0x26d build/DSP_TU2/debug/_ext/682572869/plib_ocmp1.o
 .debug_line    0x00000000000011ad      0x574 build/DSP_TU2/debug/_ext/957679836/plib_spi1_master.o
 .debug_line    0x0000000000001721      0x574 build/DSP_TU2/debug/_ext/957679836/plib_spi3_master.o
 .debug_line    0x0000000000001c95      0x574 build/DSP_TU2/debug/_ext/957679836/plib_spi2_master.o
 .debug_line    0x0000000000002209      0x337 build/DSP_TU2/debug/_ext/255081301/plib_tmr2.o
 .debug_line    0x0000000000002540      0xb78 build/DSP_TU2/debug/_ext/682395886/plib_uart2.o
 .debug_line    0x00000000000030b8      0x109 build/DSP_TU2/debug/_ext/775482278/xc32_monitor.o
 .debug_line    0x00000000000031c1      0x5de build/DSP_TU2/debug/_ext/1994557280/initialization.o
 .debug_line    0x000000000000379f      0x21a build/DSP_TU2/debug/_ext/1994557280/interrupts.o
 .debug_line    0x00000000000039b9      0x28c build/DSP_TU2/debug/_ext/1994557280/exceptions.o
 .debug_line    0x0000000000003c45      0x7b6 build/DSP_TU2/debug/_ext/1360937237/main.o
 .debug_line    0x00000000000043fb      0x22d build/DSP_TU2/debug/_ext/1360937237/AfskGen.o
 .debug_line    0x0000000000004628      0x33b build/DSP_TU2/debug/_ext/1360937237/BaudotUart.o
 .debug_line    0x0000000000004963      0x1d7 build/DSP_TU2/debug/_ext/1360937237/DynamicThreshold.o
 .debug_line    0x0000000000004b3a      0x248 build/DSP_TU2/debug/_ext/1360937237/PwmAudioOut.o
 .debug_line    0x0000000000004d82      0x187 build/DSP_TU2/debug/_ext/1360937237/agc.o
 .debug_line    0x0000000000004f09      0x3ce build/DSP_TU2/debug/_ext/1360937237/biquad.o
 .debug_line    0x00000000000052d7      0x160 build/DSP_TU2/debug/_ext/1360937237/dds.o
 .debug_line    0x0000000000005437      0x46c build/DSP_TU2/debug/_ext/1360937237/display.o
 .debug_line    0x00000000000058a3      0x26e build/DSP_TU2/debug/_ext/1360937237/fifo16.o
 .debug_line    0x0000000000005b11      0x23f build/DSP_TU2/debug/_ext/1360937237/xyScope.o
 .debug_line    0x0000000000005d50      0x28f build/DSP_TU2/debug/_ext/1360937237/PollSwitchesLeds.o
 .debug_line    0x0000000000005fdf      0x2ea build/DSP_TU2/debug/_ext/1360937237/PollEncoder.o
 .debug_line    0x00000000000062c9      0x17c C:\Users\HAROLD~1\AppData\Local\Temp\ccOhslTW.o
 .debug_line    0x0000000000006445       0xa6 c:/program files/microchip/xc32/v4.00/bin/bin/../../lib/gcc/pic32mx/8.3.1/../../../../pic32mx/lib/fpu64\libpic32.a(default-on-reset.o)
 .debug_line    0x00000000000064eb       0xaa c:/program files/microchip/xc32/v4.00/bin/bin/../../lib/gcc/pic32mx/8.3.1/../../../../pic32mx/lib/fpu64\libpic32.a(default-on-bootstrap.o)
 .debug_line    0x0000000000006595       0xc9 c:/program files/microchip/xc32/v4.00/bin/bin/../../lib/gcc/pic32mx/8.3.1/../../../../pic32mx/lib/fpu64\libpic32.a(defaultinterrupt.o)
 .debug_line    0x000000000000665e      0xb58 c:/program files/microchip/xc32/v4.00/bin/bin/../../lib/gcc/pic32mx/8.3.1/../../../../pic32mx/lib/fpu64\libc-musl.a(malloc.o)
 .debug_line    0x00000000000071b6      0x244 c:/program files/microchip/xc32/v4.00/bin/bin/../../lib/gcc/pic32mx/8.3.1/../../../../pic32mx/lib/fpu64\libc-musl.a(expand_heap.o)
 .debug_line    0x00000000000073fa      0x2e6 c:/program files/microchip/xc32/v4.00/bin/bin/../../lib/gcc/pic32mx/8.3.1/../../../../pic32mx/lib/fpu64\libc-musl.a(__sio_sprintf_doux.o)
 .debug_line    0x00000000000076e0      0x306 c:/program files/microchip/xc32/v4.00/bin/bin/../../lib/gcc/pic32mx/8.3.1/../../../../pic32mx/lib/fpu64\libc-musl.a(__fmt_d.o)
 .debug_line    0x00000000000079e6      0x2ae c:/program files/microchip/xc32/v4.00/bin/bin/../../lib/gcc/pic32mx/8.3.1/../../../../pic32mx/lib/fpu64\libc-musl.a(__fmt_o.o)
 .debug_line    0x0000000000007c94      0x2fb c:/program files/microchip/xc32/v4.00/bin/bin/../../lib/gcc/pic32mx/8.3.1/../../../../pic32mx/lib/fpu64\libc-musl.a(__fmt_s.o)
 .debug_line    0x0000000000007f8f      0x344 c:/program files/microchip/xc32/v4.00/bin/bin/../../lib/gcc/pic32mx/8.3.1/../../../../pic32mx/lib/fpu64\libc-musl.a(__fmt_u.o)
 .debug_line    0x00000000000082d3      0x3cf c:/program files/microchip/xc32/v4.00/bin/bin/../../lib/gcc/pic32mx/8.3.1/../../../../pic32mx/lib/fpu64\libc-musl.a(__fmt_x.o)
 .debug_line    0x00000000000086a2      0x79a c:/program files/microchip/xc32/v4.00/bin/bin/../../lib/gcc/pic32mx/8.3.1/../../../../pic32mx/lib/fpu64\libc-musl.a(__printf_core.o)
 .debug_line    0x0000000000008e3c      0x17d c:/program files/microchip/xc32/v4.00/bin/bin/../../lib/gcc/pic32mx/8.3.1/../../../../pic32mx/lib/fpu64\libc-musl.a(atoi.o)
 .debug_line    0x0000000000008fb9      0x140 c:/program files/microchip/xc32/v4.00/bin/bin/../../lib/gcc/pic32mx/8.3.1/../../../../pic32mx/lib/fpu64\libc-musl.a(memcpy.o)
 .debug_line    0x00000000000090f9      0x137 c:/program files/microchip/xc32/v4.00/bin/bin/../../lib/gcc/pic32mx/8.3.1/../../../../pic32mx/lib/fpu64\libc-musl.a(memset.o)
 .debug_line    0x0000000000009230      0x238 c:/program files/microchip/xc32/v4.00/bin/bin/../../lib/gcc/pic32mx/8.3.1/../../../../pic32mx/lib/fpu64\libc-musl.a(tolower.o)
 .debug_line    0x0000000000009468      0x238 c:/program files/microchip/xc32/v4.00/bin/bin/../../lib/gcc/pic32mx/8.3.1/../../../../pic32mx/lib/fpu64\libc-musl.a(toupper.o)
 .debug_line    0x00000000000096a0      0x189 c:/program files/microchip/xc32/v4.00/bin/bin/../../lib/gcc/pic32mx/8.3.1/../../../../pic32mx/lib/fpu64\libc-musl.a(libc.o)
 .debug_line    0x0000000000009829      0x299 c:/program files/microchip/xc32/v4.00/bin/bin/../../lib/gcc/pic32mx/8.3.1/../../../../pic32mx/lib/fpu64\libc-musl.a(__int_vsprintf.o)
 .debug_line    0x0000000000009ac2      0x23d c:/program files/microchip/xc32/v4.00/bin/bin/../../lib/gcc/pic32mx/8.3.1/../../../../pic32mx/lib/fpu64\libc-musl.a(__pop_float.o)
 .debug_line    0x0000000000009cff      0x2dc c:/program files/microchip/xc32/v4.00/bin/bin/../../lib/gcc/pic32mx/8.3.1/../../../../pic32mx/lib/fpu64\libc-musl.a(__pop_int.o)
 .debug_line    0x0000000000009fdb      0x294 c:/program files/microchip/xc32/v4.00/bin/bin/../../lib/gcc/pic32mx/8.3.1/../../../../pic32mx/lib/fpu64\libc-musl.a(__pop_ptr.o)
 .debug_line    0x000000000000a26f      0x2f4 c:/program files/microchip/xc32/v4.00/bin/bin/../../lib/gcc/pic32mx/8.3.1/../../../../pic32mx/lib/fpu64\libc-musl.a(__int_vsnprintf.o)
 .debug_line    0x000000000000a563      0x260 c:/program files/microchip/xc32/v4.00/bin/bin/../../lib/gcc/pic32mx/8.3.1/../../../../pic32mx/lib/fpu64\libc-musl.a(__int_vfprintf.o)
 .debug_line    0x000000000000a7c3      0x2a3 c:/program files/microchip/xc32/v4.00/bin/bin/../../lib/gcc/pic32mx/8.3.1/../../../../pic32mx/lib/fpu64\libm-musl.a(cos.o)
 .debug_line    0x000000000000aa66      0x89a c:/program files/microchip/xc32/v4.00/bin/bin/../../lib/gcc/pic32mx/8.3.1/../../../../pic32mx/lib/fpu64\libm-musl.a(pow.o)
 .debug_line    0x000000000000b300      0x203 c:/program files/microchip/xc32/v4.00/bin/bin/../../lib/gcc/pic32mx/8.3.1/../../../../pic32mx/lib/fpu64\libm-musl.a(scalbn.o)
 .debug_line    0x000000000000b503      0x2ab c:/program files/microchip/xc32/v4.00/bin/bin/../../lib/gcc/pic32mx/8.3.1/../../../../pic32mx/lib/fpu64\libm-musl.a(sin.o)
 .debug_line    0x000000000000b7ae      0x3ea c:/program files/microchip/xc32/v4.00/bin/bin/../../lib/gcc/pic32mx/8.3.1/../../../../pic32mx/lib/fpu64\libm-musl.a(sqrt.o)
 .debug_line    0x000000000000bb98      0x1f2 c:/program files/microchip/xc32/v4.00/bin/bin/../../lib/gcc/pic32mx/8.3.1/../../../../pic32mx/lib/fpu64\libm-musl.a(__cos.o)
 .debug_line    0x000000000000bd8a      0x595 c:/program files/microchip/xc32/v4.00/bin/bin/../../lib/gcc/pic32mx/8.3.1/../../../../pic32mx/lib/fpu64\libm-musl.a(__rem_pio2.o)
 .debug_line    0x000000000000c31f      0x691 c:/program files/microchip/xc32/v4.00/bin/bin/../../lib/gcc/pic32mx/8.3.1/../../../../pic32mx/lib/fpu64\libm-musl.a(__rem_pio2_large.o)
 .debug_line    0x000000000000c9b0      0x1f2 c:/program files/microchip/xc32/v4.00/bin/bin/../../lib/gcc/pic32mx/8.3.1/../../../../pic32mx/lib/fpu64\libm-musl.a(__sin.o)
 .debug_line    0x000000000000cba2      0x19f c:/program files/microchip/xc32/v4.00/bin/bin/../../lib/gcc/pic32mx/8.3.1/../../../../pic32mx/lib/fpu64\libm-musl.a(fabs.o)
 .debug_line    0x000000000000cd41      0x203 c:/program files/microchip/xc32/v4.00/bin/bin/../../lib/gcc/pic32mx/8.3.1/../../../../pic32mx/lib/fpu64\libm-musl.a(floor.o)
 .debug_line    0x000000000000cf44      0x1af c:/program files/microchip/xc32/v4.00/bin/bin/../../lib/gcc/pic32mx/8.3.1/../../../../pic32mx/lib/fpu64\libpic32.a(sbrk.o)
 .debug_line    0x000000000000d0f3        0x0 c:/program files/microchip/xc32/v4.00/bin/bin/../../lib/gcc/pic32mx/8.3.1/../../../../pic32mx/lib/fpu64\libpic32.a(errno.o)
 .debug_line    0x000000000000d0f3      0x290 c:/program files/microchip/xc32/v4.00/bin/bin/../../lib/gcc/pic32mx/8.3.1/fpu64\libgcc.a(_lshrdi3.o)
 .debug_line    0x000000000000d383      0x291 c:/program files/microchip/xc32/v4.00/bin/bin/../../lib/gcc/pic32mx/8.3.1/fpu64\libgcc.a(_ashldi3.o)
 .debug_line    0x000000000000d614      0x490 c:/program files/microchip/xc32/v4.00/bin/bin/../../lib/gcc/pic32mx/8.3.1/fpu64\libgcc.a(_udivdi3.o)
 .debug_line    0x000000000000daa4      0x4d9 c:/program files/microchip/xc32/v4.00/bin/bin/../../lib/gcc/pic32mx/8.3.1/fpu64\libgcc.a(_umoddi3.o)

.debug_frame    0x0000000000000000     0x17f8
 *.elf(.debug_frame)
 *(.debug_frame)
 .debug_frame   0x0000000000000000       0x20 c:/program files/microchip/xc32/v4.00/bin/bin/../../lib/gcc/pic32mx/8.3.1/../../../../pic32mx/lib/fpu64\software-debug-break.o
 .debug_frame   0x0000000000000020       0xf0 build/DSP_TU2/debug/_ext/302168295/plib_adchs.o
 .debug_frame   0x0000000000000110       0x20 build/DSP_TU2/debug/_ext/255064926/plib_clk.o
 .debug_frame   0x0000000000000130       0xd4 build/DSP_TU2/debug/_ext/682852657/plib_evic.o
 .debug_frame   0x0000000000000204       0xa0 build/DSP_TU2/debug/_ext/682798829/plib_gpio.o
 .debug_frame   0x00000000000002a4       0x70 build/DSP_TU2/debug/_ext/682572869/plib_ocmp1.o
 .debug_frame   0x0000000000000314       0x88 build/DSP_TU2/debug/_ext/957679836/plib_spi1_master.o
 .debug_frame   0x000000000000039c       0x88 build/DSP_TU2/debug/_ext/957679836/plib_spi3_master.o
 .debug_frame   0x0000000000000424       0x88 build/DSP_TU2/debug/_ext/957679836/plib_spi2_master.o
 .debug_frame   0x00000000000004ac       0xcc build/DSP_TU2/debug/_ext/255081301/plib_tmr2.o
 .debug_frame   0x0000000000000578      0x204 build/DSP_TU2/debug/_ext/682395886/plib_uart2.o
 .debug_frame   0x000000000000077c       0x30 build/DSP_TU2/debug/_ext/775482278/xc32_monitor.o
 .debug_frame   0x00000000000007ac       0x2c build/DSP_TU2/debug/_ext/1994557280/initialization.o
 .debug_frame   0x00000000000007d8      0x260 build/DSP_TU2/debug/_ext/1994557280/interrupts.o
 .debug_frame   0x0000000000000a38       0x70 build/DSP_TU2/debug/_ext/1994557280/exceptions.o
 .debug_frame   0x0000000000000aa8       0x58 build/DSP_TU2/debug/_ext/1360937237/main.o
 .debug_frame   0x0000000000000b00       0x48 build/DSP_TU2/debug/_ext/1360937237/AfskGen.o
 .debug_frame   0x0000000000000b48       0x20 build/DSP_TU2/debug/_ext/1360937237/BaudotUart.o
 .debug_frame   0x0000000000000b68       0x48 build/DSP_TU2/debug/_ext/1360937237/DynamicThreshold.o
 .debug_frame   0x0000000000000bb0       0x2c build/DSP_TU2/debug/_ext/1360937237/PwmAudioOut.o
 .debug_frame   0x0000000000000bdc       0x4c build/DSP_TU2/debug/_ext/1360937237/agc.o
 .debug_frame   0x0000000000000c28       0x54 build/DSP_TU2/debug/_ext/1360937237/biquad.o
 .debug_frame   0x0000000000000c7c       0x3c build/DSP_TU2/debug/_ext/1360937237/dds.o
 .debug_frame   0x0000000000000cb8      0x130 build/DSP_TU2/debug/_ext/1360937237/display.o
 .debug_frame   0x0000000000000de8       0x7c build/DSP_TU2/debug/_ext/1360937237/fifo16.o
 .debug_frame   0x0000000000000e64       0x34 build/DSP_TU2/debug/_ext/1360937237/xyScope.o
 .debug_frame   0x0000000000000e98       0x20 build/DSP_TU2/debug/_ext/1360937237/PollSwitchesLeds.o
 .debug_frame   0x0000000000000eb8       0x30 build/DSP_TU2/debug/_ext/1360937237/PollEncoder.o
 .debug_frame   0x0000000000000ee8       0x20 c:/program files/microchip/xc32/v4.00/bin/bin/../../lib/gcc/pic32mx/8.3.1/../../../../pic32mx/lib/fpu64\libpic32.a(default-on-reset.o)
 .debug_frame   0x0000000000000f08       0x20 c:/program files/microchip/xc32/v4.00/bin/bin/../../lib/gcc/pic32mx/8.3.1/../../../../pic32mx/lib/fpu64\libpic32.a(default-on-bootstrap.o)
 .debug_frame   0x0000000000000f28       0x20 c:/program files/microchip/xc32/v4.00/bin/bin/../../lib/gcc/pic32mx/8.3.1/../../../../pic32mx/lib/fpu64\libpic32.a(defaultinterrupt.o)
 .debug_frame   0x0000000000000f48      0x168 c:/program files/microchip/xc32/v4.00/bin/bin/../../lib/gcc/pic32mx/8.3.1/../../../../pic32mx/lib/fpu64\libc-musl.a(malloc.o)
 .debug_frame   0x00000000000010b0       0x2c c:/program files/microchip/xc32/v4.00/bin/bin/../../lib/gcc/pic32mx/8.3.1/../../../../pic32mx/lib/fpu64\libc-musl.a(expand_heap.o)
 .debug_frame   0x00000000000010dc       0x48 c:/program files/microchip/xc32/v4.00/bin/bin/../../lib/gcc/pic32mx/8.3.1/../../../../pic32mx/lib/fpu64\libc-musl.a(__sio_sprintf_doux.o)
 .debug_frame   0x0000000000001124       0x38 c:/program files/microchip/xc32/v4.00/bin/bin/../../lib/gcc/pic32mx/8.3.1/../../../../pic32mx/lib/fpu64\libc-musl.a(__fmt_d.o)
 .debug_frame   0x000000000000115c       0x34 c:/program files/microchip/xc32/v4.00/bin/bin/../../lib/gcc/pic32mx/8.3.1/../../../../pic32mx/lib/fpu64\libc-musl.a(__fmt_o.o)
 .debug_frame   0x0000000000001190       0x34 c:/program files/microchip/xc32/v4.00/bin/bin/../../lib/gcc/pic32mx/8.3.1/../../../../pic32mx/lib/fpu64\libc-musl.a(__fmt_s.o)
 .debug_frame   0x00000000000011c4       0x64 c:/program files/microchip/xc32/v4.00/bin/bin/../../lib/gcc/pic32mx/8.3.1/../../../../pic32mx/lib/fpu64\libc-musl.a(__fmt_u.o)
 .debug_frame   0x0000000000001228       0x40 c:/program files/microchip/xc32/v4.00/bin/bin/../../lib/gcc/pic32mx/8.3.1/../../../../pic32mx/lib/fpu64\libc-musl.a(__fmt_x.o)
 .debug_frame   0x0000000000001268       0xcc c:/program files/microchip/xc32/v4.00/bin/bin/../../lib/gcc/pic32mx/8.3.1/../../../../pic32mx/lib/fpu64\libc-musl.a(__printf_core.o)
 .debug_frame   0x0000000000001334       0x20 c:/program files/microchip/xc32/v4.00/bin/bin/../../lib/gcc/pic32mx/8.3.1/../../../../pic32mx/lib/fpu64\libc-musl.a(atoi.o)
 .debug_frame   0x0000000000001354       0x20 c:/program files/microchip/xc32/v4.00/bin/bin/../../lib/gcc/pic32mx/8.3.1/../../../../pic32mx/lib/fpu64\libc-musl.a(memcpy.o)
 .debug_frame   0x0000000000001374       0x20 c:/program files/microchip/xc32/v4.00/bin/bin/../../lib/gcc/pic32mx/8.3.1/../../../../pic32mx/lib/fpu64\libc-musl.a(memset.o)
 .debug_frame   0x0000000000001394       0x3c c:/program files/microchip/xc32/v4.00/bin/bin/../../lib/gcc/pic32mx/8.3.1/../../../../pic32mx/lib/fpu64\libc-musl.a(tolower.o)
 .debug_frame   0x00000000000013d0       0x3c c:/program files/microchip/xc32/v4.00/bin/bin/../../lib/gcc/pic32mx/8.3.1/../../../../pic32mx/lib/fpu64\libc-musl.a(toupper.o)
 .debug_frame   0x000000000000140c       0x2c c:/program files/microchip/xc32/v4.00/bin/bin/../../lib/gcc/pic32mx/8.3.1/../../../../pic32mx/lib/fpu64\libc-musl.a(__int_vsprintf.o)
 .debug_frame   0x0000000000001438       0x20 c:/program files/microchip/xc32/v4.00/bin/bin/../../lib/gcc/pic32mx/8.3.1/../../../../pic32mx/lib/fpu64\libc-musl.a(__pop_float.o)
 .debug_frame   0x0000000000001458       0x20 c:/program files/microchip/xc32/v4.00/bin/bin/../../lib/gcc/pic32mx/8.3.1/../../../../pic32mx/lib/fpu64\libc-musl.a(__pop_int.o)
 .debug_frame   0x0000000000001478       0x20 c:/program files/microchip/xc32/v4.00/bin/bin/../../lib/gcc/pic32mx/8.3.1/../../../../pic32mx/lib/fpu64\libc-musl.a(__pop_ptr.o)
 .debug_frame   0x0000000000001498       0x2c c:/program files/microchip/xc32/v4.00/bin/bin/../../lib/gcc/pic32mx/8.3.1/../../../../pic32mx/lib/fpu64\libc-musl.a(__int_vsnprintf.o)
 .debug_frame   0x00000000000014c4       0x2c c:/program files/microchip/xc32/v4.00/bin/bin/../../lib/gcc/pic32mx/8.3.1/../../../../pic32mx/lib/fpu64\libc-musl.a(__int_vfprintf.o)
 .debug_frame   0x00000000000014f0       0x2c c:/program files/microchip/xc32/v4.00/bin/bin/../../lib/gcc/pic32mx/8.3.1/../../../../pic32mx/lib/fpu64\libm-musl.a(cos.o)
 .debug_frame   0x000000000000151c       0x44 c:/program files/microchip/xc32/v4.00/bin/bin/../../lib/gcc/pic32mx/8.3.1/../../../../pic32mx/lib/fpu64\libm-musl.a(pow.o)
 .debug_frame   0x0000000000001560       0x20 c:/program files/microchip/xc32/v4.00/bin/bin/../../lib/gcc/pic32mx/8.3.1/../../../../pic32mx/lib/fpu64\libm-musl.a(scalbn.o)
 .debug_frame   0x0000000000001580       0x2c c:/program files/microchip/xc32/v4.00/bin/bin/../../lib/gcc/pic32mx/8.3.1/../../../../pic32mx/lib/fpu64\libm-musl.a(sin.o)
 .debug_frame   0x00000000000015ac       0x20 c:/program files/microchip/xc32/v4.00/bin/bin/../../lib/gcc/pic32mx/8.3.1/../../../../pic32mx/lib/fpu64\libm-musl.a(sqrt.o)
 .debug_frame   0x00000000000015cc       0x20 c:/program files/microchip/xc32/v4.00/bin/bin/../../lib/gcc/pic32mx/8.3.1/../../../../pic32mx/lib/fpu64\libm-musl.a(__cos.o)
 .debug_frame   0x00000000000015ec       0x30 c:/program files/microchip/xc32/v4.00/bin/bin/../../lib/gcc/pic32mx/8.3.1/../../../../pic32mx/lib/fpu64\libm-musl.a(__rem_pio2.o)
 .debug_frame   0x000000000000161c       0x58 c:/program files/microchip/xc32/v4.00/bin/bin/../../lib/gcc/pic32mx/8.3.1/../../../../pic32mx/lib/fpu64\libm-musl.a(__rem_pio2_large.o)
 .debug_frame   0x0000000000001674       0x20 c:/program files/microchip/xc32/v4.00/bin/bin/../../lib/gcc/pic32mx/8.3.1/../../../../pic32mx/lib/fpu64\libm-musl.a(__sin.o)
 .debug_frame   0x0000000000001694       0x20 c:/program files/microchip/xc32/v4.00/bin/bin/../../lib/gcc/pic32mx/8.3.1/../../../../pic32mx/lib/fpu64\libm-musl.a(fabs.o)
 .debug_frame   0x00000000000016b4       0x2c c:/program files/microchip/xc32/v4.00/bin/bin/../../lib/gcc/pic32mx/8.3.1/../../../../pic32mx/lib/fpu64\libm-musl.a(floor.o)
 .debug_frame   0x00000000000016e0       0x98 c:/program files/microchip/xc32/v4.00/bin/bin/../../lib/gcc/pic32mx/8.3.1/../../../../pic32mx/lib/fpu64\libpic32.a(sbrk.o)
 .debug_frame   0x0000000000001778       0x20 c:/program files/microchip/xc32/v4.00/bin/bin/../../lib/gcc/pic32mx/8.3.1/fpu64\libgcc.a(_lshrdi3.o)
 .debug_frame   0x0000000000001798       0x20 c:/program files/microchip/xc32/v4.00/bin/bin/../../lib/gcc/pic32mx/8.3.1/fpu64\libgcc.a(_ashldi3.o)
 .debug_frame   0x00000000000017b8       0x20 c:/program files/microchip/xc32/v4.00/bin/bin/../../lib/gcc/pic32mx/8.3.1/fpu64\libgcc.a(_udivdi3.o)
 .debug_frame   0x00000000000017d8       0x20 c:/program files/microchip/xc32/v4.00/bin/bin/../../lib/gcc/pic32mx/8.3.1/fpu64\libgcc.a(_umoddi3.o)

.debug_str      0x0000000000000000   0x1a4a16
 *.elf(.debug_str)
 *(.debug_str)
 .debug_str     0x0000000000000000      0x3b0 c:/program files/microchip/xc32/v4.00/bin/bin/../../lib/gcc/pic32mx/8.3.1/../../../../pic32mx/lib/fpu64\software-debug-break.o
 .debug_str     0x00000000000003b0    0x13752 build/DSP_TU2/debug/_ext/302168295/plib_adchs.o
 .debug_str     0x0000000000013b02    0x13438 build/DSP_TU2/debug/_ext/255064926/plib_clk.o
 .debug_str     0x0000000000026f3a    0x143d2 build/DSP_TU2/debug/_ext/682852657/plib_evic.o
 .debug_str     0x000000000003b30c    0x134dc build/DSP_TU2/debug/_ext/682798829/plib_gpio.o
 .debug_str     0x000000000004e7e8    0x134bb build/DSP_TU2/debug/_ext/682572869/plib_ocmp1.o
 .debug_str     0x0000000000061ca3    0x136c7 build/DSP_TU2/debug/_ext/957679836/plib_spi1_master.o
 .debug_str     0x000000000007536a    0x136c7 build/DSP_TU2/debug/_ext/957679836/plib_spi3_master.o
 .debug_str     0x0000000000088a31    0x136c7 build/DSP_TU2/debug/_ext/957679836/plib_spi2_master.o
 .debug_str     0x000000000009c0f8    0x13544 build/DSP_TU2/debug/_ext/255081301/plib_tmr2.o
 .debug_str     0x00000000000af63c    0x13b3d build/DSP_TU2/debug/_ext/682395886/plib_uart2.o
 .debug_str     0x00000000000c3179      0x328 build/DSP_TU2/debug/_ext/775482278/xc32_monitor.o
 .debug_str     0x00000000000c34a1    0x134dc build/DSP_TU2/debug/_ext/1994557280/initialization.o
 .debug_str     0x00000000000d697d    0x134d2 build/DSP_TU2/debug/_ext/1994557280/interrupts.o
 .debug_str     0x00000000000e9e4f    0x1357d build/DSP_TU2/debug/_ext/1994557280/exceptions.o
 .debug_str     0x00000000000fd3cc    0x1380c build/DSP_TU2/debug/_ext/1360937237/main.o
 .debug_str     0x0000000000110bd8    0x134a0 build/DSP_TU2/debug/_ext/1360937237/AfskGen.o
 .debug_str     0x0000000000124078    0x1347d build/DSP_TU2/debug/_ext/1360937237/BaudotUart.o
 .debug_str     0x00000000001374f5      0x45a build/DSP_TU2/debug/_ext/1360937237/DynamicThreshold.o
 .debug_str     0x000000000013794f    0x1349e build/DSP_TU2/debug/_ext/1360937237/PwmAudioOut.o
 .debug_str     0x000000000014aded      0x400 build/DSP_TU2/debug/_ext/1360937237/agc.o
 .debug_str     0x000000000014b1ed      0x408 build/DSP_TU2/debug/_ext/1360937237/biquad.o
 .debug_str     0x000000000014b5f5      0x3c9 build/DSP_TU2/debug/_ext/1360937237/dds.o
 .debug_str     0x000000000014b9be    0x13611 build/DSP_TU2/debug/_ext/1360937237/display.o
 .debug_str     0x000000000015efcf      0x3ed build/DSP_TU2/debug/_ext/1360937237/fifo16.o
 .debug_str     0x000000000015f3bc    0x134bf build/DSP_TU2/debug/_ext/1360937237/xyScope.o
 .debug_str     0x000000000017287b    0x1344a build/DSP_TU2/debug/_ext/1360937237/PollSwitchesLeds.o
 .debug_str     0x0000000000185cc5    0x134db build/DSP_TU2/debug/_ext/1360937237/PollEncoder.o
 .debug_str     0x00000000001991a0       0xbd C:\Users\HAROLD~1\AppData\Local\Temp\ccOhslTW.o
 .debug_str     0x000000000019925d      0x39a c:/program files/microchip/xc32/v4.00/bin/bin/../../lib/gcc/pic32mx/8.3.1/../../../../pic32mx/lib/fpu64\libpic32.a(default-on-reset.o)
 .debug_str     0x00000000001995f7      0x3a2 c:/program files/microchip/xc32/v4.00/bin/bin/../../lib/gcc/pic32mx/8.3.1/../../../../pic32mx/lib/fpu64\libpic32.a(default-on-bootstrap.o)
 .debug_str     0x0000000000199999      0x3b4 c:/program files/microchip/xc32/v4.00/bin/bin/../../lib/gcc/pic32mx/8.3.1/../../../../pic32mx/lib/fpu64\libpic32.a(defaultinterrupt.o)
 .debug_str     0x0000000000199d4d      0x62c c:/program files/microchip/xc32/v4.00/bin/bin/../../lib/gcc/pic32mx/8.3.1/../../../../pic32mx/lib/fpu64\libc-musl.a(malloc.o)
 .debug_str     0x000000000019a379      0x4ed c:/program files/microchip/xc32/v4.00/bin/bin/../../lib/gcc/pic32mx/8.3.1/../../../../pic32mx/lib/fpu64\libc-musl.a(expand_heap.o)
 .debug_str     0x000000000019a866      0x557 c:/program files/microchip/xc32/v4.00/bin/bin/../../lib/gcc/pic32mx/8.3.1/../../../../pic32mx/lib/fpu64\libc-musl.a(__sio_sprintf_doux.o)
 .debug_str     0x000000000019adbd      0x537 c:/program files/microchip/xc32/v4.00/bin/bin/../../lib/gcc/pic32mx/8.3.1/../../../../pic32mx/lib/fpu64\libc-musl.a(__fmt_d.o)
 .debug_str     0x000000000019b2f4      0x537 c:/program files/microchip/xc32/v4.00/bin/bin/../../lib/gcc/pic32mx/8.3.1/../../../../pic32mx/lib/fpu64\libc-musl.a(__fmt_o.o)
 .debug_str     0x000000000019b82b      0x523 c:/program files/microchip/xc32/v4.00/bin/bin/../../lib/gcc/pic32mx/8.3.1/../../../../pic32mx/lib/fpu64\libc-musl.a(__fmt_s.o)
 .debug_str     0x000000000019bd4e      0x53c c:/program files/microchip/xc32/v4.00/bin/bin/../../lib/gcc/pic32mx/8.3.1/../../../../pic32mx/lib/fpu64\libc-musl.a(__fmt_u.o)
 .debug_str     0x000000000019c28a      0x537 c:/program files/microchip/xc32/v4.00/bin/bin/../../lib/gcc/pic32mx/8.3.1/../../../../pic32mx/lib/fpu64\libc-musl.a(__fmt_x.o)
 .debug_str     0x000000000019c7c1      0x614 c:/program files/microchip/xc32/v4.00/bin/bin/../../lib/gcc/pic32mx/8.3.1/../../../../pic32mx/lib/fpu64\libc-musl.a(__printf_core.o)
 .debug_str     0x000000000019cdd5      0x351 c:/program files/microchip/xc32/v4.00/bin/bin/../../lib/gcc/pic32mx/8.3.1/../../../../pic32mx/lib/fpu64\libc-musl.a(atoi.o)
 .debug_str     0x000000000019d126      0x356 c:/program files/microchip/xc32/v4.00/bin/bin/../../lib/gcc/pic32mx/8.3.1/../../../../pic32mx/lib/fpu64\libc-musl.a(memcpy.o)
 .debug_str     0x000000000019d47c      0x342 c:/program files/microchip/xc32/v4.00/bin/bin/../../lib/gcc/pic32mx/8.3.1/../../../../pic32mx/lib/fpu64\libc-musl.a(memset.o)
 .debug_str     0x000000000019d7be      0x487 c:/program files/microchip/xc32/v4.00/bin/bin/../../lib/gcc/pic32mx/8.3.1/../../../../pic32mx/lib/fpu64\libc-musl.a(tolower.o)
 .debug_str     0x000000000019dc45      0x487 c:/program files/microchip/xc32/v4.00/bin/bin/../../lib/gcc/pic32mx/8.3.1/../../../../pic32mx/lib/fpu64\libc-musl.a(toupper.o)
 .debug_str     0x000000000019e0cc      0x4a0 c:/program files/microchip/xc32/v4.00/bin/bin/../../lib/gcc/pic32mx/8.3.1/../../../../pic32mx/lib/fpu64\libc-musl.a(libc.o)
 .debug_str     0x000000000019e56c      0x4f2 c:/program files/microchip/xc32/v4.00/bin/bin/../../lib/gcc/pic32mx/8.3.1/../../../../pic32mx/lib/fpu64\libc-musl.a(__int_vsprintf.o)
 .debug_str     0x000000000019ea5e      0x526 c:/program files/microchip/xc32/v4.00/bin/bin/../../lib/gcc/pic32mx/8.3.1/../../../../pic32mx/lib/fpu64\libc-musl.a(__pop_float.o)
 .debug_str     0x000000000019ef84      0x531 c:/program files/microchip/xc32/v4.00/bin/bin/../../lib/gcc/pic32mx/8.3.1/../../../../pic32mx/lib/fpu64\libc-musl.a(__pop_int.o)
 .debug_str     0x000000000019f4b5      0x52c c:/program files/microchip/xc32/v4.00/bin/bin/../../lib/gcc/pic32mx/8.3.1/../../../../pic32mx/lib/fpu64\libc-musl.a(__pop_ptr.o)
 .debug_str     0x000000000019f9e1      0x525 c:/program files/microchip/xc32/v4.00/bin/bin/../../lib/gcc/pic32mx/8.3.1/../../../../pic32mx/lib/fpu64\libc-musl.a(__int_vsnprintf.o)
 .debug_str     0x000000000019ff06      0x52e c:/program files/microchip/xc32/v4.00/bin/bin/../../lib/gcc/pic32mx/8.3.1/../../../../pic32mx/lib/fpu64\libc-musl.a(__int_vfprintf.o)
 .debug_str     0x00000000001a0434      0x3c9 c:/program files/microchip/xc32/v4.00/bin/bin/../../lib/gcc/pic32mx/8.3.1/../../../../pic32mx/lib/fpu64\libm-musl.a(cos.o)
 .debug_str     0x00000000001a07fd      0x412 c:/program files/microchip/xc32/v4.00/bin/bin/../../lib/gcc/pic32mx/8.3.1/../../../../pic32mx/lib/fpu64\libm-musl.a(pow.o)
 .debug_str     0x00000000001a0c0f      0x3b0 c:/program files/microchip/xc32/v4.00/bin/bin/../../lib/gcc/pic32mx/8.3.1/../../../../pic32mx/lib/fpu64\libm-musl.a(scalbn.o)
 .debug_str     0x00000000001a0fbf      0x3c9 c:/program files/microchip/xc32/v4.00/bin/bin/../../lib/gcc/pic32mx/8.3.1/../../../../pic32mx/lib/fpu64\libm-musl.a(sin.o)
 .debug_str     0x00000000001a1388      0x3c4 c:/program files/microchip/xc32/v4.00/bin/bin/../../lib/gcc/pic32mx/8.3.1/../../../../pic32mx/lib/fpu64\libm-musl.a(sqrt.o)
 .debug_str     0x00000000001a174c      0x3a5 c:/program files/microchip/xc32/v4.00/bin/bin/../../lib/gcc/pic32mx/8.3.1/../../../../pic32mx/lib/fpu64\libm-musl.a(__cos.o)
 .debug_str     0x00000000001a1af1      0x421 c:/program files/microchip/xc32/v4.00/bin/bin/../../lib/gcc/pic32mx/8.3.1/../../../../pic32mx/lib/fpu64\libm-musl.a(__rem_pio2.o)
 .debug_str     0x00000000001a1f12      0x3ef c:/program files/microchip/xc32/v4.00/bin/bin/../../lib/gcc/pic32mx/8.3.1/../../../../pic32mx/lib/fpu64\libm-musl.a(__rem_pio2_large.o)
 .debug_str     0x00000000001a2301      0x3a5 c:/program files/microchip/xc32/v4.00/bin/bin/../../lib/gcc/pic32mx/8.3.1/../../../../pic32mx/lib/fpu64\libm-musl.a(__sin.o)
 .debug_str     0x00000000001a26a6      0x3a3 c:/program files/microchip/xc32/v4.00/bin/bin/../../lib/gcc/pic32mx/8.3.1/../../../../pic32mx/lib/fpu64\libm-musl.a(fabs.o)
 .debug_str     0x00000000001a2a49      0x3c0 c:/program files/microchip/xc32/v4.00/bin/bin/../../lib/gcc/pic32mx/8.3.1/../../../../pic32mx/lib/fpu64\libm-musl.a(floor.o)
 .debug_str     0x00000000001a2e09      0x3ba c:/program files/microchip/xc32/v4.00/bin/bin/../../lib/gcc/pic32mx/8.3.1/../../../../pic32mx/lib/fpu64\libpic32.a(sbrk.o)
 .debug_str     0x00000000001a31c3      0x385 c:/program files/microchip/xc32/v4.00/bin/bin/../../lib/gcc/pic32mx/8.3.1/../../../../pic32mx/lib/fpu64\libpic32.a(errno.o)
 .debug_str     0x00000000001a3548      0x515 c:/program files/microchip/xc32/v4.00/bin/bin/../../lib/gcc/pic32mx/8.3.1/fpu64\libgcc.a(_lshrdi3.o)
 .debug_str     0x00000000001a3a5d      0x515 c:/program files/microchip/xc32/v4.00/bin/bin/../../lib/gcc/pic32mx/8.3.1/fpu64\libgcc.a(_ashldi3.o)
 .debug_str     0x00000000001a3f72      0x552 c:/program files/microchip/xc32/v4.00/bin/bin/../../lib/gcc/pic32mx/8.3.1/fpu64\libgcc.a(_udivdi3.o)
 .debug_str     0x00000000001a44c4      0x552 c:/program files/microchip/xc32/v4.00/bin/bin/../../lib/gcc/pic32mx/8.3.1/fpu64\libgcc.a(_umoddi3.o)

.debug_loc      0x0000000000000000     0x9986
 *.elf(.debug_loc)
 *(.debug_loc)
 .debug_loc     0x0000000000000000       0xd2 build/DSP_TU2/debug/_ext/302168295/plib_adchs.o
 .debug_loc     0x00000000000000d2      0x149 build/DSP_TU2/debug/_ext/682852657/plib_evic.o
 .debug_loc     0x000000000000021b      0x172 build/DSP_TU2/debug/_ext/682798829/plib_gpio.o
 .debug_loc     0x000000000000038d      0x526 build/DSP_TU2/debug/_ext/957679836/plib_spi1_master.o
 .debug_loc     0x00000000000008b3      0x526 build/DSP_TU2/debug/_ext/957679836/plib_spi3_master.o
 .debug_loc     0x0000000000000dd9      0x526 build/DSP_TU2/debug/_ext/957679836/plib_spi2_master.o
 .debug_loc     0x00000000000012ff       0x42 build/DSP_TU2/debug/_ext/255081301/plib_tmr2.o
 .debug_loc     0x0000000000001341      0xb64 build/DSP_TU2/debug/_ext/682395886/plib_uart2.o
 .debug_loc     0x0000000000001ea5       0x51 build/DSP_TU2/debug/_ext/1994557280/initialization.o
 .debug_loc     0x0000000000001ef6       0xb4 build/DSP_TU2/debug/_ext/1994557280/interrupts.o
 .debug_loc     0x0000000000001faa       0x80 build/DSP_TU2/debug/_ext/1994557280/exceptions.o
 .debug_loc     0x000000000000202a      0x11b build/DSP_TU2/debug/_ext/1360937237/main.o
 .debug_loc     0x0000000000002145       0x8e build/DSP_TU2/debug/_ext/1360937237/AfskGen.o
 .debug_loc     0x00000000000021d3       0x74 build/DSP_TU2/debug/_ext/1360937237/BaudotUart.o
 .debug_loc     0x0000000000002247       0xb8 build/DSP_TU2/debug/_ext/1360937237/DynamicThreshold.o
 .debug_loc     0x00000000000022ff       0x54 build/DSP_TU2/debug/_ext/1360937237/PwmAudioOut.o
 .debug_loc     0x0000000000002353       0xa4 build/DSP_TU2/debug/_ext/1360937237/agc.o
 .debug_loc     0x00000000000023f7      0x649 build/DSP_TU2/debug/_ext/1360937237/biquad.o
 .debug_loc     0x0000000000002a40       0x54 build/DSP_TU2/debug/_ext/1360937237/dds.o
 .debug_loc     0x0000000000002a94      0x490 build/DSP_TU2/debug/_ext/1360937237/display.o
 .debug_loc     0x0000000000002f24       0xde build/DSP_TU2/debug/_ext/1360937237/fifo16.o
 .debug_loc     0x0000000000003002       0xc7 build/DSP_TU2/debug/_ext/1360937237/xyScope.o
 .debug_loc     0x00000000000030c9       0x20 build/DSP_TU2/debug/_ext/1360937237/PollEncoder.o
 .debug_loc     0x00000000000030e9      0xbd3 c:/program files/microchip/xc32/v4.00/bin/bin/../../lib/gcc/pic32mx/8.3.1/../../../../pic32mx/lib/fpu64\libc-musl.a(malloc.o)
 .debug_loc     0x0000000000003cbc       0x4f c:/program files/microchip/xc32/v4.00/bin/bin/../../lib/gcc/pic32mx/8.3.1/../../../../pic32mx/lib/fpu64\libc-musl.a(expand_heap.o)
 .debug_loc     0x0000000000003d0b       0x5f c:/program files/microchip/xc32/v4.00/bin/bin/../../lib/gcc/pic32mx/8.3.1/../../../../pic32mx/lib/fpu64\libc-musl.a(__sio_sprintf_doux.o)
 .debug_loc     0x0000000000003d6a      0x225 c:/program files/microchip/xc32/v4.00/bin/bin/../../lib/gcc/pic32mx/8.3.1/../../../../pic32mx/lib/fpu64\libc-musl.a(__fmt_d.o)
 .debug_loc     0x0000000000003f8f       0xf2 c:/program files/microchip/xc32/v4.00/bin/bin/../../lib/gcc/pic32mx/8.3.1/../../../../pic32mx/lib/fpu64\libc-musl.a(__fmt_o.o)
 .debug_loc     0x0000000000004081      0x11c c:/program files/microchip/xc32/v4.00/bin/bin/../../lib/gcc/pic32mx/8.3.1/../../../../pic32mx/lib/fpu64\libc-musl.a(__fmt_s.o)
 .debug_loc     0x000000000000419d      0x2cb c:/program files/microchip/xc32/v4.00/bin/bin/../../lib/gcc/pic32mx/8.3.1/../../../../pic32mx/lib/fpu64\libc-musl.a(__fmt_u.o)
 .debug_loc     0x0000000000004468      0x2a7 c:/program files/microchip/xc32/v4.00/bin/bin/../../lib/gcc/pic32mx/8.3.1/../../../../pic32mx/lib/fpu64\libc-musl.a(__fmt_x.o)
 .debug_loc     0x000000000000470f      0x556 c:/program files/microchip/xc32/v4.00/bin/bin/../../lib/gcc/pic32mx/8.3.1/../../../../pic32mx/lib/fpu64\libc-musl.a(__printf_core.o)
 .debug_loc     0x0000000000004c65       0xbe c:/program files/microchip/xc32/v4.00/bin/bin/../../lib/gcc/pic32mx/8.3.1/../../../../pic32mx/lib/fpu64\libc-musl.a(atoi.o)
 .debug_loc     0x0000000000004d23      0x118 c:/program files/microchip/xc32/v4.00/bin/bin/../../lib/gcc/pic32mx/8.3.1/../../../../pic32mx/lib/fpu64\libc-musl.a(memcpy.o)
 .debug_loc     0x0000000000004e3b       0x96 c:/program files/microchip/xc32/v4.00/bin/bin/../../lib/gcc/pic32mx/8.3.1/../../../../pic32mx/lib/fpu64\libc-musl.a(memset.o)
 .debug_loc     0x0000000000004ed1       0x89 c:/program files/microchip/xc32/v4.00/bin/bin/../../lib/gcc/pic32mx/8.3.1/../../../../pic32mx/lib/fpu64\libc-musl.a(__int_vsprintf.o)
 .debug_loc     0x0000000000004f5a       0x40 c:/program files/microchip/xc32/v4.00/bin/bin/../../lib/gcc/pic32mx/8.3.1/../../../../pic32mx/lib/fpu64\libc-musl.a(__pop_ptr.o)
 .debug_loc     0x0000000000004f9a      0x113 c:/program files/microchip/xc32/v4.00/bin/bin/../../lib/gcc/pic32mx/8.3.1/../../../../pic32mx/lib/fpu64\libc-musl.a(__int_vsnprintf.o)
 .debug_loc     0x00000000000050ad       0x9f c:/program files/microchip/xc32/v4.00/bin/bin/../../lib/gcc/pic32mx/8.3.1/../../../../pic32mx/lib/fpu64\libc-musl.a(__int_vfprintf.o)
 .debug_loc     0x000000000000514c      0x11f c:/program files/microchip/xc32/v4.00/bin/bin/../../lib/gcc/pic32mx/8.3.1/../../../../pic32mx/lib/fpu64\libm-musl.a(cos.o)
 .debug_loc     0x000000000000526b     0x104f c:/program files/microchip/xc32/v4.00/bin/bin/../../lib/gcc/pic32mx/8.3.1/../../../../pic32mx/lib/fpu64\libm-musl.a(pow.o)
 .debug_loc     0x00000000000062ba      0x16e c:/program files/microchip/xc32/v4.00/bin/bin/../../lib/gcc/pic32mx/8.3.1/../../../../pic32mx/lib/fpu64\libm-musl.a(scalbn.o)
 .debug_loc     0x0000000000006428      0x164 c:/program files/microchip/xc32/v4.00/bin/bin/../../lib/gcc/pic32mx/8.3.1/../../../../pic32mx/lib/fpu64\libm-musl.a(sin.o)
 .debug_loc     0x000000000000658c      0x407 c:/program files/microchip/xc32/v4.00/bin/bin/../../lib/gcc/pic32mx/8.3.1/../../../../pic32mx/lib/fpu64\libm-musl.a(sqrt.o)
 .debug_loc     0x0000000000006993      0x320 c:/program files/microchip/xc32/v4.00/bin/bin/../../lib/gcc/pic32mx/8.3.1/../../../../pic32mx/lib/fpu64\libm-musl.a(__cos.o)
 .debug_loc     0x0000000000006cb3      0x880 c:/program files/microchip/xc32/v4.00/bin/bin/../../lib/gcc/pic32mx/8.3.1/../../../../pic32mx/lib/fpu64\libm-musl.a(__rem_pio2.o)
 .debug_loc     0x0000000000007533      0xb40 c:/program files/microchip/xc32/v4.00/bin/bin/../../lib/gcc/pic32mx/8.3.1/../../../../pic32mx/lib/fpu64\libm-musl.a(__rem_pio2_large.o)
 .debug_loc     0x0000000000008073      0x21f c:/program files/microchip/xc32/v4.00/bin/bin/../../lib/gcc/pic32mx/8.3.1/../../../../pic32mx/lib/fpu64\libm-musl.a(__sin.o)
 .debug_loc     0x0000000000008292       0x38 c:/program files/microchip/xc32/v4.00/bin/bin/../../lib/gcc/pic32mx/8.3.1/../../../../pic32mx/lib/fpu64\libm-musl.a(fabs.o)
 .debug_loc     0x00000000000082ca       0x7e c:/program files/microchip/xc32/v4.00/bin/bin/../../lib/gcc/pic32mx/8.3.1/../../../../pic32mx/lib/fpu64\libm-musl.a(floor.o)
 .debug_loc     0x0000000000008348       0x6c c:/program files/microchip/xc32/v4.00/bin/bin/../../lib/gcc/pic32mx/8.3.1/../../../../pic32mx/lib/fpu64\libpic32.a(sbrk.o)
 .debug_loc     0x00000000000083b4       0x99 c:/program files/microchip/xc32/v4.00/bin/bin/../../lib/gcc/pic32mx/8.3.1/fpu64\libgcc.a(_lshrdi3.o)
 .debug_loc     0x000000000000844d       0x75 c:/program files/microchip/xc32/v4.00/bin/bin/../../lib/gcc/pic32mx/8.3.1/fpu64\libgcc.a(_ashldi3.o)
 .debug_loc     0x00000000000084c2      0xb5b c:/program files/microchip/xc32/v4.00/bin/bin/../../lib/gcc/pic32mx/8.3.1/fpu64\libgcc.a(_udivdi3.o)
 .debug_loc     0x000000000000901d      0x969 c:/program files/microchip/xc32/v4.00/bin/bin/../../lib/gcc/pic32mx/8.3.1/fpu64\libgcc.a(_umoddi3.o)

.debug_macinfo
 *.elf(.debug_macinfo)
 *(.debug_macinfo)

.debug_weaknames
 *.elf(.debug_weaknames)
 *(.debug_weaknames)

.debug_funcnames
 *.elf(.debug_funcnames)
 *(.debug_funcnames)

.debug_typenames
 *.elf(.debug_typenames)
 *(.debug_typenames)

.debug_varnames
 *.elf(.debug_varnames)
 *(.debug_varnames)

.debug_pubtypes
 *.elf(.debug_pubtypes)
 *(.debug_pubtypes)

.debug_ranges   0x0000000000000000      0xf70
 *.elf(.debug_ranges)
 *(.debug_ranges)
 .debug_ranges  0x0000000000000000       0x10 c:/program files/microchip/xc32/v4.00/bin/bin/../../lib/gcc/pic32mx/8.3.1/../../../../pic32mx/lib/fpu64\software-debug-break.o
 .debug_ranges  0x0000000000000010       0x78 build/DSP_TU2/debug/_ext/302168295/plib_adchs.o
 .debug_ranges  0x0000000000000088       0x10 build/DSP_TU2/debug/_ext/255064926/plib_clk.o
 .debug_ranges  0x0000000000000098       0x58 build/DSP_TU2/debug/_ext/682852657/plib_evic.o
 .debug_ranges  0x00000000000000f0       0x50 build/DSP_TU2/debug/_ext/682798829/plib_gpio.o
 .debug_ranges  0x0000000000000140       0x38 build/DSP_TU2/debug/_ext/682572869/plib_ocmp1.o
 .debug_ranges  0x0000000000000178       0x38 build/DSP_TU2/debug/_ext/957679836/plib_spi1_master.o
 .debug_ranges  0x00000000000001b0       0x38 build/DSP_TU2/debug/_ext/957679836/plib_spi3_master.o
 .debug_ranges  0x00000000000001e8       0x38 build/DSP_TU2/debug/_ext/957679836/plib_spi2_master.o
 .debug_ranges  0x0000000000000220       0x60 build/DSP_TU2/debug/_ext/255081301/plib_tmr2.o
 .debug_ranges  0x0000000000000280      0x198 build/DSP_TU2/debug/_ext/682395886/plib_uart2.o
 .debug_ranges  0x0000000000000418       0x18 build/DSP_TU2/debug/_ext/775482278/xc32_monitor.o
 .debug_ranges  0x0000000000000430       0x10 build/DSP_TU2/debug/_ext/1994557280/initialization.o
 .debug_ranges  0x0000000000000440       0x28 build/DSP_TU2/debug/_ext/1994557280/interrupts.o
 .debug_ranges  0x0000000000000468       0x28 build/DSP_TU2/debug/_ext/1994557280/exceptions.o
 .debug_ranges  0x0000000000000490       0x18 build/DSP_TU2/debug/_ext/1360937237/main.o
 .debug_ranges  0x00000000000004a8       0x18 build/DSP_TU2/debug/_ext/1360937237/AfskGen.o
 .debug_ranges  0x00000000000004c0       0x10 build/DSP_TU2/debug/_ext/1360937237/BaudotUart.o
 .debug_ranges  0x00000000000004d0       0x18 build/DSP_TU2/debug/_ext/1360937237/DynamicThreshold.o
 .debug_ranges  0x00000000000004e8       0x10 build/DSP_TU2/debug/_ext/1360937237/PwmAudioOut.o
 .debug_ranges  0x00000000000004f8       0x18 build/DSP_TU2/debug/_ext/1360937237/agc.o
 .debug_ranges  0x0000000000000510       0x18 build/DSP_TU2/debug/_ext/1360937237/biquad.o
 .debug_ranges  0x0000000000000528       0x18 build/DSP_TU2/debug/_ext/1360937237/dds.o
 .debug_ranges  0x0000000000000540       0x58 build/DSP_TU2/debug/_ext/1360937237/display.o
 .debug_ranges  0x0000000000000598       0x38 build/DSP_TU2/debug/_ext/1360937237/fifo16.o
 .debug_ranges  0x00000000000005d0       0x10 build/DSP_TU2/debug/_ext/1360937237/xyScope.o
 .debug_ranges  0x00000000000005e0       0x10 build/DSP_TU2/debug/_ext/1360937237/PollSwitchesLeds.o
 .debug_ranges  0x00000000000005f0       0x10 build/DSP_TU2/debug/_ext/1360937237/PollEncoder.o
 .debug_ranges  0x0000000000000600       0x48 C:\Users\HAROLD~1\AppData\Local\Temp\ccOhslTW.o
 .debug_ranges  0x0000000000000648       0x10 c:/program files/microchip/xc32/v4.00/bin/bin/../../lib/gcc/pic32mx/8.3.1/../../../../pic32mx/lib/fpu64\libpic32.a(default-on-reset.o)
 .debug_ranges  0x0000000000000658       0x10 c:/program files/microchip/xc32/v4.00/bin/bin/../../lib/gcc/pic32mx/8.3.1/../../../../pic32mx/lib/fpu64\libpic32.a(default-on-bootstrap.o)
 .debug_ranges  0x0000000000000668       0x10 c:/program files/microchip/xc32/v4.00/bin/bin/../../lib/gcc/pic32mx/8.3.1/../../../../pic32mx/lib/fpu64\libpic32.a(defaultinterrupt.o)
 .debug_ranges  0x0000000000000678      0x1e8 c:/program files/microchip/xc32/v4.00/bin/bin/../../lib/gcc/pic32mx/8.3.1/../../../../pic32mx/lib/fpu64\libc-musl.a(malloc.o)
 .debug_ranges  0x0000000000000860       0x10 c:/program files/microchip/xc32/v4.00/bin/bin/../../lib/gcc/pic32mx/8.3.1/../../../../pic32mx/lib/fpu64\libc-musl.a(expand_heap.o)
 .debug_ranges  0x0000000000000870       0x18 c:/program files/microchip/xc32/v4.00/bin/bin/../../lib/gcc/pic32mx/8.3.1/../../../../pic32mx/lib/fpu64\libc-musl.a(__sio_sprintf_doux.o)
 .debug_ranges  0x0000000000000888       0x10 c:/program files/microchip/xc32/v4.00/bin/bin/../../lib/gcc/pic32mx/8.3.1/../../../../pic32mx/lib/fpu64\libc-musl.a(__fmt_d.o)
 .debug_ranges  0x0000000000000898       0x10 c:/program files/microchip/xc32/v4.00/bin/bin/../../lib/gcc/pic32mx/8.3.1/../../../../pic32mx/lib/fpu64\libc-musl.a(__fmt_o.o)
 .debug_ranges  0x00000000000008a8       0x10 c:/program files/microchip/xc32/v4.00/bin/bin/../../lib/gcc/pic32mx/8.3.1/../../../../pic32mx/lib/fpu64\libc-musl.a(__fmt_s.o)
 .debug_ranges  0x00000000000008b8       0x18 c:/program files/microchip/xc32/v4.00/bin/bin/../../lib/gcc/pic32mx/8.3.1/../../../../pic32mx/lib/fpu64\libc-musl.a(__fmt_u.o)
 .debug_ranges  0x00000000000008d0       0x10 c:/program files/microchip/xc32/v4.00/bin/bin/../../lib/gcc/pic32mx/8.3.1/../../../../pic32mx/lib/fpu64\libc-musl.a(__fmt_x.o)
 .debug_ranges  0x00000000000008e0       0xf0 c:/program files/microchip/xc32/v4.00/bin/bin/../../lib/gcc/pic32mx/8.3.1/../../../../pic32mx/lib/fpu64\libc-musl.a(__printf_core.o)
 .debug_ranges  0x00000000000009d0       0x28 c:/program files/microchip/xc32/v4.00/bin/bin/../../lib/gcc/pic32mx/8.3.1/../../../../pic32mx/lib/fpu64\libc-musl.a(atoi.o)
 .debug_ranges  0x00000000000009f8       0x10 c:/program files/microchip/xc32/v4.00/bin/bin/../../lib/gcc/pic32mx/8.3.1/../../../../pic32mx/lib/fpu64\libc-musl.a(memcpy.o)
 .debug_ranges  0x0000000000000a08       0x10 c:/program files/microchip/xc32/v4.00/bin/bin/../../lib/gcc/pic32mx/8.3.1/../../../../pic32mx/lib/fpu64\libc-musl.a(memset.o)
 .debug_ranges  0x0000000000000a18       0x18 c:/program files/microchip/xc32/v4.00/bin/bin/../../lib/gcc/pic32mx/8.3.1/../../../../pic32mx/lib/fpu64\libc-musl.a(tolower.o)
 .debug_ranges  0x0000000000000a30       0x18 c:/program files/microchip/xc32/v4.00/bin/bin/../../lib/gcc/pic32mx/8.3.1/../../../../pic32mx/lib/fpu64\libc-musl.a(toupper.o)
 .debug_ranges  0x0000000000000a48       0x10 c:/program files/microchip/xc32/v4.00/bin/bin/../../lib/gcc/pic32mx/8.3.1/../../../../pic32mx/lib/fpu64\libc-musl.a(__int_vsprintf.o)
 .debug_ranges  0x0000000000000a58       0x10 c:/program files/microchip/xc32/v4.00/bin/bin/../../lib/gcc/pic32mx/8.3.1/../../../../pic32mx/lib/fpu64\libc-musl.a(__pop_float.o)
 .debug_ranges  0x0000000000000a68       0x10 c:/program files/microchip/xc32/v4.00/bin/bin/../../lib/gcc/pic32mx/8.3.1/../../../../pic32mx/lib/fpu64\libc-musl.a(__pop_int.o)
 .debug_ranges  0x0000000000000a78       0x10 c:/program files/microchip/xc32/v4.00/bin/bin/../../lib/gcc/pic32mx/8.3.1/../../../../pic32mx/lib/fpu64\libc-musl.a(__pop_ptr.o)
 .debug_ranges  0x0000000000000a88       0x10 c:/program files/microchip/xc32/v4.00/bin/bin/../../lib/gcc/pic32mx/8.3.1/../../../../pic32mx/lib/fpu64\libc-musl.a(__int_vsnprintf.o)
 .debug_ranges  0x0000000000000a98       0x10 c:/program files/microchip/xc32/v4.00/bin/bin/../../lib/gcc/pic32mx/8.3.1/../../../../pic32mx/lib/fpu64\libc-musl.a(__int_vfprintf.o)
 .debug_ranges  0x0000000000000aa8       0x48 c:/program files/microchip/xc32/v4.00/bin/bin/../../lib/gcc/pic32mx/8.3.1/../../../../pic32mx/lib/fpu64\libm-musl.a(cos.o)
 .debug_ranges  0x0000000000000af0      0x1c0 c:/program files/microchip/xc32/v4.00/bin/bin/../../lib/gcc/pic32mx/8.3.1/../../../../pic32mx/lib/fpu64\libm-musl.a(pow.o)
 .debug_ranges  0x0000000000000cb0       0x10 c:/program files/microchip/xc32/v4.00/bin/bin/../../lib/gcc/pic32mx/8.3.1/../../../../pic32mx/lib/fpu64\libm-musl.a(scalbn.o)
 .debug_ranges  0x0000000000000cc0       0x48 c:/program files/microchip/xc32/v4.00/bin/bin/../../lib/gcc/pic32mx/8.3.1/../../../../pic32mx/lib/fpu64\libm-musl.a(sin.o)
 .debug_ranges  0x0000000000000d08       0x40 c:/program files/microchip/xc32/v4.00/bin/bin/../../lib/gcc/pic32mx/8.3.1/../../../../pic32mx/lib/fpu64\libm-musl.a(sqrt.o)
 .debug_ranges  0x0000000000000d48       0x10 c:/program files/microchip/xc32/v4.00/bin/bin/../../lib/gcc/pic32mx/8.3.1/../../../../pic32mx/lib/fpu64\libm-musl.a(__cos.o)
 .debug_ranges  0x0000000000000d58       0x10 c:/program files/microchip/xc32/v4.00/bin/bin/../../lib/gcc/pic32mx/8.3.1/../../../../pic32mx/lib/fpu64\libm-musl.a(__rem_pio2.o)
 .debug_ranges  0x0000000000000d68       0x10 c:/program files/microchip/xc32/v4.00/bin/bin/../../lib/gcc/pic32mx/8.3.1/../../../../pic32mx/lib/fpu64\libm-musl.a(__rem_pio2_large.o)
 .debug_ranges  0x0000000000000d78       0x10 c:/program files/microchip/xc32/v4.00/bin/bin/../../lib/gcc/pic32mx/8.3.1/../../../../pic32mx/lib/fpu64\libm-musl.a(__sin.o)
 .debug_ranges  0x0000000000000d88       0x10 c:/program files/microchip/xc32/v4.00/bin/bin/../../lib/gcc/pic32mx/8.3.1/../../../../pic32mx/lib/fpu64\libm-musl.a(fabs.o)
 .debug_ranges  0x0000000000000d98       0x10 c:/program files/microchip/xc32/v4.00/bin/bin/../../lib/gcc/pic32mx/8.3.1/../../../../pic32mx/lib/fpu64\libm-musl.a(floor.o)
 .debug_ranges  0x0000000000000da8       0x58 c:/program files/microchip/xc32/v4.00/bin/bin/../../lib/gcc/pic32mx/8.3.1/../../../../pic32mx/lib/fpu64\libpic32.a(sbrk.o)
 .debug_ranges  0x0000000000000e00       0xd0 c:/program files/microchip/xc32/v4.00/bin/bin/../../lib/gcc/pic32mx/8.3.1/fpu64\libgcc.a(_udivdi3.o)
 .debug_ranges  0x0000000000000ed0       0xa0 c:/program files/microchip/xc32/v4.00/bin/bin/../../lib/gcc/pic32mx/8.3.1/fpu64\libgcc.a(_umoddi3.o)

.gnu.attributes
                0x0000000000000000       0x10
 *(.gnu.attributes)
 .gnu.attributes
                0x0000000000000000       0x10 c:/program files/microchip/xc32/v4.00/bin/bin/../../lib/gcc/pic32mx/8.3.1/../../../../pic32mx/lib/fpu64\software-debug-break.o
 .gnu.attributes
                0x0000000000000010       0x10 build/DSP_TU2/debug/_ext/302168295/plib_adchs.o
 .gnu.attributes
                0x0000000000000020       0x10 build/DSP_TU2/debug/_ext/255064926/plib_clk.o
 .gnu.attributes
                0x0000000000000030       0x10 build/DSP_TU2/debug/_ext/682852657/plib_evic.o
 .gnu.attributes
                0x0000000000000040       0x10 build/DSP_TU2/debug/_ext/682798829/plib_gpio.o
 .gnu.attributes
                0x0000000000000050       0x10 build/DSP_TU2/debug/_ext/682572869/plib_ocmp1.o
 .gnu.attributes
                0x0000000000000060       0x10 build/DSP_TU2/debug/_ext/957679836/plib_spi1_master.o
 .gnu.attributes
                0x0000000000000070       0x10 build/DSP_TU2/debug/_ext/957679836/plib_spi3_master.o
 .gnu.attributes
                0x0000000000000080       0x10 build/DSP_TU2/debug/_ext/957679836/plib_spi2_master.o
 .gnu.attributes
                0x0000000000000090       0x10 build/DSP_TU2/debug/_ext/255081301/plib_tmr2.o
 .gnu.attributes
                0x00000000000000a0       0x10 build/DSP_TU2/debug/_ext/682395886/plib_uart2.o
 .gnu.attributes
                0x00000000000000b0       0x10 build/DSP_TU2/debug/_ext/775482278/xc32_monitor.o
 .gnu.attributes
                0x00000000000000c0       0x10 build/DSP_TU2/debug/_ext/1994557280/initialization.o
 .gnu.attributes
                0x00000000000000d0       0x10 build/DSP_TU2/debug/_ext/1994557280/interrupts.o
 .gnu.attributes
                0x00000000000000e0       0x10 build/DSP_TU2/debug/_ext/1994557280/exceptions.o
 .gnu.attributes
                0x00000000000000f0       0x10 build/DSP_TU2/debug/_ext/1360937237/main.o
 .gnu.attributes
                0x0000000000000100       0x10 build/DSP_TU2/debug/_ext/1360937237/AfskGen.o
 .gnu.attributes
                0x0000000000000110       0x10 build/DSP_TU2/debug/_ext/1360937237/BaudotUart.o
 .gnu.attributes
                0x0000000000000120       0x10 build/DSP_TU2/debug/_ext/1360937237/DynamicThreshold.o
 .gnu.attributes
                0x0000000000000130       0x10 build/DSP_TU2/debug/_ext/1360937237/PwmAudioOut.o
 .gnu.attributes
                0x0000000000000140       0x10 build/DSP_TU2/debug/_ext/1360937237/agc.o
 .gnu.attributes
                0x0000000000000150       0x10 build/DSP_TU2/debug/_ext/1360937237/biquad.o
 .gnu.attributes
                0x0000000000000160       0x10 build/DSP_TU2/debug/_ext/1360937237/dds.o
 .gnu.attributes
                0x0000000000000170       0x10 build/DSP_TU2/debug/_ext/1360937237/display.o
 .gnu.attributes
                0x0000000000000180       0x10 build/DSP_TU2/debug/_ext/1360937237/fifo16.o
 .gnu.attributes
                0x0000000000000190       0x10 build/DSP_TU2/debug/_ext/1360937237/xyScope.o
 .gnu.attributes
                0x00000000000001a0       0x10 build/DSP_TU2/debug/_ext/1360937237/PollSwitchesLeds.o
 .gnu.attributes
                0x00000000000001b0       0x10 build/DSP_TU2/debug/_ext/1360937237/PollEncoder.o
 .gnu.attributes
                0x00000000000001c0       0x10 C:\Users\HAROLD~1\AppData\Local\Temp\ccOhslTW.o
 .gnu.attributes
                0x00000000000001d0       0x10 C:\Users\HAROLD~1\AppData\Local\Temp\ccjemF1d.o
 .gnu.attributes
                0x00000000000001e0       0x10 C:\Users\HAROLD~1\AppData\Local\Temp\cc9ab2up.o
 .gnu.attributes
                0x00000000000001f0       0x10 C:\Users\HAROLD~1\AppData\Local\Temp\cc0zEMnh.o
 .gnu.attributes
                0x0000000000000200       0x10 c:/program files/microchip/xc32/v4.00/bin/bin/../../lib/gcc/pic32mx/8.3.1/../../../../pic32mx/lib/fpu64\pic32_software_reset.o
 .gnu.attributes
                0x0000000000000210       0x10 c:/program files/microchip/xc32/v4.00/bin/bin/../../lib/gcc/pic32mx/8.3.1/../../../../pic32mx/lib/fpu64\libpic32.a(strlen.o)
 .gnu.attributes
                0x0000000000000220       0x10 c:/program files/microchip/xc32/v4.00/bin/bin/../../lib/gcc/pic32mx/8.3.1/../../../../pic32mx/lib/fpu64\libpic32.a(default-on-reset.o)
 .gnu.attributes
                0x0000000000000230       0x10 c:/program files/microchip/xc32/v4.00/bin/bin/../../lib/gcc/pic32mx/8.3.1/../../../../pic32mx/lib/fpu64\libpic32.a(default-on-bootstrap.o)
 .gnu.attributes
                0x0000000000000240       0x10 c:/program files/microchip/xc32/v4.00/bin/bin/../../lib/gcc/pic32mx/8.3.1/../../../../pic32mx/lib/fpu64\libpic32.a(default-nmi-handler.o)
 .gnu.attributes
                0x0000000000000250       0x10 c:/program files/microchip/xc32/v4.00/bin/bin/../../lib/gcc/pic32mx/8.3.1/../../../../pic32mx/lib/fpu64\libpic32.a(pic32_data_init.o)
 .gnu.attributes
                0x0000000000000260       0x10 c:/program files/microchip/xc32/v4.00/bin/bin/../../lib/gcc/pic32mx/8.3.1/../../../../pic32mx/lib/fpu64\libpic32.a(pic32_init_cache.o)
 .gnu.attributes
                0x0000000000000270       0x10 c:/program files/microchip/xc32/v4.00/bin/bin/../../lib/gcc/pic32mx/8.3.1/../../../../pic32mx/lib/fpu64\libpic32.a(pic32_init_tlb_ebi_sqi.o)
 .gnu.attributes
                0x0000000000000280       0x10 c:/program files/microchip/xc32/v4.00/bin/bin/../../lib/gcc/pic32mx/8.3.1/../../../../pic32mx/lib/fpu64\libpic32.a(general-exception.o)
 .gnu.attributes
                0x0000000000000290       0x10 c:/program files/microchip/xc32/v4.00/bin/bin/../../lib/gcc/pic32mx/8.3.1/../../../../pic32mx/lib/fpu64\libpic32.a(cache-err-exception.o)
 .gnu.attributes
                0x00000000000002a0       0x10 c:/program files/microchip/xc32/v4.00/bin/bin/../../lib/gcc/pic32mx/8.3.1/../../../../pic32mx/lib/fpu64\libpic32.a(simple-tlb-refill-exception.o)
 .gnu.attributes
                0x00000000000002b0       0x10 c:/program files/microchip/xc32/v4.00/bin/bin/../../lib/gcc/pic32mx/8.3.1/../../../../pic32mx/lib/fpu64\libpic32.a(defaultinterrupt.o)
 .gnu.attributes
                0x00000000000002c0       0x10 c:/program files/microchip/xc32/v4.00/bin/bin/../../lib/gcc/pic32mx/8.3.1/../../../../pic32mx/lib/fpu64\libc-musl.a(malloc.o)
 .gnu.attributes
                0x00000000000002d0       0x10 c:/program files/microchip/xc32/v4.00/bin/bin/../../lib/gcc/pic32mx/8.3.1/../../../../pic32mx/lib/fpu64\libc-musl.a(expand_heap.o)
 .gnu.attributes
                0x00000000000002e0       0x10 c:/program files/microchip/xc32/v4.00/bin/bin/../../lib/gcc/pic32mx/8.3.1/../../../../pic32mx/lib/fpu64\libc-musl.a(__sio_sprintf_doux.o)
 .gnu.attributes
                0x00000000000002f0       0x10 c:/program files/microchip/xc32/v4.00/bin/bin/../../lib/gcc/pic32mx/8.3.1/../../../../pic32mx/lib/fpu64\libc-musl.a(__fmt_d.o)
 .gnu.attributes
                0x0000000000000300       0x10 c:/program files/microchip/xc32/v4.00/bin/bin/../../lib/gcc/pic32mx/8.3.1/../../../../pic32mx/lib/fpu64\libc-musl.a(__fmt_o.o)
 .gnu.attributes
                0x0000000000000310       0x10 c:/program files/microchip/xc32/v4.00/bin/bin/../../lib/gcc/pic32mx/8.3.1/../../../../pic32mx/lib/fpu64\libc-musl.a(__fmt_s.o)
 .gnu.attributes
                0x0000000000000320       0x10 c:/program files/microchip/xc32/v4.00/bin/bin/../../lib/gcc/pic32mx/8.3.1/../../../../pic32mx/lib/fpu64\libc-musl.a(__fmt_u.o)
 .gnu.attributes
                0x0000000000000330       0x10 c:/program files/microchip/xc32/v4.00/bin/bin/../../lib/gcc/pic32mx/8.3.1/../../../../pic32mx/lib/fpu64\libc-musl.a(__fmt_x.o)
 .gnu.attributes
                0x0000000000000340       0x10 c:/program files/microchip/xc32/v4.00/bin/bin/../../lib/gcc/pic32mx/8.3.1/../../../../pic32mx/lib/fpu64\libc-musl.a(__printf_core.o)
 .gnu.attributes
                0x0000000000000350       0x10 c:/program files/microchip/xc32/v4.00/bin/bin/../../lib/gcc/pic32mx/8.3.1/../../../../pic32mx/lib/fpu64\libc-musl.a(atoi.o)
 .gnu.attributes
                0x0000000000000360       0x10 c:/program files/microchip/xc32/v4.00/bin/bin/../../lib/gcc/pic32mx/8.3.1/../../../../pic32mx/lib/fpu64\libc-musl.a(memcpy.o)
 .gnu.attributes
                0x0000000000000370       0x10 c:/program files/microchip/xc32/v4.00/bin/bin/../../lib/gcc/pic32mx/8.3.1/../../../../pic32mx/lib/fpu64\libc-musl.a(memset.o)
 .gnu.attributes
                0x0000000000000380       0x10 c:/program files/microchip/xc32/v4.00/bin/bin/../../lib/gcc/pic32mx/8.3.1/../../../../pic32mx/lib/fpu64\libc-musl.a(tolower.o)
 .gnu.attributes
                0x0000000000000390       0x10 c:/program files/microchip/xc32/v4.00/bin/bin/../../lib/gcc/pic32mx/8.3.1/../../../../pic32mx/lib/fpu64\libc-musl.a(toupper.o)
 .gnu.attributes
                0x00000000000003a0       0x10 c:/program files/microchip/xc32/v4.00/bin/bin/../../lib/gcc/pic32mx/8.3.1/../../../../pic32mx/lib/fpu64\libc-musl.a(libc.o)
 .gnu.attributes
                0x00000000000003b0       0x10 c:/program files/microchip/xc32/v4.00/bin/bin/../../lib/gcc/pic32mx/8.3.1/../../../../pic32mx/lib/fpu64\libc-musl.a(__int_vsprintf.o)
 .gnu.attributes
                0x00000000000003c0       0x10 c:/program files/microchip/xc32/v4.00/bin/bin/../../lib/gcc/pic32mx/8.3.1/../../../../pic32mx/lib/fpu64\libc-musl.a(__pop_float.o)
 .gnu.attributes
                0x00000000000003d0       0x10 c:/program files/microchip/xc32/v4.00/bin/bin/../../lib/gcc/pic32mx/8.3.1/../../../../pic32mx/lib/fpu64\libc-musl.a(__pop_int.o)
 .gnu.attributes
                0x00000000000003e0       0x10 c:/program files/microchip/xc32/v4.00/bin/bin/../../lib/gcc/pic32mx/8.3.1/../../../../pic32mx/lib/fpu64\libc-musl.a(__pop_ptr.o)
 .gnu.attributes
                0x00000000000003f0       0x10 c:/program files/microchip/xc32/v4.00/bin/bin/../../lib/gcc/pic32mx/8.3.1/../../../../pic32mx/lib/fpu64\libc-musl.a(__int_vsnprintf.o)
 .gnu.attributes
                0x0000000000000400       0x10 c:/program files/microchip/xc32/v4.00/bin/bin/../../lib/gcc/pic32mx/8.3.1/../../../../pic32mx/lib/fpu64\libc-musl.a(__int_vfprintf.o)
 .gnu.attributes
                0x0000000000000410       0x10 c:/program files/microchip/xc32/v4.00/bin/bin/../../lib/gcc/pic32mx/8.3.1/../../../../pic32mx/lib/fpu64\libm-musl.a(cos.o)
 .gnu.attributes
                0x0000000000000420       0x10 c:/program files/microchip/xc32/v4.00/bin/bin/../../lib/gcc/pic32mx/8.3.1/../../../../pic32mx/lib/fpu64\libm-musl.a(pow.o)
 .gnu.attributes
                0x0000000000000430       0x10 c:/program files/microchip/xc32/v4.00/bin/bin/../../lib/gcc/pic32mx/8.3.1/../../../../pic32mx/lib/fpu64\libm-musl.a(scalbn.o)
 .gnu.attributes
                0x0000000000000440       0x10 c:/program files/microchip/xc32/v4.00/bin/bin/../../lib/gcc/pic32mx/8.3.1/../../../../pic32mx/lib/fpu64\libm-musl.a(sin.o)
 .gnu.attributes
                0x0000000000000450       0x10 c:/program files/microchip/xc32/v4.00/bin/bin/../../lib/gcc/pic32mx/8.3.1/../../../../pic32mx/lib/fpu64\libm-musl.a(sqrt.o)
 .gnu.attributes
                0x0000000000000460       0x10 c:/program files/microchip/xc32/v4.00/bin/bin/../../lib/gcc/pic32mx/8.3.1/../../../../pic32mx/lib/fpu64\libm-musl.a(__cos.o)
 .gnu.attributes
                0x0000000000000470       0x10 c:/program files/microchip/xc32/v4.00/bin/bin/../../lib/gcc/pic32mx/8.3.1/../../../../pic32mx/lib/fpu64\libm-musl.a(__rem_pio2.o)
 .gnu.attributes
                0x0000000000000480       0x10 c:/program files/microchip/xc32/v4.00/bin/bin/../../lib/gcc/pic32mx/8.3.1/../../../../pic32mx/lib/fpu64\libm-musl.a(__rem_pio2_large.o)
 .gnu.attributes
                0x0000000000000490       0x10 c:/program files/microchip/xc32/v4.00/bin/bin/../../lib/gcc/pic32mx/8.3.1/../../../../pic32mx/lib/fpu64\libm-musl.a(__sin.o)
 .gnu.attributes
                0x00000000000004a0       0x10 c:/program files/microchip/xc32/v4.00/bin/bin/../../lib/gcc/pic32mx/8.3.1/../../../../pic32mx/lib/fpu64\libm-musl.a(fabs.o)
 .gnu.attributes
                0x00000000000004b0       0x10 c:/program files/microchip/xc32/v4.00/bin/bin/../../lib/gcc/pic32mx/8.3.1/../../../../pic32mx/lib/fpu64\libm-musl.a(floor.o)
 .gnu.attributes
                0x00000000000004c0       0x10 c:/program files/microchip/xc32/v4.00/bin/bin/../../lib/gcc/pic32mx/8.3.1/../../../../pic32mx/lib/fpu64\libpic32.a(sbrk.o)
 .gnu.attributes
                0x00000000000004d0       0x10 c:/program files/microchip/xc32/v4.00/bin/bin/../../lib/gcc/pic32mx/8.3.1/../../../../pic32mx/lib/fpu64\libpic32.a(errno.o)
 .gnu.attributes
                0x00000000000004e0       0x10 c:/program files/microchip/xc32/v4.00/bin/bin/../../lib/gcc/pic32mx/8.3.1/fpu64\libgcc.a(_lshrdi3.o)
 .gnu.attributes
                0x00000000000004f0       0x10 c:/program files/microchip/xc32/v4.00/bin/bin/../../lib/gcc/pic32mx/8.3.1/fpu64\libgcc.a(_ashldi3.o)
 .gnu.attributes
                0x0000000000000500       0x10 c:/program files/microchip/xc32/v4.00/bin/bin/../../lib/gcc/pic32mx/8.3.1/fpu64\libgcc.a(_udivdi3.o)
 .gnu.attributes
                0x0000000000000510       0x10 c:/program files/microchip/xc32/v4.00/bin/bin/../../lib/gcc/pic32mx/8.3.1/fpu64\libgcc.a(_umoddi3.o)
                0x000000009d000000                PROVIDE (__pic32_init_cache_program_base_addr = 0x9d000000)
                0x0000000080000000                PROVIDE (__pic32_init_cache_data_base_addr = 0x80000000)
                0x00000000d0000000                PROVIDE (__pic32_init_sqi_kseg2_virtual_base_addr = 0xd0000000)
                0x0000000030000000                PROVIDE (__pic32_init_sqi_kseg2_physical_base_addr = 0x30000000)
                0x000000000000001f                PROVIDE (__pic32_init_sqi_kseg2_entrylo0_bitset = 0x1f)
                0x00000000d0000000                __pic32_tlb_0_entryhi = __pic32_init_sqi_kseg2_virtual_base_addr
                0x0000000000c0001f                __pic32_tlb_0_entrylo0 = ((__pic32_init_sqi_kseg2_physical_base_addr >> 0x6) | __pic32_init_sqi_kseg2_entrylo0_bitset)
                0x0000000000c4001f                __pic32_tlb_0_entrylo1 = (__pic32_tlb_0_entrylo0 | ((__pic32_init_sqi_kseg2_physical_base_addr + 0x1000000) >> 0x6))
                0x00000000d2000000                __pic32_tlb_1_entryhi = (__pic32_init_sqi_kseg2_virtual_base_addr + 0x2000000)
                0x0000000000c8001f                __pic32_tlb_1_entrylo0 = (((__pic32_init_sqi_kseg2_physical_base_addr + 0x2000000) >> 0x6) | __pic32_init_sqi_kseg2_entrylo0_bitset)
                0x0000000000cc001f                __pic32_tlb_1_entrylo1 = (__pic32_tlb_1_entrylo0 | 0x40000)
                0x00000000f0000000                PROVIDE (__pic32_init_sqi_kseg3_virtual_base_addr = 0xf0000000)
                0x0000000030000000                PROVIDE (__pic32_init_sqi_kseg3_physical_base_addr = 0x30000000)
                0x0000000000000017                PROVIDE (__pic32_init_sqi_kseg3_entrylo0_bitset = 0x17)
                0x00000000f0000000                __pic32_tlb_2_entryhi = __pic32_init_sqi_kseg3_virtual_base_addr
                0x0000000000c00017                __pic32_tlb_2_entrylo0 = ((__pic32_init_sqi_kseg3_physical_base_addr >> 0x6) | __pic32_init_sqi_kseg3_entrylo0_bitset)
                0x0000000000c40017                __pic32_tlb_2_entrylo1 = (__pic32_tlb_2_entrylo0 | ((__pic32_init_sqi_kseg3_physical_base_addr + 0x1000000) >> 0x6))
                0x00000000f2000000                __pic32_tlb_3_entryhi = (__pic32_init_sqi_kseg3_virtual_base_addr + 0x2000000)
                0x0000000000c80017                __pic32_tlb_3_entrylo0 = (((__pic32_init_sqi_kseg3_physical_base_addr + 0x2000000) >> 0x6) | __pic32_init_sqi_kseg3_entrylo0_bitset)
                0x0000000000cc0017                __pic32_tlb_3_entrylo1 = (__pic32_tlb_3_entrylo0 | 0x40000)

.tlb_init_values
                0x00000000bfc00670       0x30
                0x00000000bfc00670                . = ALIGN (0x4)
                0x00000000bfc00670                __pic32_tlb_init_values_begin = ABSOLUTE (.)
                0x00000000bfc00670        0x4 LONG 0xd0000000 __pic32_tlb_0_entryhi
                0x00000000bfc00674        0x4 LONG 0xc0001f __pic32_tlb_0_entrylo0
                0x00000000bfc00678        0x4 LONG 0xc4001f __pic32_tlb_0_entrylo1
                0x00000000bfc0067c        0x4 LONG 0xd2000000 __pic32_tlb_1_entryhi
                0x00000000bfc00680        0x4 LONG 0xc8001f __pic32_tlb_1_entrylo0
                0x00000000bfc00684        0x4 LONG 0xcc001f __pic32_tlb_1_entrylo1
                0x00000000bfc00688        0x4 LONG 0xf0000000 __pic32_tlb_2_entryhi
                0x00000000bfc0068c        0x4 LONG 0xc00017 __pic32_tlb_2_entrylo0
                0x00000000bfc00690        0x4 LONG 0xc40017 __pic32_tlb_2_entrylo1
                0x00000000bfc00694        0x4 LONG 0xf2000000 __pic32_tlb_3_entryhi
                0x00000000bfc00698        0x4 LONG 0xc80017 __pic32_tlb_3_entrylo0
                0x00000000bfc0069c        0x4 LONG 0xcc0017 __pic32_tlb_3_entrylo1
                0x00000000bfc006a0                __pic32_tlb_init_values_end = ABSOLUTE (.)
                0x00000000bfc00674                __pic32_tlb_init_values_count = 0x4
                0x0000000000000001                __MPLAB_DEBUG = 0x1
                0x0000000000000001                __DEBUG = 0x1
                0x0000000000000001                __MPLAB_DEBUGGER_PK3 = 0x1
                0x0000000000002710                _min_heap_size = 0x2710
LOAD C:\Users\HAROLD~1\AppData\Local\Temp\ccOhslTW.o
LOAD C:\Users\HAROLD~1\AppData\Local\Temp\ccjemF1d.o
LOAD C:\Users\HAROLD~1\AppData\Local\Temp\cc9ab2up.o
LOAD C:\Users\HAROLD~1\AppData\Local\Temp\cc0zEMnh.o
LOAD c:/program files/microchip/xc32/v4.00/bin/bin/../../lib/gcc/pic32mx/8.3.1/../../../../pic32mx/lib/fpu64\pic32_software_reset.o
LOAD c:/program files/microchip/xc32/v4.00/bin/bin/../../lib/gcc/pic32mx/8.3.1/fpu64\libgcc.a
START GROUP
LOAD c:/program files/microchip/xc32/v4.00/bin/bin/../../lib/gcc/pic32mx/8.3.1/../../../../pic32mx/lib/fpu64\libpic32.a
LOAD c:/program files/microchip/xc32/v4.00/bin/bin/../../lib/gcc/pic32mx/8.3.1/../../../../pic32mx/lib/fpu64\libdebug.a
LOAD c:/program files/microchip/xc32/v4.00/bin/bin/../../lib/gcc/pic32mx/8.3.1/../../../../pic32mx/lib/fpu64\libc-musl.a
LOAD c:/program files/microchip/xc32/v4.00/bin/bin/../../lib/gcc/pic32mx/8.3.1/../../../../pic32mx/lib/fpu64\libm-musl.a
LOAD c:/program files/microchip/xc32/v4.00/bin/bin/../../lib/gcc/pic32mx/8.3.1/../../../../pic32mx/lib/fpu64\libdspr2.a
LOAD c:/program files/microchip/xc32/v4.00/bin/bin/../../lib/gcc/pic32mx/8.3.1/../../../../pic32mx/lib/fpu64\libdsp.a
END GROUP
LOAD c:/program files/microchip/xc32/v4.00/bin/bin/../../lib/gcc/pic32mx/8.3.1/fpu64\libgcc.a
OUTPUT(dist/DSP_TU2/debug/DSP_TU2.X.debug.elf elf32-tradlittlemips)
LOAD stack
LOAD data_init

.reginfo        0x0000000000000000       0x18
 .reginfo       0x0000000000000000       0x18 c:/program files/microchip/xc32/v4.00/bin/bin/../../lib/gcc/pic32mx/8.3.1/../../../../pic32mx/lib/fpu64\software-debug-break.o

.stack          0x0000000080003a00      0x400
 .stack         0x0000000080003a00      0x400 stack

.__vector_offset_BF810540_data
                0x00000000bf810540       0xe8
 .__vector_offset_BF810540_data
                0x00000000bf810540       0xe8 C:\Users\HAROLD~1\AppData\Local\Temp\cc9ab2up.o

.__vector_offset_BF81079C_data
                0x00000000bf81079c       0x64
 .__vector_offset_BF81079C_data
                0x00000000bf81079c       0x64 C:\Users\HAROLD~1\AppData\Local\Temp\cc9ab2up.o

.__vector_offset_BF810740_data
                0x00000000bf810740       0x50
 .__vector_offset_BF810740_data
                0x00000000bf810740       0x50 C:\Users\HAROLD~1\AppData\Local\Temp\cc9ab2up.o

.__vector_offset_BF81062C_data
                0x00000000bf81062c       0x4c
 .__vector_offset_BF81062C_data
                0x00000000bf81062c       0x4c C:\Users\HAROLD~1\AppData\Local\Temp\cc9ab2up.o

.__vector_offset_BF8106F4_data
                0x00000000bf8106f4       0x24
 .__vector_offset_BF8106F4_data
                0x00000000bf8106f4       0x24 C:\Users\HAROLD~1\AppData\Local\Temp\cc9ab2up.o

.__vector_offset_BF81071C_data
                0x00000000bf81071c       0x18
 .__vector_offset_BF81071C_data
                0x00000000bf81071c       0x18 C:\Users\HAROLD~1\AppData\Local\Temp\cc9ab2up.o

.__vector_offset_BF81080C_data
                0x00000000bf81080c       0x18
 .__vector_offset_BF81080C_data
                0x00000000bf81080c       0x18 C:\Users\HAROLD~1\AppData\Local\Temp\cc9ab2up.o

.__vector_offset_BF810874_data
                0x00000000bf810874       0x18
 .__vector_offset_BF810874_data
                0x00000000bf810874       0x18 C:\Users\HAROLD~1\AppData\Local\Temp\cc9ab2up.o

.__vector_offset_BF8106D8_data
                0x00000000bf8106d8       0x14
 .__vector_offset_BF8106D8_data
                0x00000000bf8106d8       0x14 C:\Users\HAROLD~1\AppData\Local\Temp\cc9ab2up.o

.__vector_offset_BF810858_data
                0x00000000bf810858       0x14
 .__vector_offset_BF810858_data
                0x00000000bf810858       0x14 C:\Users\HAROLD~1\AppData\Local\Temp\cc9ab2up.o

.__vector_offset_BF810830_data
                0x00000000bf810830        0xc
 .__vector_offset_BF810830_data
                0x00000000bf810830        0xc C:\Users\HAROLD~1\AppData\Local\Temp\cc9ab2up.o

.__vector_offset_BF810840_data
                0x00000000bf810840        0xc
 .__vector_offset_BF810840_data
                0x00000000bf810840        0xc C:\Users\HAROLD~1\AppData\Local\Temp\cc9ab2up.o

.__vector_offset_BF810850_data
                0x00000000bf810850        0x4
 .__vector_offset_BF810850_data
                0x00000000bf810850        0x4 C:\Users\HAROLD~1\AppData\Local\Temp\cc9ab2up.o

.__vector_offset_BF810894_data
                0x00000000bf810894        0x4
 .__vector_offset_BF810894_data
                0x00000000bf810894        0x4 C:\Users\HAROLD~1\AppData\Local\Temp\cc9ab2up.o

.bss            0x0000000080000584      0xa80
 .bss           0x0000000080000584      0x800 build/DSP_TU2/debug/_ext/1360937237/xyScope.o
 .bss           0x0000000080000d84      0x280 build/DSP_TU2/debug/_ext/682395886/plib_uart2.o

.bss            0x0000000080001008      0x260
 .bss           0x0000000080001008      0x210 c:/program files/microchip/xc32/v4.00/bin/bin/../../lib/gcc/pic32mx/8.3.1/../../../../pic32mx/lib/fpu64\libc-musl.a(malloc.o)
 .bss           0x0000000080001218       0x50 c:/program files/microchip/xc32/v4.00/bin/bin/../../lib/gcc/pic32mx/8.3.1/../../../../pic32mx/lib/fpu64\libc-musl.a(libc.o)
                0x0000000080001218                __progname_full
                0x0000000080001218                program_invocation_name
                0x000000008000121c                program_invocation_short_name
                0x000000008000121c                __progname
                0x0000000080001220                __sysinfo
                0x0000000080001224                __hwcap
                0x0000000080001228                __libc

.data           0x0000000080001268       0x45
 .data          0x0000000080001268       0x45 build/DSP_TU2/debug/_ext/1360937237/BaudotUart.o
                0x0000000080001268                BaudotFigs
                0x000000008000128c                BaudotLtrs

.bss            0x00000000800012b0       0x24
 .bss           0x00000000800012b0       0x24 c:/program files/microchip/xc32/v4.00/bin/bin/../../lib/gcc/pic32mx/8.3.1/../../../../pic32mx/lib/fpu64\libpic32.a(sbrk.o)
                0x00000000800012cc                _maxbrk
                0x00000000800012d0                _minbrk

.bss.errno      0x0000000080001004        0x4
 .bss.errno     0x0000000080001004        0x4 c:/program files/microchip/xc32/v4.00/bin/bin/../../lib/gcc/pic32mx/8.3.1/../../../../pic32mx/lib/fpu64\libpic32.a(errno.o)
                0x0000000080001004                errno

.text.pow       0x000000009d000268      0x8b0
 .text.pow      0x000000009d000268      0x8b0 c:/program files/microchip/xc32/v4.00/bin/bin/../../lib/gcc/pic32mx/8.3.1/../../../../pic32mx/lib/fpu64\libm-musl.a(pow.o)
                0x000000009d000268                pow

.text.__rem_pio2_large
                0x000000009d000b18      0x848
 .text.__rem_pio2_large
                0x000000009d000b18      0x848 c:/program files/microchip/xc32/v4.00/bin/bin/../../lib/gcc/pic32mx/8.3.1/../../../../pic32mx/lib/fpu64\libm-musl.a(__rem_pio2_large.o)
                0x000000009d000b18                __rem_pio2_large

.text.main      0x000000009d001360      0x604
 .text.main     0x000000009d001360      0x604 build/DSP_TU2/debug/_ext/1360937237/main.o
                0x000000009d001360                main

.text.__printf_core
                0x000000009d001964      0x588
 .text.__printf_core
                0x000000009d001964      0x588 c:/program files/microchip/xc32/v4.00/bin/bin/../../lib/gcc/pic32mx/8.3.1/../../../../pic32mx/lib/fpu64\libc-musl.a(__printf_core.o)
                0x000000009d001964                __printf_core

.dinit          0x000000009d001eec      0x540
 .dinit         0x000000009d001eec      0x540 data_init

.text.__rem_pio2
                0x000000009d00242c      0x42c
 .text.__rem_pio2
                0x000000009d00242c      0x42c c:/program files/microchip/xc32/v4.00/bin/bin/../../lib/gcc/pic32mx/8.3.1/../../../../pic32mx/lib/fpu64\libm-musl.a(__rem_pio2.o)
                0x000000009d00242c                __rem_pio2

.text           0x000000009d002858      0x7e4
 .text          0x000000009d002858      0x3f8 c:/program files/microchip/xc32/v4.00/bin/bin/../../lib/gcc/pic32mx/8.3.1/fpu64\libgcc.a(_umoddi3.o)
                0x000000009d002858                __umoddi3
 .text          0x000000009d002c50      0x3ec c:/program files/microchip/xc32/v4.00/bin/bin/../../lib/gcc/pic32mx/8.3.1/fpu64\libgcc.a(_udivdi3.o)
                0x000000009d002c50                __udivdi3

.text.BiQuad_new
                0x000000009d00303c      0x390
 .text.BiQuad_new
                0x000000009d00303c      0x390 build/DSP_TU2/debug/_ext/1360937237/biquad.o
                0x000000009d00303c                BiQuad_new

.text.malloc    0x000000009d0033cc      0x29c
 .text.malloc   0x000000009d0033cc      0x29c c:/program files/microchip/xc32/v4.00/bin/bin/../../lib/gcc/pic32mx/8.3.1/../../../../pic32mx/lib/fpu64\libc-musl.a(malloc.o)
                0x000000009d0033cc                malloc

.text.sqrt      0x000000009d003668      0x254
 .text.sqrt     0x000000009d003668      0x254 c:/program files/microchip/xc32/v4.00/bin/bin/../../lib/gcc/pic32mx/8.3.1/../../../../pic32mx/lib/fpu64\libm-musl.a(sqrt.o)
                0x000000009d003668                sqrt

.text.BaudotUartRx
                0x000000009d0038bc      0x250
 .text.BaudotUartRx
                0x000000009d0038bc      0x250 build/DSP_TU2/debug/_ext/1360937237/BaudotUart.o
                0x000000009d0038bc                BaudotUartRx

.text.__fmt_x   0x000000009d003b0c      0x210
 .text.__fmt_x  0x000000009d003b0c      0x210 c:/program files/microchip/xc32/v4.00/bin/bin/../../lib/gcc/pic32mx/8.3.1/../../../../pic32mx/lib/fpu64\libc-musl.a(__fmt_x.o)
                0x000000009d003b0c                __fmt_x_needed
                0x000000009d003b0c                __fmt_x

.text.DisplayInit
                0x000000009d003d1c      0x1e4
 .text.DisplayInit
                0x000000009d003d1c      0x1e4 build/DSP_TU2/debug/_ext/1360937237/display.o
                0x000000009d003d1c                DisplayInit

.text.TIMER_2_Handler
                0x000000009d003f00      0x1d0
 .text.TIMER_2_Handler
                0x000000009d003f00      0x1d0 build/DSP_TU2/debug/_ext/1994557280/interrupts.o
                0x000000009d003f00                TIMER_2_Handler

.text.UART2_FAULT_Handler
                0x000000009d0040d0      0x1d0
 .text.UART2_FAULT_Handler
                0x000000009d0040d0      0x1d0 build/DSP_TU2/debug/_ext/1994557280/interrupts.o
                0x000000009d0040d0                UART2_FAULT_Handler

.text.UART2_RX_Handler
                0x000000009d0042a0      0x1d0
 .text.UART2_RX_Handler
                0x000000009d0042a0      0x1d0 build/DSP_TU2/debug/_ext/1994557280/interrupts.o
                0x000000009d0042a0                UART2_RX_Handler

.text.UART2_TX_Handler
                0x000000009d004470      0x1d0
 .text.UART2_TX_Handler
                0x000000009d004470      0x1d0 build/DSP_TU2/debug/_ext/1994557280/interrupts.o
                0x000000009d004470                UART2_TX_Handler

.text.PollSwitchesLeds
                0x000000009d004640      0x1c8
 .text.PollSwitchesLeds
                0x000000009d004640      0x1c8 build/DSP_TU2/debug/_ext/1360937237/PollSwitchesLeds.o
                0x000000009d004640                PollSwitchesLeds

.text.GPIO_Initialize
                0x000000009d004808      0x1a0
 .text.GPIO_Initialize
                0x000000009d004808      0x1a0 build/DSP_TU2/debug/_ext/682798829/plib_gpio.o
                0x000000009d004808                GPIO_Initialize

.text.free      0x000000009d0049a8      0x19c
 .text.free     0x000000009d0049a8      0x19c c:/program files/microchip/xc32/v4.00/bin/bin/../../lib/gcc/pic32mx/8.3.1/../../../../pic32mx/lib/fpu64\libc-musl.a(malloc.o)
                0x000000009d0049a8                free

.text.UART2_RX_InterruptHandler
                0x000000009d004b44      0x18c
 .text.UART2_RX_InterruptHandler
                0x000000009d004b44      0x18c build/DSP_TU2/debug/_ext/682395886/plib_uart2.o
                0x000000009d004b44                UART2_RX_InterruptHandler

.text.__pop_int
                0x000000009d004cd0      0x188
 .text.__pop_int
                0x000000009d004cd0      0x188 c:/program files/microchip/xc32/v4.00/bin/bin/../../lib/gcc/pic32mx/8.3.1/../../../../pic32mx/lib/fpu64\libc-musl.a(__pop_int.o)
                0x000000009d004cd0                __pop_int_needed
                0x000000009d004cd0                __pop_int

.text.UART2_TX_InterruptHandler
                0x000000009d004e58      0x184
 .text.UART2_TX_InterruptHandler
                0x000000009d004e58      0x184 build/DSP_TU2/debug/_ext/682395886/plib_uart2.o
                0x000000009d004e58                UART2_TX_InterruptHandler

.text           0x000000009d004fdc      0x168
 .text          0x000000009d004fdc      0x168 c:/program files/microchip/xc32/v4.00/bin/bin/../../lib/gcc/pic32mx/8.3.1/../../../../pic32mx/lib/fpu64\libpic32.a(strlen.o)
                0x000000009d004fdc                strlen

.text.xyScope   0x000000009d005144      0x160
 .text.xyScope  0x000000009d005144      0x160 build/DSP_TU2/debug/_ext/1360937237/xyScope.o
                0x000000009d005144                xyScope

.text.__fmt_d   0x000000009d0052a4      0x158
 .text.__fmt_d  0x000000009d0052a4      0x158 c:/program files/microchip/xc32/v4.00/bin/bin/../../lib/gcc/pic32mx/8.3.1/../../../../pic32mx/lib/fpu64\libc-musl.a(__fmt_d.o)
                0x000000009d0052a4                __fmt_d_needed
                0x000000009d0052a4                __fmt_d

.rodata         0x000000009d005400      0x158
 .rodata        0x000000009d005400      0x158 c:/program files/microchip/xc32/v4.00/bin/bin/../../lib/gcc/pic32mx/8.3.1/../../../../pic32mx/lib/fpu64\libm-musl.a(__rem_pio2_large.o)

.text._sbrk_init
                0x000000009d005558      0x154
 .text._sbrk_init
                0x000000009d005558      0x154 c:/program files/microchip/xc32/v4.00/bin/bin/../../lib/gcc/pic32mx/8.3.1/../../../../pic32mx/lib/fpu64\libpic32.a(sbrk.o)
                0x000000009d005558                _sbrk_init

.text.__cvt_u   0x000000009d0056ac      0x144
 .text.__cvt_u  0x000000009d0056ac      0x144 c:/program files/microchip/xc32/v4.00/bin/bin/../../lib/gcc/pic32mx/8.3.1/../../../../pic32mx/lib/fpu64\libc-musl.a(__fmt_u.o)
                0x000000009d0056ac                __cvt_u

.text.UART2_Write
                0x000000009d0057f0      0x140
 .text.UART2_Write
                0x000000009d0057f0      0x140 build/DSP_TU2/debug/_ext/682395886/plib_uart2.o
                0x000000009d0057f0                UART2_Write

.text.sin       0x000000009d005930      0x120
 .text.sin      0x000000009d005930      0x120 c:/program files/microchip/xc32/v4.00/bin/bin/../../lib/gcc/pic32mx/8.3.1/../../../../pic32mx/lib/fpu64\libm-musl.a(sin.o)
                0x000000009d005930                sin

.text.ADCHS_Initialize
                0x000000009d005a50      0x110
 .text.ADCHS_Initialize
                0x000000009d005a50      0x110 build/DSP_TU2/debug/_ext/302168295/plib_adchs.o
                0x000000009d005a50                ADCHS_Initialize

.text.__pad     0x000000009d005b60      0x104
 .text.__pad    0x000000009d005b60      0x104 c:/program files/microchip/xc32/v4.00/bin/bin/../../lib/gcc/pic32mx/8.3.1/../../../../pic32mx/lib/fpu64\libc-musl.a(__printf_core.o)
                0x000000009d005b60                __pad

.text.cos       0x000000009d005c64      0x100
 .text.cos      0x000000009d005c64      0x100 c:/program files/microchip/xc32/v4.00/bin/bin/../../lib/gcc/pic32mx/8.3.1/../../../../pic32mx/lib/fpu64\libm-musl.a(cos.o)
                0x000000009d005c64                cos

.text.__fmt_o   0x000000009d005d64       0xfc
 .text.__fmt_o  0x000000009d005d64       0xfc c:/program files/microchip/xc32/v4.00/bin/bin/../../lib/gcc/pic32mx/8.3.1/../../../../pic32mx/lib/fpu64\libc-musl.a(__fmt_o.o)
                0x000000009d005d64                __fmt_o_needed
                0x000000009d005d64                __fmt_o

.rodata.cst8    0x000000009d005e60       0xf8
 .rodata.cst8   0x000000009d005e60       0xf8 c:/program files/microchip/xc32/v4.00/bin/bin/../../lib/gcc/pic32mx/8.3.1/../../../../pic32mx/lib/fpu64\libm-musl.a(pow.o)

.text.UART2_Initialize
                0x000000009d000010       0xe4
 .text.UART2_Initialize
                0x000000009d000010       0xe4 build/DSP_TU2/debug/_ext/682395886/plib_uart2.o
                0x000000009d000010                UART2_Initialize

.text.__pop_ptr
                0x000000009d005f58       0xe4
 .text.__pop_ptr
                0x000000009d005f58       0xe4 c:/program files/microchip/xc32/v4.00/bin/bin/../../lib/gcc/pic32mx/8.3.1/../../../../pic32mx/lib/fpu64\libc-musl.a(__pop_ptr.o)
                0x000000009d005f58                __pop_ptr_needed
                0x000000009d005f58                __pop_ptr

.text.PollEncoder
                0x000000009d00603c       0xdc
 .text.PollEncoder
                0x000000009d00603c       0xdc build/DSP_TU2/debug/_ext/1360937237/PollEncoder.o
                0x000000009d00603c                PollEncoder

.text.general_exception
                0x000000009d006118       0xdc
 .text.general_exception
                0x000000009d006118       0xdc c:/program files/microchip/xc32/v4.00/bin/bin/../../lib/gcc/pic32mx/8.3.1/../../../../pic32mx/lib/fpu64\libpic32.a(general-exception.o)
                0x000000009d006118                _general_exception_context

.text._cache_err_exception_context
                0x000000009d0061f4       0xd8
 .text._cache_err_exception_context
                0x000000009d0061f4       0xd8 c:/program files/microchip/xc32/v4.00/bin/bin/../../lib/gcc/pic32mx/8.3.1/../../../../pic32mx/lib/fpu64\libpic32.a(cache-err-exception.o)
                0x000000009d0061f4                _cache_err_exception_context

.text.simple_tlb_refill_context
                0x000000009d0062cc       0xd8
 .text.simple_tlb_refill_context
                0x000000009d0062cc       0xd8 c:/program files/microchip/xc32/v4.00/bin/bin/../../lib/gcc/pic32mx/8.3.1/../../../../pic32mx/lib/fpu64\libpic32.a(simple-tlb-refill-exception.o)
                0x000000009d0062cc                _simple_tlb_refill_exception_context

.text.UART2_FAULT_InterruptHandler
                0x000000009d0063a4       0xbc
 .text.UART2_FAULT_InterruptHandler
                0x000000009d0063a4       0xbc build/DSP_TU2/debug/_ext/682395886/plib_uart2.o
                0x000000009d0063a4                UART2_FAULT_InterruptHandler

.tlb.__pic32_tlb_init_ebi_sqi
                0x000000009d006460       0xbc
 .tlb.__pic32_tlb_init_ebi_sqi
                0x000000009d006460       0xbc c:/program files/microchip/xc32/v4.00/bin/bin/../../lib/gcc/pic32mx/8.3.1/../../../../pic32mx/lib/fpu64\libpic32.a(pic32_init_tlb_ebi_sqi.o)
                0x000000009d006460                __pic32_tlb_init_ebi_sqi

.text.__fmt_u   0x000000009d00651c       0xbc
 .text.__fmt_u  0x000000009d00651c       0xbc c:/program files/microchip/xc32/v4.00/bin/bin/../../lib/gcc/pic32mx/8.3.1/../../../../pic32mx/lib/fpu64\libc-musl.a(__fmt_u.o)
                0x000000009d00651c                __fmt_u_needed
                0x000000009d00651c                __fmt_u

.text.CLK_Initialize
                0x000000009d0065d8       0xb4
 .text.CLK_Initialize
                0x000000009d0065d8       0xb4 build/DSP_TU2/debug/_ext/255064926/plib_clk.o
                0x000000009d0065d8                CLK_Initialize

.text.DynamicThresholdGet
                0x000000009d00668c       0xb4
 .text.DynamicThresholdGet
                0x000000009d00668c       0xb4 build/DSP_TU2/debug/_ext/1360937237/DynamicThreshold.o
                0x000000009d00668c                DynamicThresholdGet

.text.floor     0x000000009d006740       0xb4
 .text.floor    0x000000009d006740       0xb4 c:/program files/microchip/xc32/v4.00/bin/bin/../../lib/gcc/pic32mx/8.3.1/../../../../pic32mx/lib/fpu64\libm-musl.a(floor.o)
                0x000000009d006740                floor

.text._sbrk     0x000000009d0067f4       0xb0
 .text._sbrk    0x000000009d0067f4       0xb0 c:/program files/microchip/xc32/v4.00/bin/bin/../../lib/gcc/pic32mx/8.3.1/../../../../pic32mx/lib/fpu64\libpic32.a(sbrk.o)
                0x000000009d0067f4                _sbrk

.text.unbin     0x000000009d0068a4       0xac
 .text.unbin    0x000000009d0068a4       0xac c:/program files/microchip/xc32/v4.00/bin/bin/../../lib/gcc/pic32mx/8.3.1/../../../../pic32mx/lib/fpu64\libc-musl.a(malloc.o)

.text.DisplayPoll
                0x000000009d006950       0xa8
 .text.DisplayPoll
                0x000000009d006950       0xa8 build/DSP_TU2/debug/_ext/1360937237/display.o
                0x000000009d006950                DisplayPoll

.text.__fmt_s   0x000000009d0069f8       0xa8
 .text.__fmt_s  0x000000009d0069f8       0xa8 c:/program files/microchip/xc32/v4.00/bin/bin/../../lib/gcc/pic32mx/8.3.1/../../../../pic32mx/lib/fpu64\libc-musl.a(__fmt_s.o)
                0x000000009d0069f8                __fmt_0_needed
                0x000000009d0069f8                __fmt_s_needed
                0x000000009d0069f8                __fmt_s

.text.SYS_Initialize
                0x000000009d006aa0       0xa0
 .text.SYS_Initialize
                0x000000009d006aa0       0xa0 build/DSP_TU2/debug/_ext/1994557280/initialization.o
                0x000000009d006aa0                SYS_Initialize

.text.__sin     0x000000009d006b40       0x90
 .text.__sin    0x000000009d006b40       0x90 c:/program files/microchip/xc32/v4.00/bin/bin/../../lib/gcc/pic32mx/8.3.1/../../../../pic32mx/lib/fpu64\libm-musl.a(__sin.o)
                0x000000009d006b40                __sin

.text           0x000000009d006bd0       0x8c
 .text          0x000000009d006bd0       0x8c c:/program files/microchip/xc32/v4.00/bin/bin/../../lib/gcc/pic32mx/8.3.1/../../../../pic32mx/lib/fpu64\libpic32.a(pic32_data_init.o)
                0x000000009d006bd0                __pic32_data_init

.text.scalbn    0x000000009d006c5c       0x8c
 .text.scalbn   0x000000009d006c5c       0x8c c:/program files/microchip/xc32/v4.00/bin/bin/../../lib/gcc/pic32mx/8.3.1/../../../../pic32mx/lib/fpu64\libm-musl.a(scalbn.o)
                0x000000009d006c5c                scalbn

.text.__cos     0x000000009d006ce8       0x88
 .text.__cos    0x000000009d006ce8       0x88 c:/program files/microchip/xc32/v4.00/bin/bin/../../lib/gcc/pic32mx/8.3.1/../../../../pic32mx/lib/fpu64\libm-musl.a(__cos.o)
                0x000000009d006ce8                __cos

.text.agc       0x000000009d006d70       0x84
 .text.agc      0x000000009d006d70       0x84 build/DSP_TU2/debug/_ext/1360937237/agc.o
                0x000000009d006d70                agc

.text.atoi      0x000000009d006df4       0x80
 .text.atoi     0x000000009d006df4       0x80 c:/program files/microchip/xc32/v4.00/bin/bin/../../lib/gcc/pic32mx/8.3.1/../../../../pic32mx/lib/fpu64\libc-musl.a(atoi.o)
                0x000000009d006df4                atoi

.text.__vsnprintf
                0x000000009d006e74       0x80
 .text.__vsnprintf
                0x000000009d006e74       0x80 c:/program files/microchip/xc32/v4.00/bin/bin/../../lib/gcc/pic32mx/8.3.1/../../../../pic32mx/lib/fpu64\libc-musl.a(__int_vsnprintf.o)
                0x000000009d006e74                __vsnprintf

.text.SPI3_Initialize
                0x000000009d006ef4       0x7c
 .text.SPI3_Initialize
                0x000000009d006ef4       0x7c build/DSP_TU2/debug/_ext/957679836/plib_spi3_master.o
                0x000000009d006ef4                SPI3_Initialize

.text.SPI1_Initialize
                0x000000009d006f70       0x78
 .text.SPI1_Initialize
                0x000000009d006f70       0x78 build/DSP_TU2/debug/_ext/957679836/plib_spi1_master.o
                0x000000009d006f70                SPI1_Initialize

.rodata.cst8    0x000000009d006fe8       0x78
 .rodata.cst8   0x000000009d006fe8       0x78 c:/program files/microchip/xc32/v4.00/bin/bin/../../lib/gcc/pic32mx/8.3.1/../../../../pic32mx/lib/fpu64\libm-musl.a(__rem_pio2.o)

.text.SPI2_Initialize
                0x000000009d007060       0x74
 .text.SPI2_Initialize
                0x000000009d007060       0x74 build/DSP_TU2/debug/_ext/957679836/plib_spi2_master.o
                0x000000009d007060                SPI2_Initialize

.text.alloc_rev
                0x000000009d0070d4       0x74
 .text.alloc_rev
                0x000000009d0070d4       0x74 c:/program files/microchip/xc32/v4.00/bin/bin/../../lib/gcc/pic32mx/8.3.1/../../../../pic32mx/lib/fpu64\libc-musl.a(malloc.o)

.text.alloc_fwd
                0x000000009d000110       0x70
 .text.alloc_fwd
                0x000000009d000110       0x70 c:/program files/microchip/xc32/v4.00/bin/bin/../../lib/gcc/pic32mx/8.3.1/../../../../pic32mx/lib/fpu64\libc-musl.a(malloc.o)

.text.DisplaySetXY
                0x000000009d000190       0x64
 .text.DisplaySetXY
                0x000000009d000190       0x64 build/DSP_TU2/debug/_ext/1360937237/display.o
                0x000000009d000190                DisplaySetXY

.text.bin_index
                0x000000009d007148       0x64
 .text.bin_index
                0x000000009d007148       0x64 c:/program files/microchip/xc32/v4.00/bin/bin/../../lib/gcc/pic32mx/8.3.1/../../../../pic32mx/lib/fpu64\libc-musl.a(malloc.o)

.text.EVIC_Initialize
                0x000000009d0071ac       0x5c
 .text.EVIC_Initialize
                0x000000009d0071ac       0x5c build/DSP_TU2/debug/_ext/682852657/plib_evic.o
                0x000000009d0071ac                EVIC_Initialize

.rodata         0x000000009d007208       0x5c
 .rodata        0x000000009d007208       0x5c c:/program files/microchip/xc32/v4.00/bin/bin/../../lib/gcc/pic32mx/8.3.1/../../../../pic32mx/lib/fpu64\libc-musl.a(malloc.o)

.text.__string_out
                0x000000009d007264       0x5c
 .text.__string_out
                0x000000009d007264       0x5c c:/program files/microchip/xc32/v4.00/bin/bin/../../lib/gcc/pic32mx/8.3.1/../../../../pic32mx/lib/fpu64\libc-musl.a(__printf_core.o)
                0x000000009d007264                __out

.text.__fmt_state
                0x000000009d0072c0       0x5c
 .text.__fmt_state
                0x000000009d0072c0       0x5c c:/program files/microchip/xc32/v4.00/bin/bin/../../lib/gcc/pic32mx/8.3.1/../../../../pic32mx/lib/fpu64\libc-musl.a(__printf_core.o)
                0x000000009d0072c0                __fmt_state

.text.AudioPwmSet
                0x000000009d00731c       0x58
 .text.AudioPwmSet
                0x000000009d00731c       0x58 build/DSP_TU2/debug/_ext/1360937237/PwmAudioOut.o
                0x000000009d00731c                AudioPwmSet

.text.DisplayFifoWrite
                0x000000009d007374       0x58
 .text.DisplayFifoWrite
                0x000000009d007374       0x58 build/DSP_TU2/debug/_ext/1360937237/display.o
                0x000000009d007374                DisplayFifoWrite

.text.Fifo16Put
                0x000000009d0073cc       0x58
 .text.Fifo16Put
                0x000000009d0073cc       0x58 build/DSP_TU2/debug/_ext/1360937237/fifo16.o
                0x000000009d0073cc                Fifo16Put

.text.adjust_size
                0x000000009d007424       0x58
 .text.adjust_size
                0x000000009d007424       0x58 c:/program files/microchip/xc32/v4.00/bin/bin/../../lib/gcc/pic32mx/8.3.1/../../../../pic32mx/lib/fpu64\libc-musl.a(malloc.o)

.text.trim      0x000000009d00747c       0x58
 .text.trim     0x000000009d00747c       0x58 c:/program files/microchip/xc32/v4.00/bin/bin/../../lib/gcc/pic32mx/8.3.1/../../../../pic32mx/lib/fpu64\libc-musl.a(malloc.o)

.text.BiQuad    0x000000009d0074d4       0x54
 .text.BiQuad   0x000000009d0074d4       0x54 build/DSP_TU2/debug/_ext/1360937237/biquad.o
                0x000000009d0074d4                BiQuad

.text.Fifo16Get
                0x000000009d007528       0x54
 .text.Fifo16Get
                0x000000009d007528       0x54 build/DSP_TU2/debug/_ext/1360937237/fifo16.o
                0x000000009d007528                Fifo16Get

.text.main_entry
                0x000000009d00757c       0x54
 .text.main_entry
                0x000000009d00757c       0x54 C:\Users\HAROLD~1\AppData\Local\Temp\ccOhslTW.o
                0x000000009d0075b0                __crt0_exit

.text.DdsNextSample
                0x000000009d0075d0       0x50
 .text.DdsNextSample
                0x000000009d0075d0       0x50 build/DSP_TU2/debug/_ext/1360937237/dds.o
                0x000000009d0075d0                DdsNextSample

.text.DisplayClear
                0x000000009d007620       0x50
 .text.DisplayClear
                0x000000009d007620       0x50 build/DSP_TU2/debug/_ext/1360937237/display.o
                0x000000009d007620                DisplayClear

.text.DynamicThresholdInit
                0x000000009d007670       0x4c
 .text.DynamicThresholdInit
                0x000000009d007670       0x4c build/DSP_TU2/debug/_ext/1360937237/DynamicThreshold.o
                0x000000009d007670                DynamicThresholdInit

.rodata.cst8    0x000000009d0076c0       0x48
 .rodata.cst8   0x000000009d0076c0       0x48 build/DSP_TU2/debug/_ext/1360937237/main.o

.text.AgcInit   0x000000009d007708       0x48
 .text.AgcInit  0x000000009d007708       0x48 build/DSP_TU2/debug/_ext/1360937237/agc.o
                0x000000009d007708                AgcInit

.text.DisplayWriteNextPixel
                0x000000009d007750       0x48
 .text.DisplayWriteNextPixel
                0x000000009d007750       0x48 build/DSP_TU2/debug/_ext/1360937237/display.o
                0x000000009d007750                DisplayWriteNextPixel

.text.DisplayWritePixel
                0x000000009d007798       0x48
 .text.DisplayWritePixel
                0x000000009d007798       0x48 build/DSP_TU2/debug/_ext/1360937237/display.o
                0x000000009d007798                DisplayWritePixel

.text.Fifo16Create
                0x000000009d0077e0       0x48
 .text.Fifo16Create
                0x000000009d0077e0       0x48 build/DSP_TU2/debug/_ext/1360937237/fifo16.o
                0x000000009d0077e0                Fifo16Create

.text.__pop_float
                0x000000009d007828       0x48
 .text.__pop_float
                0x000000009d007828       0x48 c:/program files/microchip/xc32/v4.00/bin/bin/../../lib/gcc/pic32mx/8.3.1/../../../../pic32mx/lib/fpu64\libc-musl.a(__pop_float.o)
                0x000000009d007828                __pop_float_needed
                0x000000009d007828                __pop_float

.text           0x000000009d007870       0x44
 .text          0x000000009d007870       0x44 c:/program files/microchip/xc32/v4.00/bin/bin/../../lib/gcc/pic32mx/8.3.1/../../../../pic32mx/lib/fpu64\pic32_software_reset.o
                0x000000009d007870                __pic32_software_reset

.text.TIMER_2_InterruptHandler
                0x000000009d0078b4       0x40
 .text.TIMER_2_InterruptHandler
                0x000000009d0078b4       0x40 build/DSP_TU2/debug/_ext/255081301/plib_tmr2.o
                0x000000009d0078b4                TIMER_2_InterruptHandler

.text.ComWrite  0x000000009d0078f4       0x40
 .text.ComWrite
                0x000000009d0078f4       0x40 build/DSP_TU2/debug/_ext/1360937237/display.o
                0x000000009d0078f4                ComWrite

.rodata.cst8    0x000000009d007938       0x80
 .rodata.cst8   0x000000009d007938       0x40 c:/program files/microchip/xc32/v4.00/bin/bin/../../lib/gcc/pic32mx/8.3.1/../../../../pic32mx/lib/fpu64\libm-musl.a(__cos.o)
 .rodata.cst8   0x000000009d007978       0x40 c:/program files/microchip/xc32/v4.00/bin/bin/../../lib/gcc/pic32mx/8.3.1/../../../../pic32mx/lib/fpu64\libm-musl.a(__sin.o)

.text.TMR2_Initialize
                0x000000009d0079b8       0x3c
 .text.TMR2_Initialize
                0x000000009d0079b8       0x3c build/DSP_TU2/debug/_ext/255081301/plib_tmr2.o
                0x000000009d0079b8                TMR2_Initialize

.text.__expand_heap
                0x000000009d0079f4       0x3c
 .text.__expand_heap
                0x000000009d0079f4       0x3c c:/program files/microchip/xc32/v4.00/bin/bin/../../lib/gcc/pic32mx/8.3.1/../../../../pic32mx/lib/fpu64\libc-musl.a(expand_heap.o)
                0x000000009d0079f4                __expand_heap

.text.__vfprintf
                0x000000009d007a30       0x3c
 .text.__vfprintf
                0x000000009d007a30       0x3c c:/program files/microchip/xc32/v4.00/bin/bin/../../lib/gcc/pic32mx/8.3.1/../../../../pic32mx/lib/fpu64\libc-musl.a(__int_vfprintf.o)
                0x000000009d007a30                __vfprintf

.text           0x000000009d007a6c       0x78
 .text          0x000000009d007a6c       0x3c c:/program files/microchip/xc32/v4.00/bin/bin/../../lib/gcc/pic32mx/8.3.1/fpu64\libgcc.a(_lshrdi3.o)
                0x000000009d007a6c                __lshrdi3
 .text          0x000000009d007aa8       0x3c c:/program files/microchip/xc32/v4.00/bin/bin/../../lib/gcc/pic32mx/8.3.1/fpu64\libgcc.a(_ashldi3.o)
                0x000000009d007aa8                __ashldi3

.text.UART2_WritePendingBytesGet
                0x000000009d007ae4       0x34
 .text.UART2_WritePendingBytesGet
                0x000000009d007ae4       0x34 build/DSP_TU2/debug/_ext/682395886/plib_uart2.o

.text.UART2_ReadCountGet
                0x000000009d007b18       0x34
 .text.UART2_ReadCountGet
                0x000000009d007b18       0x34 build/DSP_TU2/debug/_ext/682395886/plib_uart2.o
                0x000000009d007b18                UART2_ReadCountGet

.text.lock_bin  0x000000009d007b4c       0x34
 .text.lock_bin
                0x000000009d007b4c       0x34 c:/program files/microchip/xc32/v4.00/bin/bin/../../lib/gcc/pic32mx/8.3.1/../../../../pic32mx/lib/fpu64\libc-musl.a(malloc.o)

.text.UART2_WriteFreeBufferCountGet
                0x000000009d007b80       0x30
 .text.UART2_WriteFreeBufferCountGet
                0x000000009d007b80       0x30 build/DSP_TU2/debug/_ext/682395886/plib_uart2.o
                0x000000009d007b80                UART2_WriteFreeBufferCountGet

.text.AfskGen   0x000000009d007bb0       0x30
 .text.AfskGen  0x000000009d007bb0       0x30 build/DSP_TU2/debug/_ext/1360937237/AfskGen.o
                0x000000009d007bb0                AfskGen

.rodata.cst8    0x000000009d007be0       0x30
 .rodata.cst8   0x000000009d007be0       0x30 build/DSP_TU2/debug/_ext/1360937237/biquad.o

.rodata         0x000000009d007c10       0x30
 .rodata        0x000000009d007c10       0x30 c:/program files/microchip/xc32/v4.00/bin/bin/../../lib/gcc/pic32mx/8.3.1/../../../../pic32mx/lib/fpu64\libm-musl.a(pow.o)

.rodata.cst8    0x000000009d007c40       0x30
 .rodata.cst8   0x000000009d007c40       0x30 c:/program files/microchip/xc32/v4.00/bin/bin/../../lib/gcc/pic32mx/8.3.1/../../../../pic32mx/lib/fpu64\libm-musl.a(__rem_pio2_large.o)

.text.memcpy    0x000000009d007c70       0x2c
 .text.memcpy   0x000000009d007c70       0x2c c:/program files/microchip/xc32/v4.00/bin/bin/../../lib/gcc/pic32mx/8.3.1/../../../../pic32mx/lib/fpu64\libc-musl.a(memcpy.o)
                0x000000009d007c70                memcpy

.text._stub_sbd_memlayout
                0x000000009d007c9c       0x2c
 .text._stub_sbd_memlayout
                0x000000009d007c9c       0x2c c:/program files/microchip/xc32/v4.00/bin/bin/../../lib/gcc/pic32mx/8.3.1/../../../../pic32mx/lib/fpu64\libpic32.a(sbrk.o)
                0x000000009d007c9c                _sbd_memlayout
                0x000000009d007c9c                _stub_sbd_memlayout

.text.ADCHS_ChannelConversionStart
                0x000000009d007cc8       0x28
 .text.ADCHS_ChannelConversionStart
                0x000000009d007cc8       0x28 build/DSP_TU2/debug/_ext/302168295/plib_adchs.o
                0x000000009d007cc8                ADCHS_ChannelConversionStart

.text.OCMP1_Initialize
                0x000000009d007cf0       0x28
 .text.OCMP1_Initialize
                0x000000009d007cf0       0x28 build/DSP_TU2/debug/_ext/682572869/plib_ocmp1.o
                0x000000009d007cf0                OCMP1_Initialize

.text.__wrap_sprintf
                0x000000009d007d18       0x28
 .text.__wrap_sprintf
                0x000000009d007d18       0x28 c:/program files/microchip/xc32/v4.00/bin/bin/../../lib/gcc/pic32mx/8.3.1/../../../../pic32mx/lib/fpu64\libc-musl.a(__sio_sprintf_doux.o)
                0x000000009d007d18                _sprintf_cdnopuxX
                0x000000009d007d18                _dsprintf_cdnopuxX

.text.__vsprintf
                0x000000009d007d40       0x28
 .text.__vsprintf
                0x000000009d007d40       0x28 c:/program files/microchip/xc32/v4.00/bin/bin/../../lib/gcc/pic32mx/8.3.1/../../../../pic32mx/lib/fpu64\libc-musl.a(__int_vsprintf.o)
                0x000000009d007d40                __vsprintf

.text.DataWrite
                0x000000009d007d68       0x24
 .text.DataWrite
                0x000000009d007d68       0x24 build/DSP_TU2/debug/_ext/1360937237/display.o
                0x000000009d007d68                DataWrite

.text.DisplayCSN
                0x000000009d007d8c       0x24
 .text.DisplayCSN
                0x000000009d007d8c       0x24 build/DSP_TU2/debug/_ext/1360937237/display.o
                0x000000009d007d8c                DisplayCSN

.text.memset    0x000000009d007db0       0x24
 .text.memset   0x000000009d007db0       0x24 c:/program files/microchip/xc32/v4.00/bin/bin/../../lib/gcc/pic32mx/8.3.1/../../../../pic32mx/lib/fpu64\libc-musl.a(memset.o)
                0x000000009d007db0                memset

.rodata.cst8    0x000000009d007dd8       0x20
 .rodata.cst8   0x000000009d007dd8       0x20 build/DSP_TU2/debug/_ext/1360937237/DynamicThreshold.o

.text.DdsFreqSet
                0x000000009d007df8       0x20
 .text.DdsFreqSet
                0x000000009d007df8       0x20 build/DSP_TU2/debug/_ext/1360937237/dds.o
                0x000000009d007df8                DdsFreqSet

.text._general_exception_handler
                0x000000009d007e18       0x1c
 .text._general_exception_handler
                0x000000009d007e18       0x1c build/DSP_TU2/debug/_ext/1994557280/exceptions.o
                0x000000009d007e18                _general_exception_handler

.text._bootstrap_exception_handler
                0x000000009d007e34       0x1c
 .text._bootstrap_exception_handler
                0x000000009d007e34       0x1c build/DSP_TU2/debug/_ext/1994557280/exceptions.o
                0x000000009d007e34                _bootstrap_exception_handler

.text._cache_err_exception_handler
                0x000000009d007e50       0x1c
 .text._cache_err_exception_handler
                0x000000009d007e50       0x1c build/DSP_TU2/debug/_ext/1994557280/exceptions.o
                0x000000009d007e50                _cache_err_exception_handler

.text._simple_tlb_refill_exception_handler
                0x000000009d007e6c       0x1c
 .text._simple_tlb_refill_exception_handler
                0x000000009d007e6c       0x1c build/DSP_TU2/debug/_ext/1994557280/exceptions.o
                0x000000009d007e6c                _simple_tlb_refill_exception_handler

.text.AfskGenInit
                0x000000009d007e88       0x1c
 .text.AfskGenInit
                0x000000009d007e88       0x1c build/DSP_TU2/debug/_ext/1360937237/AfskGen.o
                0x000000009d007e88                AfskGenInit

.text.tolower   0x000000009d007ea4       0x1c
 .text.tolower  0x000000009d007ea4       0x1c c:/program files/microchip/xc32/v4.00/bin/bin/../../lib/gcc/pic32mx/8.3.1/../../../../pic32mx/lib/fpu64\libc-musl.a(tolower.o)
                0x000000009d007ea4                tolower

.text.toupper   0x000000009d007ec0       0x1c
 .text.toupper  0x000000009d007ec0       0x1c c:/program files/microchip/xc32/v4.00/bin/bin/../../lib/gcc/pic32mx/8.3.1/../../../../pic32mx/lib/fpu64\libc-musl.a(toupper.o)
                0x000000009d007ec0                toupper

.MIPS.abiflags  0x000000009d007ee0       0x18
 .MIPS.abiflags
                0x000000009d007ee0       0x18 c:/program files/microchip/xc32/v4.00/bin/bin/../../lib/gcc/pic32mx/8.3.1/../../../../pic32mx/lib/fpu64\software-debug-break.o

.text.ADCHS_ChannelResultGet
                0x000000009d007ef8       0x18
 .text.ADCHS_ChannelResultGet
                0x000000009d007ef8       0x18 build/DSP_TU2/debug/_ext/302168295/plib_adchs.o
                0x000000009d007ef8                ADCHS_ChannelResultGet

.text.MyTimer2Isr
                0x000000009d007f10       0x18
 .text.MyTimer2Isr
                0x000000009d007f10       0x18 build/DSP_TU2/debug/_ext/1360937237/main.o

.text           0x000000009d007f28       0x18
 .text          0x000000009d007f28       0x18 c:/program files/microchip/xc32/v4.00/bin/bin/../../lib/gcc/pic32mx/8.3.1/../../../../pic32mx/lib/fpu64\libpic32.a(default-nmi-handler.o)
                0x000000009d007f28                _nmi_handler

.rodata         0x000000009d007f40       0x18
 .rodata        0x000000009d007f40       0x18 c:/program files/microchip/xc32/v4.00/bin/bin/../../lib/gcc/pic32mx/8.3.1/../../../../pic32mx/lib/fpu64\libc-musl.a(__printf_core.o)

.text.fabs      0x000000009d007f58       0x18
 .text.fabs     0x000000009d007f58       0x18 c:/program files/microchip/xc32/v4.00/bin/bin/../../lib/gcc/pic32mx/8.3.1/../../../../pic32mx/lib/fpu64\libm-musl.a(fabs.o)
                0x000000009d007f58                fabs

.rodata.cst8    0x000000009d007f70       0x18
 .rodata.cst8   0x000000009d007f70       0x18 c:/program files/microchip/xc32/v4.00/bin/bin/../../lib/gcc/pic32mx/8.3.1/../../../../pic32mx/lib/fpu64\libm-musl.a(floor.o)

.text.OCMP1_Enable
                0x000000009d007f88       0x14
 .text.OCMP1_Enable
                0x000000009d007f88       0x14 build/DSP_TU2/debug/_ext/682572869/plib_ocmp1.o
                0x000000009d007f88                OCMP1_Enable

.text.SPI1_IsTransmitterBusy
                0x000000009d007f9c       0x14
 .text.SPI1_IsTransmitterBusy
                0x000000009d007f9c       0x14 build/DSP_TU2/debug/_ext/957679836/plib_spi1_master.o
                0x000000009d007f9c                SPI1_IsTransmitterBusy

.text.TMR2_Start
                0x000000009d007fb0       0x14
 .text.TMR2_Start
                0x000000009d007fb0       0x14 build/DSP_TU2/debug/_ext/255081301/plib_tmr2.o
                0x000000009d007fb0                TMR2_Start

.text.OCMP1_CompareSecondaryValueSet
                0x000000009d007fc4       0x10
 .text.OCMP1_CompareSecondaryValueSet
                0x000000009d007fc4       0x10 build/DSP_TU2/debug/_ext/682572869/plib_ocmp1.o
                0x000000009d007fc4                OCMP1_CompareSecondaryValueSet

.text.TMR2_CallbackRegister
                0x000000009d007fd4       0x10
 .text.TMR2_CallbackRegister
                0x000000009d007fd4       0x10 build/DSP_TU2/debug/_ext/255081301/plib_tmr2.o
                0x000000009d007fd4                TMR2_CallbackRegister

.rodata.cst8    0x000000009d007fe8       0x20
 .rodata.cst8   0x000000009d007fe8       0x10 build/DSP_TU2/debug/_ext/1360937237/PwmAudioOut.o
 .rodata.cst8   0x000000009d007ff8       0x10 build/DSP_TU2/debug/_ext/1360937237/agc.o

.rodata.cst8    0x000000009d008008       0x20
 .rodata.cst8   0x000000009d008008       0x10 build/DSP_TU2/debug/_ext/1360937237/dds.o
 .rodata.cst8   0x000000009d008018       0x10 build/DSP_TU2/debug/_ext/1360937237/xyScope.o

.rodata.cst8    0x000000009d008028       0x20
 .rodata.cst8   0x000000009d008028       0x10 c:/program files/microchip/xc32/v4.00/bin/bin/../../lib/gcc/pic32mx/8.3.1/../../../../pic32mx/lib/fpu64\libm-musl.a(cos.o)
 .rodata.cst8   0x000000009d008038       0x10 c:/program files/microchip/xc32/v4.00/bin/bin/../../lib/gcc/pic32mx/8.3.1/../../../../pic32mx/lib/fpu64\libm-musl.a(scalbn.o)

.rodata.cst8    0x000000009d008048       0x20
 .rodata.cst8   0x000000009d008048       0x10 c:/program files/microchip/xc32/v4.00/bin/bin/../../lib/gcc/pic32mx/8.3.1/../../../../pic32mx/lib/fpu64\libm-musl.a(sin.o)
 .rodata.cst8   0x000000009d008058       0x10 c:/program files/microchip/xc32/v4.00/bin/bin/../../lib/gcc/pic32mx/8.3.1/../../../../pic32mx/lib/fpu64\libm-musl.a(sqrt.o)

.text.__exception_handler_break
                0x000000009d0000f4        0xc
 .text.__exception_handler_break
                0x000000009d0000f4        0xc c:/program files/microchip/xc32/v4.00/bin/bin/../../lib/gcc/pic32mx/8.3.1/../../../../pic32mx/lib/fpu64\software-debug-break.o
                0x000000009d0000f4                __exception_handler_break

.rodata.str1.4  0x000000009d0001f4        0xc
 .rodata.str1.4
                0x000000009d0001f4        0xc build/DSP_TU2/debug/_ext/1360937237/PollEncoder.o

.text.Fifo16Full
                0x000000009d008068        0x8
 .text.Fifo16Full
                0x000000009d008068        0x8 build/DSP_TU2/debug/_ext/1360937237/fifo16.o
                0x000000009d008068                Fifo16Full

.text.Fifo16Free
                0x000000009d008070        0x8
 .text.Fifo16Free
                0x000000009d008070        0x8 build/DSP_TU2/debug/_ext/1360937237/fifo16.o
                0x000000009d008070                Fifo16Free

.text._on_reset
                0x000000009d008078        0x8
 .text._on_reset
                0x000000009d008078        0x8 c:/program files/microchip/xc32/v4.00/bin/bin/../../lib/gcc/pic32mx/8.3.1/../../../../pic32mx/lib/fpu64\libpic32.a(default-on-reset.o)
                0x000000009d008078                _on_reset

.text._on_bootstrap
                0x000000009d008080        0x8
 .text._on_bootstrap
                0x000000009d008080        0x8 c:/program files/microchip/xc32/v4.00/bin/bin/../../lib/gcc/pic32mx/8.3.1/../../../../pic32mx/lib/fpu64\libpic32.a(default-on-bootstrap.o)
                0x000000009d008080                _on_bootstrap

.text.__dummy_fmt4
                0x000000009d008088        0x8
 .text.__dummy_fmt4
                0x000000009d008088        0x8 c:/program files/microchip/xc32/v4.00/bin/bin/../../lib/gcc/pic32mx/8.3.1/../../../../pic32mx/lib/fpu64\libc-musl.a(__printf_core.o)
                0x000000009d008088                __fmt_fp
                0x000000009d008088                __fmt_a

.rodata.str1.4  0x000000009d008090        0x8
 .rodata.str1.4
                0x000000009d008090        0x8 c:/program files/microchip/xc32/v4.00/bin/bin/../../lib/gcc/pic32mx/8.3.1/../../../../pic32mx/lib/fpu64\libc-musl.a(__printf_core.o)
